
SD_Card.elf:     file format elf32-avr

Sections:
Idx Name          Size      VMA       LMA       File off  Algn
  0 .data         00000db8  00800100  00002952  000029e6  2**0
                  CONTENTS, ALLOC, LOAD, DATA
  1 .text         00002952  00000000  00000000  00000094  2**1
                  CONTENTS, ALLOC, LOAD, READONLY, CODE
  2 .bss          0000023d  00800eb8  00800eb8  0000379e  2**0
                  ALLOC
  3 .comment      00000030  00000000  00000000  0000379e  2**0
                  CONTENTS, READONLY
  4 .note.gnu.avr.deviceinfo 00000040  00000000  00000000  000037d0  2**2
                  CONTENTS, READONLY
  5 .debug_aranges 000001e0  00000000  00000000  00003810  2**0
                  CONTENTS, READONLY, DEBUGGING
  6 .debug_info   000037ed  00000000  00000000  000039f0  2**0
                  CONTENTS, READONLY, DEBUGGING
  7 .debug_abbrev 00000d23  00000000  00000000  000071dd  2**0
                  CONTENTS, READONLY, DEBUGGING
  8 .debug_line   000022cb  00000000  00000000  00007f00  2**0
                  CONTENTS, READONLY, DEBUGGING
  9 .debug_frame  000009d8  00000000  00000000  0000a1cc  2**2
                  CONTENTS, READONLY, DEBUGGING
 10 .debug_str    00000a49  00000000  00000000  0000aba4  2**0
                  CONTENTS, READONLY, DEBUGGING
 11 .debug_loc    000044a7  00000000  00000000  0000b5ed  2**0
                  CONTENTS, READONLY, DEBUGGING
 12 .debug_ranges 000001e0  00000000  00000000  0000fa94  2**0
                  CONTENTS, READONLY, DEBUGGING

Disassembly of section .text:

00000000 <__vectors>:
       0:	45 c0       	rjmp	.+138    	; 0x8c <__ctors_end>
       2:	00 00       	nop
       4:	61 c0       	rjmp	.+194    	; 0xc8 <__bad_interrupt>
       6:	00 00       	nop
       8:	5f c0       	rjmp	.+190    	; 0xc8 <__bad_interrupt>
       a:	00 00       	nop
       c:	5d c0       	rjmp	.+186    	; 0xc8 <__bad_interrupt>
       e:	00 00       	nop
      10:	5b c0       	rjmp	.+182    	; 0xc8 <__bad_interrupt>
      12:	00 00       	nop
      14:	59 c0       	rjmp	.+178    	; 0xc8 <__bad_interrupt>
      16:	00 00       	nop
      18:	57 c0       	rjmp	.+174    	; 0xc8 <__bad_interrupt>
      1a:	00 00       	nop
      1c:	55 c0       	rjmp	.+170    	; 0xc8 <__bad_interrupt>
      1e:	00 00       	nop
      20:	53 c0       	rjmp	.+166    	; 0xc8 <__bad_interrupt>
      22:	00 00       	nop
      24:	51 c0       	rjmp	.+162    	; 0xc8 <__bad_interrupt>
      26:	00 00       	nop
      28:	4f c0       	rjmp	.+158    	; 0xc8 <__bad_interrupt>
      2a:	00 00       	nop
      2c:	4d c0       	rjmp	.+154    	; 0xc8 <__bad_interrupt>
      2e:	00 00       	nop
      30:	4b c0       	rjmp	.+150    	; 0xc8 <__bad_interrupt>
      32:	00 00       	nop
      34:	49 c0       	rjmp	.+146    	; 0xc8 <__bad_interrupt>
      36:	00 00       	nop
      38:	47 c0       	rjmp	.+142    	; 0xc8 <__bad_interrupt>
      3a:	00 00       	nop
      3c:	45 c0       	rjmp	.+138    	; 0xc8 <__bad_interrupt>
      3e:	00 00       	nop
      40:	43 c0       	rjmp	.+134    	; 0xc8 <__bad_interrupt>
      42:	00 00       	nop
      44:	41 c0       	rjmp	.+130    	; 0xc8 <__bad_interrupt>
      46:	00 00       	nop
      48:	3f c0       	rjmp	.+126    	; 0xc8 <__bad_interrupt>
      4a:	00 00       	nop
      4c:	3d c0       	rjmp	.+122    	; 0xc8 <__bad_interrupt>
      4e:	00 00       	nop
      50:	3b c0       	rjmp	.+118    	; 0xc8 <__bad_interrupt>
      52:	00 00       	nop
      54:	39 c0       	rjmp	.+114    	; 0xc8 <__bad_interrupt>
      56:	00 00       	nop
      58:	37 c0       	rjmp	.+110    	; 0xc8 <__bad_interrupt>
      5a:	00 00       	nop
      5c:	35 c0       	rjmp	.+106    	; 0xc8 <__bad_interrupt>
      5e:	00 00       	nop
      60:	33 c0       	rjmp	.+102    	; 0xc8 <__bad_interrupt>
      62:	00 00       	nop
      64:	31 c0       	rjmp	.+98     	; 0xc8 <__bad_interrupt>
      66:	00 00       	nop
      68:	2f c0       	rjmp	.+94     	; 0xc8 <__bad_interrupt>
      6a:	00 00       	nop
      6c:	2d c0       	rjmp	.+90     	; 0xc8 <__bad_interrupt>
      6e:	00 00       	nop
      70:	2b c0       	rjmp	.+86     	; 0xc8 <__bad_interrupt>
      72:	00 00       	nop
      74:	29 c0       	rjmp	.+82     	; 0xc8 <__bad_interrupt>
      76:	00 00       	nop
      78:	27 c0       	rjmp	.+78     	; 0xc8 <__bad_interrupt>
      7a:	00 00       	nop
      7c:	25 c0       	rjmp	.+74     	; 0xc8 <__bad_interrupt>
      7e:	00 00       	nop
      80:	23 c0       	rjmp	.+70     	; 0xc8 <__bad_interrupt>
      82:	00 00       	nop
      84:	21 c0       	rjmp	.+66     	; 0xc8 <__bad_interrupt>
      86:	00 00       	nop
      88:	1f c0       	rjmp	.+62     	; 0xc8 <__bad_interrupt>
	...

0000008c <__ctors_end>:
      8c:	11 24       	eor	r1, r1
      8e:	1f be       	out	0x3f, r1	; 63
      90:	cf ef       	ldi	r28, 0xFF	; 255
      92:	d0 e4       	ldi	r29, 0x40	; 64
      94:	de bf       	out	0x3e, r29	; 62
      96:	cd bf       	out	0x3d, r28	; 61

00000098 <__do_copy_data>:
      98:	1e e0       	ldi	r17, 0x0E	; 14
      9a:	a0 e0       	ldi	r26, 0x00	; 0
      9c:	b1 e0       	ldi	r27, 0x01	; 1
      9e:	e2 e5       	ldi	r30, 0x52	; 82
      a0:	f9 e2       	ldi	r31, 0x29	; 41
      a2:	00 e0       	ldi	r16, 0x00	; 0
      a4:	0b bf       	out	0x3b, r16	; 59
      a6:	02 c0       	rjmp	.+4      	; 0xac <__do_copy_data+0x14>
      a8:	07 90       	elpm	r0, Z+
      aa:	0d 92       	st	X+, r0
      ac:	a8 3b       	cpi	r26, 0xB8	; 184
      ae:	b1 07       	cpc	r27, r17
      b0:	d9 f7       	brne	.-10     	; 0xa8 <__do_copy_data+0x10>

000000b2 <__do_clear_bss>:
      b2:	20 e1       	ldi	r18, 0x10	; 16
      b4:	a8 eb       	ldi	r26, 0xB8	; 184
      b6:	be e0       	ldi	r27, 0x0E	; 14
      b8:	01 c0       	rjmp	.+2      	; 0xbc <.do_clear_bss_start>

000000ba <.do_clear_bss_loop>:
      ba:	1d 92       	st	X+, r1

000000bc <.do_clear_bss_start>:
      bc:	a5 3f       	cpi	r26, 0xF5	; 245
      be:	b2 07       	cpc	r27, r18
      c0:	e1 f7       	brne	.-8      	; 0xba <.do_clear_bss_loop>
      c2:	08 d0       	rcall	.+16     	; 0xd4 <main>
      c4:	0c 94 a7 14 	jmp	0x294e	; 0x294e <_exit>

000000c8 <__bad_interrupt>:
      c8:	9b cf       	rjmp	.-202    	; 0x0 <__vectors>

000000ca <get_fattime>:
	| ((DWORD)8 << 21)				// Month 7 
	| ((DWORD)2 << 16)				// Day 28 
	| ((DWORD)20 << 11)				// Hour 0..24
	| ((DWORD)30 << 5)				// Min 0 
	| ((DWORD)0 >> 1);				// Sec/2 0
}
      ca:	60 ec       	ldi	r22, 0xC0	; 192
      cc:	73 ea       	ldi	r23, 0xA3	; 163
      ce:	82 e0       	ldi	r24, 0x02	; 2
      d0:	93 e4       	ldi	r25, 0x43	; 67
      d2:	08 95       	ret

000000d4 <main>:


int main(void)
{
      d4:	cf 93       	push	r28
      d6:	df 93       	push	r29
      d8:	cd b7       	in	r28, 0x3d	; 61
      da:	de b7       	in	r29, 0x3e	; 62
      dc:	c9 50       	subi	r28, 0x09	; 9
      de:	dd 40       	sbci	r29, 0x0D	; 13
      e0:	0f b6       	in	r0, 0x3f	; 63
      e2:	f8 94       	cli
      e4:	de bf       	out	0x3e, r29	; 62
      e6:	0f be       	out	0x3f, r0	; 63
      e8:	cd bf       	out	0x3d, r28	; 61
		0x80,0x3B,0x9D,0xAB,0x4B,0xB8,0x42,0xEC,0x0F,0x53,
		0xD3,0xC5,0x6A,0xFE,0xE9,0xFC,0xD4,0xB7,0x4D,0x21,
		0xA9,0x24,0x70,0xE4,0xB7,0x4A,0xB4,0xBE,0xE1,0x88,
		0x60,0xE3,0x15,0x7D,0xAB,0x35,0xC0,0xF4,0xD3,0xA7,
		0xFB,0x51,0xDC,0x2B,0x8C,0x11,0x83,0x52,0x44,0x25,
	0xDC,0x9D,0xEB,0xFF,0xD9};
      ea:	87 e0       	ldi	r24, 0x07	; 7
      ec:	9d e0       	ldi	r25, 0x0D	; 13
      ee:	e7 e0       	ldi	r30, 0x07	; 7
      f0:	f1 e0       	ldi	r31, 0x01	; 1
      f2:	de 01       	movw	r26, r28
      f4:	11 96       	adiw	r26, 0x01	; 1
      f6:	01 90       	ld	r0, Z+
      f8:	0d 92       	st	X+, r0
      fa:	01 97       	sbiw	r24, 0x01	; 1
      fc:	e1 f7       	brne	.-8      	; 0xf6 <main+0x22>
	
	DDRD |= (1<<PD0); // Set LED pin output
      fe:	8a b1       	in	r24, 0x0a	; 10
     100:	81 60       	ori	r24, 0x01	; 1
     102:	8a b9       	out	0x0a, r24	; 10
	DDRD |= (1<<PD1); // Set LED pin output
     104:	8a b1       	in	r24, 0x0a	; 10
     106:	82 60       	ori	r24, 0x02	; 2
     108:	8a b9       	out	0x0a, r24	; 10
	PORTD &= ~(1<<PD0); // Turn LED off
     10a:	8b b1       	in	r24, 0x0b	; 11
     10c:	8e 7f       	andi	r24, 0xFE	; 254
     10e:	8b b9       	out	0x0b, r24	; 11
	PORTD &= ~(1<<PD1); // Turn LED off
     110:	8b b1       	in	r24, 0x0b	; 11
     112:	8d 7f       	andi	r24, 0xFD	; 253
     114:	8b b9       	out	0x0b, r24	; 11
	#else
		//round up by default
		__ticks_dc = (uint32_t)(ceil(fabs(__tmp)));
	#endif

	__builtin_avr_delay_cycles(__ticks_dc);
     116:	8f e4       	ldi	r24, 0x4F	; 79
     118:	93 ec       	ldi	r25, 0xC3	; 195
     11a:	01 97       	sbiw	r24, 0x01	; 1
     11c:	f1 f7       	brne	.-4      	; 0x11a <main+0x46>
     11e:	00 c0       	rjmp	.+0      	; 0x120 <main+0x4c>
     120:	00 00       	nop
	// reboot delay
	_delay_ms(200);
	
	// init sdcard
	UINT bw;
	f_mount(0, &FatFs);		// Give a work area to the FatFs module
     122:	6a eb       	ldi	r22, 0xBA	; 186
     124:	7e e0       	ldi	r23, 0x0E	; 14
     126:	80 e0       	ldi	r24, 0x00	; 0
     128:	0e 94 82 0c 	call	0x1904	; 0x1904 <f_mount>
	// open file
	fp = (FIL *)malloc(sizeof (FIL));
     12c:	80 e2       	ldi	r24, 0x20	; 32
     12e:	90 e0       	ldi	r25, 0x00	; 0
     130:	0e 94 86 13 	call	0x270c	; 0x270c <malloc>
     134:	90 93 b9 0e 	sts	0x0EB9, r25	; 0x800eb9 <__data_end+0x1>
     138:	80 93 b8 0e 	sts	0x0EB8, r24	; 0x800eb8 <__data_end>
	if (f_open(fp, "image.jpg", FA_WRITE | FA_CREATE_ALWAYS) == FR_OK) {	// Create a file
     13c:	4a e0       	ldi	r20, 0x0A	; 10
     13e:	6e e0       	ldi	r22, 0x0E	; 14
     140:	7e e0       	ldi	r23, 0x0E	; 14
     142:	0e 94 a0 0c 	call	0x1940	; 0x1940 <f_open>
     146:	81 11       	cpse	r24, r1
     148:	20 c0       	rjmp	.+64     	; 0x18a <main+0xb6>
		f_write(fp, image, sizeof(image), &bw);	// Write data to the file
     14a:	9e 01       	movw	r18, r28
     14c:	28 5f       	subi	r18, 0xF8	; 248
     14e:	32 4f       	sbci	r19, 0xF2	; 242
     150:	47 e0       	ldi	r20, 0x07	; 7
     152:	5d e0       	ldi	r21, 0x0D	; 13
     154:	be 01       	movw	r22, r28
     156:	6f 5f       	subi	r22, 0xFF	; 255
     158:	7f 4f       	sbci	r23, 0xFF	; 255
     15a:	80 91 b8 0e 	lds	r24, 0x0EB8	; 0x800eb8 <__data_end>
     15e:	90 91 b9 0e 	lds	r25, 0x0EB9	; 0x800eb9 <__data_end+0x1>
     162:	0e 94 ac 0d 	call	0x1b58	; 0x1b58 <f_write>
		f_close(fp); // Close the file
     166:	80 91 b8 0e 	lds	r24, 0x0EB8	; 0x800eb8 <__data_end>
     16a:	90 91 b9 0e 	lds	r25, 0x0EB9	; 0x800eb9 <__data_end+0x1>
     16e:	0e 94 9b 0f 	call	0x1f36	; 0x1f36 <f_close>
		if (bw ==  sizeof(image)) { // We wrote the entire string
     172:	c8 5f       	subi	r28, 0xF8	; 248
     174:	d2 4f       	sbci	r29, 0xF2	; 242
     176:	88 81       	ld	r24, Y
     178:	99 81       	ldd	r25, Y+1	; 0x01
     17a:	c8 50       	subi	r28, 0x08	; 8
     17c:	dd 40       	sbci	r29, 0x0D	; 13
     17e:	87 30       	cpi	r24, 0x07	; 7
     180:	9d 40       	sbci	r25, 0x0D	; 13
     182:	19 f4       	brne	.+6      	; 0x18a <main+0xb6>
			PORTD |= (1<<PD0); // Turn LED on
     184:	8b b1       	in	r24, 0x0b	; 11
     186:	81 60       	ori	r24, 0x01	; 1
     188:	8b b9       	out	0x0b, r24	; 11
     18a:	ff cf       	rjmp	.-2      	; 0x18a <main+0xb6>

0000018c <_ZL7mem_cpyPvPKvj>:
     18c:	dc 01       	movw	r26, r24
     18e:	fb 01       	movw	r30, r22
     190:	42 30       	cpi	r20, 0x02	; 2
     192:	51 05       	cpc	r21, r1
     194:	38 f0       	brcs	.+14     	; 0x1a4 <_ZL7mem_cpyPvPKvj+0x18>
     196:	81 91       	ld	r24, Z+
     198:	91 91       	ld	r25, Z+
     19a:	8d 93       	st	X+, r24
     19c:	9d 93       	st	X+, r25
     19e:	42 50       	subi	r20, 0x02	; 2
     1a0:	51 09       	sbc	r21, r1
     1a2:	f6 cf       	rjmp	.-20     	; 0x190 <_ZL7mem_cpyPvPKvj+0x4>
     1a4:	ca 01       	movw	r24, r20
     1a6:	01 97       	sbiw	r24, 0x01	; 1
     1a8:	45 2b       	or	r20, r21
     1aa:	31 f0       	breq	.+12     	; 0x1b8 <_ZL7mem_cpyPvPKvj+0x2c>
     1ac:	20 81       	ld	r18, Z
     1ae:	2c 93       	st	X, r18
     1b0:	ac 01       	movw	r20, r24
     1b2:	31 96       	adiw	r30, 0x01	; 1
     1b4:	11 96       	adiw	r26, 0x01	; 1
     1b6:	f6 cf       	rjmp	.-20     	; 0x1a4 <_ZL7mem_cpyPvPKvj+0x18>
     1b8:	08 95       	ret

000001ba <_ZL7mem_setPvij>:
     1ba:	fc 01       	movw	r30, r24
     1bc:	ca 01       	movw	r24, r20
     1be:	01 97       	sbiw	r24, 0x01	; 1
     1c0:	45 2b       	or	r20, r21
     1c2:	21 f0       	breq	.+8      	; 0x1cc <_ZL7mem_setPvij+0x12>
     1c4:	60 83       	st	Z, r22
     1c6:	ac 01       	movw	r20, r24
     1c8:	31 96       	adiw	r30, 0x01	; 1
     1ca:	f8 cf       	rjmp	.-16     	; 0x1bc <_ZL7mem_setPvij+0x2>
     1cc:	08 95       	ret

000001ce <_ZL7mem_cmpPKvS0_j>:
     1ce:	cf 93       	push	r28
     1d0:	df 93       	push	r29
     1d2:	ec 01       	movw	r28, r24
     1d4:	db 01       	movw	r26, r22
     1d6:	80 e0       	ldi	r24, 0x00	; 0
     1d8:	90 e0       	ldi	r25, 0x00	; 0
     1da:	fa 01       	movw	r30, r20
     1dc:	31 97       	sbiw	r30, 0x01	; 1
     1de:	45 2b       	or	r20, r21
     1e0:	81 f0       	breq	.+32     	; 0x202 <_ZL7mem_cmpPKvS0_j+0x34>
     1e2:	9e 01       	movw	r18, r28
     1e4:	2f 5f       	subi	r18, 0xFF	; 255
     1e6:	3f 4f       	sbci	r19, 0xFF	; 255
     1e8:	88 81       	ld	r24, Y
     1ea:	90 e0       	ldi	r25, 0x00	; 0
     1ec:	ad 01       	movw	r20, r26
     1ee:	4f 5f       	subi	r20, 0xFF	; 255
     1f0:	5f 4f       	sbci	r21, 0xFF	; 255
     1f2:	6c 91       	ld	r22, X
     1f4:	86 1b       	sub	r24, r22
     1f6:	91 09       	sbc	r25, r1
     1f8:	31 f4       	brne	.+12     	; 0x206 <_ZL7mem_cmpPKvS0_j+0x38>
     1fa:	da 01       	movw	r26, r20
     1fc:	e9 01       	movw	r28, r18
     1fe:	21 e0       	ldi	r18, 0x01	; 1
     200:	05 c0       	rjmp	.+10     	; 0x20c <_ZL7mem_cmpPKvS0_j+0x3e>
     202:	20 e0       	ldi	r18, 0x00	; 0
     204:	03 c0       	rjmp	.+6      	; 0x20c <_ZL7mem_cmpPKvS0_j+0x3e>
     206:	da 01       	movw	r26, r20
     208:	e9 01       	movw	r28, r18
     20a:	20 e0       	ldi	r18, 0x00	; 0
     20c:	af 01       	movw	r20, r30
     20e:	21 11       	cpse	r18, r1
     210:	e4 cf       	rjmp	.-56     	; 0x1da <_ZL7mem_cmpPKvS0_j+0xc>
     212:	df 91       	pop	r29
     214:	cf 91       	pop	r28
     216:	08 95       	ret

00000218 <_ZL7chk_chrPKci>:
     218:	fc 01       	movw	r30, r24
     21a:	80 81       	ld	r24, Z
     21c:	88 23       	and	r24, r24
     21e:	39 f0       	breq	.+14     	; 0x22e <_ZL7chk_chrPKci+0x16>
     220:	28 2f       	mov	r18, r24
     222:	30 e0       	ldi	r19, 0x00	; 0
     224:	26 17       	cp	r18, r22
     226:	37 07       	cpc	r19, r23
     228:	11 f0       	breq	.+4      	; 0x22e <_ZL7chk_chrPKci+0x16>
     22a:	31 96       	adiw	r30, 0x01	; 1
     22c:	f6 cf       	rjmp	.-20     	; 0x21a <_ZL7chk_chrPKci+0x2>
     22e:	90 e0       	ldi	r25, 0x00	; 0
     230:	08 95       	ret

00000232 <_ZL8ld_clustP5FATFSPh>:
     232:	0f 93       	push	r16
     234:	1f 93       	push	r17
     236:	dc 01       	movw	r26, r24
     238:	fb 01       	movw	r30, r22
     23a:	62 8d       	ldd	r22, Z+26	; 0x1a
     23c:	73 8d       	ldd	r23, Z+27	; 0x1b
     23e:	80 e0       	ldi	r24, 0x00	; 0
     240:	90 e0       	ldi	r25, 0x00	; 0
     242:	2c 91       	ld	r18, X
     244:	23 30       	cpi	r18, 0x03	; 3
     246:	59 f4       	brne	.+22     	; 0x25e <_ZL8ld_clustP5FATFSPh+0x2c>
     248:	04 89       	ldd	r16, Z+20	; 0x14
     24a:	15 89       	ldd	r17, Z+21	; 0x15
     24c:	20 e0       	ldi	r18, 0x00	; 0
     24e:	30 e0       	ldi	r19, 0x00	; 0
     250:	98 01       	movw	r18, r16
     252:	11 27       	eor	r17, r17
     254:	00 27       	eor	r16, r16
     256:	60 2b       	or	r22, r16
     258:	71 2b       	or	r23, r17
     25a:	82 2b       	or	r24, r18
     25c:	93 2b       	or	r25, r19
     25e:	1f 91       	pop	r17
     260:	0f 91       	pop	r16
     262:	08 95       	ret

00000264 <_ZL8st_clustPhm>:
     264:	fc 01       	movw	r30, r24
     266:	53 8f       	std	Z+27, r21	; 0x1b
     268:	42 8f       	std	Z+26, r20	; 0x1a
     26a:	75 8b       	std	Z+21, r23	; 0x15
     26c:	64 8b       	std	Z+20, r22	; 0x14
     26e:	08 95       	ret

00000270 <_ZL11create_nameP3DIRPPKc>:
     270:	4f 92       	push	r4
     272:	5f 92       	push	r5
     274:	6f 92       	push	r6
     276:	8f 92       	push	r8
     278:	9f 92       	push	r9
     27a:	af 92       	push	r10
     27c:	bf 92       	push	r11
     27e:	cf 92       	push	r12
     280:	df 92       	push	r13
     282:	ef 92       	push	r14
     284:	ff 92       	push	r15
     286:	1f 93       	push	r17
     288:	cf 93       	push	r28
     28a:	df 93       	push	r29
     28c:	fc 01       	movw	r30, r24
     28e:	5b 01       	movw	r10, r22
     290:	db 01       	movw	r26, r22
     292:	cd 91       	ld	r28, X+
     294:	dc 91       	ld	r29, X
     296:	98 81       	ld	r25, Y
     298:	9f 32       	cpi	r25, 0x2F	; 47
     29a:	11 f0       	breq	.+4      	; 0x2a0 <_ZL11create_nameP3DIRPPKc+0x30>
     29c:	9c 35       	cpi	r25, 0x5C	; 92
     29e:	11 f4       	brne	.+4      	; 0x2a4 <_ZL11create_nameP3DIRPPKc+0x34>
     2a0:	21 96       	adiw	r28, 0x01	; 1
     2a2:	f9 cf       	rjmp	.-14     	; 0x296 <_ZL11create_nameP3DIRPPKc+0x26>
     2a4:	c4 88       	ldd	r12, Z+20	; 0x14
     2a6:	d5 88       	ldd	r13, Z+21	; 0x15
     2a8:	4b e0       	ldi	r20, 0x0B	; 11
     2aa:	50 e0       	ldi	r21, 0x00	; 0
     2ac:	60 e2       	ldi	r22, 0x20	; 32
     2ae:	70 e0       	ldi	r23, 0x00	; 0
     2b0:	c6 01       	movw	r24, r12
     2b2:	83 df       	rcall	.-250    	; 0x1ba <_ZL7mem_setPvij>
     2b4:	41 2c       	mov	r4, r1
     2b6:	51 2c       	mov	r5, r1
     2b8:	80 e0       	ldi	r24, 0x00	; 0
     2ba:	90 e0       	ldi	r25, 0x00	; 0
     2bc:	68 94       	set
     2be:	88 24       	eor	r8, r8
     2c0:	83 f8       	bld	r8, 3
     2c2:	91 2c       	mov	r9, r1
     2c4:	61 2c       	mov	r6, r1
     2c6:	01 c0       	rjmp	.+2      	; 0x2ca <_ZL11create_nameP3DIRPPKc+0x5a>
     2c8:	c7 01       	movw	r24, r14
     2ca:	7c 01       	movw	r14, r24
     2cc:	bf ef       	ldi	r27, 0xFF	; 255
     2ce:	eb 1a       	sub	r14, r27
     2d0:	fb 0a       	sbc	r15, r27
     2d2:	fe 01       	movw	r30, r28
     2d4:	e8 0f       	add	r30, r24
     2d6:	f9 1f       	adc	r31, r25
     2d8:	10 81       	ld	r17, Z
     2da:	11 32       	cpi	r17, 0x21	; 33
     2dc:	08 f4       	brcc	.+2      	; 0x2e0 <_ZL11create_nameP3DIRPPKc+0x70>
     2de:	49 c0       	rjmp	.+146    	; 0x372 <_ZL11create_nameP3DIRPPKc+0x102>
     2e0:	1f 32       	cpi	r17, 0x2F	; 47
     2e2:	09 f4       	brne	.+2      	; 0x2e6 <_ZL11create_nameP3DIRPPKc+0x76>
     2e4:	46 c0       	rjmp	.+140    	; 0x372 <_ZL11create_nameP3DIRPPKc+0x102>
     2e6:	1c 35       	cpi	r17, 0x5C	; 92
     2e8:	09 f4       	brne	.+2      	; 0x2ec <_ZL11create_nameP3DIRPPKc+0x7c>
     2ea:	43 c0       	rjmp	.+134    	; 0x372 <_ZL11create_nameP3DIRPPKc+0x102>
     2ec:	1e 32       	cpi	r17, 0x2E	; 46
     2ee:	19 f0       	breq	.+6      	; 0x2f6 <_ZL11create_nameP3DIRPPKc+0x86>
     2f0:	48 14       	cp	r4, r8
     2f2:	59 04       	cpc	r5, r9
     2f4:	a0 f0       	brcs	.+40     	; 0x31e <_ZL11create_nameP3DIRPPKc+0xae>
     2f6:	e8 e0       	ldi	r30, 0x08	; 8
     2f8:	8e 16       	cp	r8, r30
     2fa:	91 04       	cpc	r9, r1
     2fc:	09 f0       	breq	.+2      	; 0x300 <_ZL11create_nameP3DIRPPKc+0x90>
     2fe:	5f c0       	rjmp	.+190    	; 0x3be <_ZL11create_nameP3DIRPPKc+0x14e>
     300:	1e 32       	cpi	r17, 0x2E	; 46
     302:	09 f0       	breq	.+2      	; 0x306 <_ZL11create_nameP3DIRPPKc+0x96>
     304:	5e c0       	rjmp	.+188    	; 0x3c2 <_ZL11create_nameP3DIRPPKc+0x152>
     306:	66 0c       	add	r6, r6
     308:	66 0c       	add	r6, r6
     30a:	68 94       	set
     30c:	44 24       	eor	r4, r4
     30e:	43 f8       	bld	r4, 3
     310:	51 2c       	mov	r5, r1
     312:	0f 2e       	mov	r0, r31
     314:	fb e0       	ldi	r31, 0x0B	; 11
     316:	8f 2e       	mov	r8, r31
     318:	91 2c       	mov	r9, r1
     31a:	f0 2d       	mov	r31, r0
     31c:	d5 cf       	rjmp	.-86     	; 0x2c8 <_ZL11create_nameP3DIRPPKc+0x58>
     31e:	11 23       	and	r17, r17
     320:	44 f4       	brge	.+16     	; 0x332 <_ZL11create_nameP3DIRPPKc+0xc2>
     322:	f6 2d       	mov	r31, r6
     324:	f3 60       	ori	r31, 0x03	; 3
     326:	6f 2e       	mov	r6, r31
     328:	e1 2f       	mov	r30, r17
     32a:	f0 e0       	ldi	r31, 0x00	; 0
     32c:	e9 54       	subi	r30, 0x49	; 73
     32e:	f2 4f       	sbci	r31, 0xF2	; 242
     330:	10 81       	ld	r17, Z
     332:	61 2f       	mov	r22, r17
     334:	70 e0       	ldi	r23, 0x00	; 0
     336:	88 e1       	ldi	r24, 0x18	; 24
     338:	9e e0       	ldi	r25, 0x0E	; 14
     33a:	6e df       	rcall	.-292    	; 0x218 <_ZL7chk_chrPKci>
     33c:	89 2b       	or	r24, r25
     33e:	09 f0       	breq	.+2      	; 0x342 <_ZL11create_nameP3DIRPPKc+0xd2>
     340:	42 c0       	rjmp	.+132    	; 0x3c6 <_ZL11create_nameP3DIRPPKc+0x156>
     342:	8f eb       	ldi	r24, 0xBF	; 191
     344:	81 0f       	add	r24, r17
     346:	8a 31       	cpi	r24, 0x1A	; 26
     348:	20 f4       	brcc	.+8      	; 0x352 <_ZL11create_nameP3DIRPPKc+0xe2>
     34a:	26 2d       	mov	r18, r6
     34c:	22 60       	ori	r18, 0x02	; 2
     34e:	62 2e       	mov	r6, r18
     350:	08 c0       	rjmp	.+16     	; 0x362 <_ZL11create_nameP3DIRPPKc+0xf2>
     352:	8f e9       	ldi	r24, 0x9F	; 159
     354:	81 0f       	add	r24, r17
     356:	8a 31       	cpi	r24, 0x1A	; 26
     358:	20 f4       	brcc	.+8      	; 0x362 <_ZL11create_nameP3DIRPPKc+0xf2>
     35a:	86 2d       	mov	r24, r6
     35c:	81 60       	ori	r24, 0x01	; 1
     35e:	68 2e       	mov	r6, r24
     360:	10 52       	subi	r17, 0x20	; 32
     362:	f6 01       	movw	r30, r12
     364:	e4 0d       	add	r30, r4
     366:	f5 1d       	adc	r31, r5
     368:	10 83       	st	Z, r17
     36a:	d2 01       	movw	r26, r4
     36c:	11 96       	adiw	r26, 0x01	; 1
     36e:	2d 01       	movw	r4, r26
     370:	ab cf       	rjmp	.-170    	; 0x2c8 <_ZL11create_nameP3DIRPPKc+0x58>
     372:	ce 0d       	add	r28, r14
     374:	df 1d       	adc	r29, r15
     376:	f5 01       	movw	r30, r10
     378:	d1 83       	std	Z+1, r29	; 0x01
     37a:	c0 83       	st	Z, r28
     37c:	11 32       	cpi	r17, 0x21	; 33
     37e:	10 f4       	brcc	.+4      	; 0x384 <_ZL11create_nameP3DIRPPKc+0x114>
     380:	94 e0       	ldi	r25, 0x04	; 4
     382:	01 c0       	rjmp	.+2      	; 0x386 <_ZL11create_nameP3DIRPPKc+0x116>
     384:	90 e0       	ldi	r25, 0x00	; 0
     386:	45 28       	or	r4, r5
     388:	01 f1       	breq	.+64     	; 0x3ca <_ZL11create_nameP3DIRPPKc+0x15a>
     38a:	d6 01       	movw	r26, r12
     38c:	8c 91       	ld	r24, X
     38e:	85 3e       	cpi	r24, 0xE5	; 229
     390:	11 f4       	brne	.+4      	; 0x396 <_ZL11create_nameP3DIRPPKc+0x126>
     392:	85 e0       	ldi	r24, 0x05	; 5
     394:	8c 93       	st	X, r24
     396:	b8 e0       	ldi	r27, 0x08	; 8
     398:	8b 16       	cp	r8, r27
     39a:	91 04       	cpc	r9, r1
     39c:	11 f4       	brne	.+4      	; 0x3a2 <_ZL11create_nameP3DIRPPKc+0x132>
     39e:	66 0c       	add	r6, r6
     3a0:	66 0c       	add	r6, r6
     3a2:	86 2d       	mov	r24, r6
     3a4:	83 70       	andi	r24, 0x03	; 3
     3a6:	81 30       	cpi	r24, 0x01	; 1
     3a8:	09 f4       	brne	.+2      	; 0x3ac <_ZL11create_nameP3DIRPPKc+0x13c>
     3aa:	90 61       	ori	r25, 0x10	; 16
     3ac:	86 2d       	mov	r24, r6
     3ae:	8c 70       	andi	r24, 0x0C	; 12
     3b0:	84 30       	cpi	r24, 0x04	; 4
     3b2:	09 f4       	brne	.+2      	; 0x3b6 <_ZL11create_nameP3DIRPPKc+0x146>
     3b4:	98 60       	ori	r25, 0x08	; 8
     3b6:	f6 01       	movw	r30, r12
     3b8:	93 87       	std	Z+11, r25	; 0x0b
     3ba:	80 e0       	ldi	r24, 0x00	; 0
     3bc:	07 c0       	rjmp	.+14     	; 0x3cc <_ZL11create_nameP3DIRPPKc+0x15c>
     3be:	86 e0       	ldi	r24, 0x06	; 6
     3c0:	05 c0       	rjmp	.+10     	; 0x3cc <_ZL11create_nameP3DIRPPKc+0x15c>
     3c2:	86 e0       	ldi	r24, 0x06	; 6
     3c4:	03 c0       	rjmp	.+6      	; 0x3cc <_ZL11create_nameP3DIRPPKc+0x15c>
     3c6:	86 e0       	ldi	r24, 0x06	; 6
     3c8:	01 c0       	rjmp	.+2      	; 0x3cc <_ZL11create_nameP3DIRPPKc+0x15c>
     3ca:	86 e0       	ldi	r24, 0x06	; 6
     3cc:	df 91       	pop	r29
     3ce:	cf 91       	pop	r28
     3d0:	1f 91       	pop	r17
     3d2:	ff 90       	pop	r15
     3d4:	ef 90       	pop	r14
     3d6:	df 90       	pop	r13
     3d8:	cf 90       	pop	r12
     3da:	bf 90       	pop	r11
     3dc:	af 90       	pop	r10
     3de:	9f 90       	pop	r9
     3e0:	8f 90       	pop	r8
     3e2:	6f 90       	pop	r6
     3e4:	5f 90       	pop	r5
     3e6:	4f 90       	pop	r4
     3e8:	08 95       	ret

000003ea <_ZL8check_fsP5FATFSm>:
     3ea:	0f 93       	push	r16
     3ec:	cf 93       	push	r28
     3ee:	df 93       	push	r29
     3f0:	ec 01       	movw	r28, r24
     3f2:	9a 01       	movw	r18, r20
     3f4:	ab 01       	movw	r20, r22
     3f6:	bc 01       	movw	r22, r24
     3f8:	6e 5c       	subi	r22, 0xCE	; 206
     3fa:	7f 4f       	sbci	r23, 0xFF	; 255
     3fc:	01 e0       	ldi	r16, 0x01	; 1
     3fe:	89 81       	ldd	r24, Y+1	; 0x01
     400:	0e 94 ce 11 	call	0x239c	; 0x239c <disk_read>
     404:	81 11       	cpse	r24, r1
     406:	22 c0       	rjmp	.+68     	; 0x44c <__LOCK_REGION_LENGTH__+0x4c>
     408:	fe 01       	movw	r30, r28
     40a:	e0 5d       	subi	r30, 0xD0	; 208
     40c:	fd 4f       	sbci	r31, 0xFD	; 253
     40e:	80 81       	ld	r24, Z
     410:	91 81       	ldd	r25, Z+1	; 0x01
     412:	85 35       	cpi	r24, 0x55	; 85
     414:	9a 4a       	sbci	r25, 0xAA	; 170
     416:	e1 f4       	brne	.+56     	; 0x450 <__LOCK_REGION_LENGTH__+0x50>
     418:	e8 5c       	subi	r30, 0xC8	; 200
     41a:	f1 40       	sbci	r31, 0x01	; 1
     41c:	80 81       	ld	r24, Z
     41e:	91 81       	ldd	r25, Z+1	; 0x01
     420:	a2 81       	ldd	r26, Z+2	; 0x02
     422:	b3 81       	ldd	r27, Z+3	; 0x03
     424:	bb 27       	eor	r27, r27
     426:	86 34       	cpi	r24, 0x46	; 70
     428:	91 44       	sbci	r25, 0x41	; 65
     42a:	a4 45       	sbci	r26, 0x54	; 84
     42c:	b1 05       	cpc	r27, r1
     42e:	91 f0       	breq	.+36     	; 0x454 <__LOCK_REGION_LENGTH__+0x54>
     430:	cc 57       	subi	r28, 0x7C	; 124
     432:	df 4f       	sbci	r29, 0xFF	; 255
     434:	88 81       	ld	r24, Y
     436:	99 81       	ldd	r25, Y+1	; 0x01
     438:	aa 81       	ldd	r26, Y+2	; 0x02
     43a:	bb 81       	ldd	r27, Y+3	; 0x03
     43c:	bb 27       	eor	r27, r27
     43e:	86 34       	cpi	r24, 0x46	; 70
     440:	91 44       	sbci	r25, 0x41	; 65
     442:	a4 45       	sbci	r26, 0x54	; 84
     444:	b1 05       	cpc	r27, r1
     446:	41 f4       	brne	.+16     	; 0x458 <__LOCK_REGION_LENGTH__+0x58>
     448:	80 e0       	ldi	r24, 0x00	; 0
     44a:	07 c0       	rjmp	.+14     	; 0x45a <__LOCK_REGION_LENGTH__+0x5a>
     44c:	83 e0       	ldi	r24, 0x03	; 3
     44e:	05 c0       	rjmp	.+10     	; 0x45a <__LOCK_REGION_LENGTH__+0x5a>
     450:	82 e0       	ldi	r24, 0x02	; 2
     452:	03 c0       	rjmp	.+6      	; 0x45a <__LOCK_REGION_LENGTH__+0x5a>
     454:	80 e0       	ldi	r24, 0x00	; 0
     456:	01 c0       	rjmp	.+2      	; 0x45a <__LOCK_REGION_LENGTH__+0x5a>
     458:	81 e0       	ldi	r24, 0x01	; 1
     45a:	df 91       	pop	r29
     45c:	cf 91       	pop	r28
     45e:	0f 91       	pop	r16
     460:	08 95       	ret

00000462 <_ZL11sync_windowP5FATFS>:
     462:	8f 92       	push	r8
     464:	9f 92       	push	r9
     466:	af 92       	push	r10
     468:	bf 92       	push	r11
     46a:	cf 92       	push	r12
     46c:	df 92       	push	r13
     46e:	ef 92       	push	r14
     470:	ff 92       	push	r15
     472:	0f 93       	push	r16
     474:	cf 93       	push	r28
     476:	df 93       	push	r29
     478:	fc 01       	movw	r30, r24
     47a:	24 81       	ldd	r18, Z+4	; 0x04
     47c:	22 23       	and	r18, r18
     47e:	09 f4       	brne	.+2      	; 0x482 <_ZL11sync_windowP5FATFS+0x20>
     480:	42 c0       	rjmp	.+132    	; 0x506 <_ZL11sync_windowP5FATFS+0xa4>
     482:	ec 01       	movw	r28, r24
     484:	c6 a4       	ldd	r12, Z+46	; 0x2e
     486:	d7 a4       	ldd	r13, Z+47	; 0x2f
     488:	e0 a8       	ldd	r14, Z+48	; 0x30
     48a:	f1 a8       	ldd	r15, Z+49	; 0x31
     48c:	4c 01       	movw	r8, r24
     48e:	f2 e3       	ldi	r31, 0x32	; 50
     490:	8f 0e       	add	r8, r31
     492:	91 1c       	adc	r9, r1
     494:	01 e0       	ldi	r16, 0x01	; 1
     496:	a7 01       	movw	r20, r14
     498:	96 01       	movw	r18, r12
     49a:	b4 01       	movw	r22, r8
     49c:	89 81       	ldd	r24, Y+1	; 0x01
     49e:	0e 94 24 12 	call	0x2448	; 0x2448 <disk_write>
     4a2:	81 11       	cpse	r24, r1
     4a4:	32 c0       	rjmp	.+100    	; 0x50a <_ZL11sync_windowP5FATFS+0xa8>
     4a6:	1c 82       	std	Y+4, r1	; 0x04
     4a8:	8a a1       	ldd	r24, Y+34	; 0x22
     4aa:	9b a1       	ldd	r25, Y+35	; 0x23
     4ac:	ac a1       	ldd	r26, Y+36	; 0x24
     4ae:	bd a1       	ldd	r27, Y+37	; 0x25
     4b0:	c8 16       	cp	r12, r24
     4b2:	d9 06       	cpc	r13, r25
     4b4:	ea 06       	cpc	r14, r26
     4b6:	fb 06       	cpc	r15, r27
     4b8:	50 f1       	brcs	.+84     	; 0x50e <_ZL11sync_windowP5FATFS+0xac>
     4ba:	4a 8d       	ldd	r20, Y+26	; 0x1a
     4bc:	5b 8d       	ldd	r21, Y+27	; 0x1b
     4be:	6c 8d       	ldd	r22, Y+28	; 0x1c
     4c0:	7d 8d       	ldd	r23, Y+29	; 0x1d
     4c2:	84 0f       	add	r24, r20
     4c4:	95 1f       	adc	r25, r21
     4c6:	a6 1f       	adc	r26, r22
     4c8:	b7 1f       	adc	r27, r23
     4ca:	c8 16       	cp	r12, r24
     4cc:	d9 06       	cpc	r13, r25
     4ce:	ea 06       	cpc	r14, r26
     4d0:	fb 06       	cpc	r15, r27
     4d2:	f8 f4       	brcc	.+62     	; 0x512 <_ZL11sync_windowP5FATFS+0xb0>
     4d4:	ab 80       	ldd	r10, Y+3	; 0x03
     4d6:	b1 2c       	mov	r11, r1
     4d8:	82 e0       	ldi	r24, 0x02	; 2
     4da:	a8 16       	cp	r10, r24
     4dc:	b1 04       	cpc	r11, r1
     4de:	d8 f0       	brcs	.+54     	; 0x516 <_ZL11sync_windowP5FATFS+0xb4>
     4e0:	8a 8d       	ldd	r24, Y+26	; 0x1a
     4e2:	9b 8d       	ldd	r25, Y+27	; 0x1b
     4e4:	ac 8d       	ldd	r26, Y+28	; 0x1c
     4e6:	bd 8d       	ldd	r27, Y+29	; 0x1d
     4e8:	c8 0e       	add	r12, r24
     4ea:	d9 1e       	adc	r13, r25
     4ec:	ea 1e       	adc	r14, r26
     4ee:	fb 1e       	adc	r15, r27
     4f0:	01 e0       	ldi	r16, 0x01	; 1
     4f2:	a7 01       	movw	r20, r14
     4f4:	96 01       	movw	r18, r12
     4f6:	b4 01       	movw	r22, r8
     4f8:	89 81       	ldd	r24, Y+1	; 0x01
     4fa:	0e 94 24 12 	call	0x2448	; 0x2448 <disk_write>
     4fe:	e1 e0       	ldi	r30, 0x01	; 1
     500:	ae 1a       	sub	r10, r30
     502:	b1 08       	sbc	r11, r1
     504:	e9 cf       	rjmp	.-46     	; 0x4d8 <_ZL11sync_windowP5FATFS+0x76>
     506:	80 e0       	ldi	r24, 0x00	; 0
     508:	07 c0       	rjmp	.+14     	; 0x518 <_ZL11sync_windowP5FATFS+0xb6>
     50a:	81 e0       	ldi	r24, 0x01	; 1
     50c:	05 c0       	rjmp	.+10     	; 0x518 <_ZL11sync_windowP5FATFS+0xb6>
     50e:	80 e0       	ldi	r24, 0x00	; 0
     510:	03 c0       	rjmp	.+6      	; 0x518 <_ZL11sync_windowP5FATFS+0xb6>
     512:	80 e0       	ldi	r24, 0x00	; 0
     514:	01 c0       	rjmp	.+2      	; 0x518 <_ZL11sync_windowP5FATFS+0xb6>
     516:	80 e0       	ldi	r24, 0x00	; 0
     518:	df 91       	pop	r29
     51a:	cf 91       	pop	r28
     51c:	0f 91       	pop	r16
     51e:	ff 90       	pop	r15
     520:	ef 90       	pop	r14
     522:	df 90       	pop	r13
     524:	cf 90       	pop	r12
     526:	bf 90       	pop	r11
     528:	af 90       	pop	r10
     52a:	9f 90       	pop	r9
     52c:	8f 90       	pop	r8
     52e:	08 95       	ret

00000530 <_ZL11move_windowP5FATFSm>:
     530:	cf 92       	push	r12
     532:	df 92       	push	r13
     534:	ef 92       	push	r14
     536:	ff 92       	push	r15
     538:	0f 93       	push	r16
     53a:	1f 93       	push	r17
     53c:	cf 93       	push	r28
     53e:	df 93       	push	r29
     540:	fc 01       	movw	r30, r24
     542:	c6 a4       	ldd	r12, Z+46	; 0x2e
     544:	d7 a4       	ldd	r13, Z+47	; 0x2f
     546:	e0 a8       	ldd	r14, Z+48	; 0x30
     548:	f1 a8       	ldd	r15, Z+49	; 0x31
     54a:	c4 16       	cp	r12, r20
     54c:	d5 06       	cpc	r13, r21
     54e:	e6 06       	cpc	r14, r22
     550:	f7 06       	cpc	r15, r23
     552:	b9 f0       	breq	.+46     	; 0x582 <_ZL11move_windowP5FATFSm+0x52>
     554:	6a 01       	movw	r12, r20
     556:	7b 01       	movw	r14, r22
     558:	ec 01       	movw	r28, r24
     55a:	83 df       	rcall	.-250    	; 0x462 <_ZL11sync_windowP5FATFS>
     55c:	18 2f       	mov	r17, r24
     55e:	81 11       	cpse	r24, r1
     560:	12 c0       	rjmp	.+36     	; 0x586 <_ZL11move_windowP5FATFSm+0x56>
     562:	01 e0       	ldi	r16, 0x01	; 1
     564:	a7 01       	movw	r20, r14
     566:	96 01       	movw	r18, r12
     568:	be 01       	movw	r22, r28
     56a:	6e 5c       	subi	r22, 0xCE	; 206
     56c:	7f 4f       	sbci	r23, 0xFF	; 255
     56e:	89 81       	ldd	r24, Y+1	; 0x01
     570:	0e 94 ce 11 	call	0x239c	; 0x239c <disk_read>
     574:	81 11       	cpse	r24, r1
     576:	09 c0       	rjmp	.+18     	; 0x58a <_ZL11move_windowP5FATFSm+0x5a>
     578:	ce a6       	std	Y+46, r12	; 0x2e
     57a:	df a6       	std	Y+47, r13	; 0x2f
     57c:	e8 aa       	std	Y+48, r14	; 0x30
     57e:	f9 aa       	std	Y+49, r15	; 0x31
     580:	05 c0       	rjmp	.+10     	; 0x58c <_ZL11move_windowP5FATFSm+0x5c>
     582:	10 e0       	ldi	r17, 0x00	; 0
     584:	03 c0       	rjmp	.+6      	; 0x58c <_ZL11move_windowP5FATFSm+0x5c>
     586:	11 e0       	ldi	r17, 0x01	; 1
     588:	01 c0       	rjmp	.+2      	; 0x58c <_ZL11move_windowP5FATFSm+0x5c>
     58a:	11 e0       	ldi	r17, 0x01	; 1
     58c:	81 2f       	mov	r24, r17
     58e:	df 91       	pop	r29
     590:	cf 91       	pop	r28
     592:	1f 91       	pop	r17
     594:	0f 91       	pop	r16
     596:	ff 90       	pop	r15
     598:	ef 90       	pop	r14
     59a:	df 90       	pop	r13
     59c:	cf 90       	pop	r12
     59e:	08 95       	ret

000005a0 <_ZL8validatePv>:
     5a0:	00 97       	sbiw	r24, 0x00	; 0
     5a2:	c9 f0       	breq	.+50     	; 0x5d6 <_ZL8validatePv+0x36>
     5a4:	dc 01       	movw	r26, r24
     5a6:	ed 91       	ld	r30, X+
     5a8:	fc 91       	ld	r31, X
     5aa:	11 97       	sbiw	r26, 0x01	; 1
     5ac:	30 97       	sbiw	r30, 0x00	; 0
     5ae:	a9 f0       	breq	.+42     	; 0x5da <_ZL8validatePv+0x3a>
     5b0:	20 81       	ld	r18, Z
     5b2:	22 23       	and	r18, r18
     5b4:	a1 f0       	breq	.+40     	; 0x5de <_ZL8validatePv+0x3e>
     5b6:	26 81       	ldd	r18, Z+6	; 0x06
     5b8:	37 81       	ldd	r19, Z+7	; 0x07
     5ba:	12 96       	adiw	r26, 0x02	; 2
     5bc:	8d 91       	ld	r24, X+
     5be:	9c 91       	ld	r25, X
     5c0:	13 97       	sbiw	r26, 0x03	; 3
     5c2:	28 17       	cp	r18, r24
     5c4:	39 07       	cpc	r19, r25
     5c6:	69 f4       	brne	.+26     	; 0x5e2 <_ZL8validatePv+0x42>
     5c8:	81 81       	ldd	r24, Z+1	; 0x01
     5ca:	0e 94 05 11 	call	0x220a	; 0x220a <disk_status>
     5ce:	80 ff       	sbrs	r24, 0
     5d0:	0a c0       	rjmp	.+20     	; 0x5e6 <_ZL8validatePv+0x46>
     5d2:	83 e0       	ldi	r24, 0x03	; 3
     5d4:	08 95       	ret
     5d6:	89 e0       	ldi	r24, 0x09	; 9
     5d8:	08 95       	ret
     5da:	89 e0       	ldi	r24, 0x09	; 9
     5dc:	08 95       	ret
     5de:	89 e0       	ldi	r24, 0x09	; 9
     5e0:	08 95       	ret
     5e2:	89 e0       	ldi	r24, 0x09	; 9
     5e4:	08 95       	ret
     5e6:	80 e0       	ldi	r24, 0x00	; 0
     5e8:	08 95       	ret

000005ea <_ZL11chk_mountedPPKcPP5FATFSh>:
     5ea:	2f 92       	push	r2
     5ec:	3f 92       	push	r3
     5ee:	4f 92       	push	r4
     5f0:	5f 92       	push	r5
     5f2:	6f 92       	push	r6
     5f4:	7f 92       	push	r7
     5f6:	8f 92       	push	r8
     5f8:	9f 92       	push	r9
     5fa:	af 92       	push	r10
     5fc:	bf 92       	push	r11
     5fe:	cf 92       	push	r12
     600:	df 92       	push	r13
     602:	ef 92       	push	r14
     604:	ff 92       	push	r15
     606:	0f 93       	push	r16
     608:	1f 93       	push	r17
     60a:	cf 93       	push	r28
     60c:	df 93       	push	r29
     60e:	cd b7       	in	r28, 0x3d	; 61
     610:	de b7       	in	r29, 0x3e	; 62
     612:	2e 97       	sbiw	r28, 0x0e	; 14
     614:	0f b6       	in	r0, 0x3f	; 63
     616:	f8 94       	cli
     618:	de bf       	out	0x3e, r29	; 62
     61a:	0f be       	out	0x3f, r0	; 63
     61c:	cd bf       	out	0x3d, r28	; 61
     61e:	dc 01       	movw	r26, r24
     620:	ed 91       	ld	r30, X+
     622:	fc 91       	ld	r31, X
     624:	e0 80       	ld	r14, Z
     626:	f1 2c       	mov	r15, r1
     628:	b0 e3       	ldi	r27, 0x30	; 48
     62a:	eb 1a       	sub	r14, r27
     62c:	f1 08       	sbc	r15, r1
     62e:	2a e0       	ldi	r18, 0x0A	; 10
     630:	e2 16       	cp	r14, r18
     632:	f1 04       	cpc	r15, r1
     634:	40 f4       	brcc	.+16     	; 0x646 <_ZL11chk_mountedPPKcPP5FATFSh+0x5c>
     636:	21 81       	ldd	r18, Z+1	; 0x01
     638:	2a 33       	cpi	r18, 0x3A	; 58
     63a:	41 f4       	brne	.+16     	; 0x64c <_ZL11chk_mountedPPKcPP5FATFSh+0x62>
     63c:	32 96       	adiw	r30, 0x02	; 2
     63e:	dc 01       	movw	r26, r24
     640:	ed 93       	st	X+, r30
     642:	fc 93       	st	X, r31
     644:	05 c0       	rjmp	.+10     	; 0x650 <_ZL11chk_mountedPPKcPP5FATFSh+0x66>
     646:	e1 2c       	mov	r14, r1
     648:	f1 2c       	mov	r15, r1
     64a:	02 c0       	rjmp	.+4      	; 0x650 <_ZL11chk_mountedPPKcPP5FATFSh+0x66>
     64c:	e1 2c       	mov	r14, r1
     64e:	f1 2c       	mov	r15, r1
     650:	fb 01       	movw	r30, r22
     652:	11 82       	std	Z+1, r1	; 0x01
     654:	10 82       	st	Z, r1
     656:	e1 14       	cp	r14, r1
     658:	f1 04       	cpc	r15, r1
     65a:	09 f0       	breq	.+2      	; 0x65e <_ZL11chk_mountedPPKcPP5FATFSh+0x74>
     65c:	2a c2       	rjmp	.+1108   	; 0xab2 <_ZL11chk_mountedPPKcPP5FATFSh+0x4c8>
     65e:	f7 01       	movw	r30, r14
     660:	ee 0f       	add	r30, r30
     662:	ff 1f       	adc	r31, r31
     664:	e2 51       	subi	r30, 0x12	; 18
     666:	ff 4e       	sbci	r31, 0xEF	; 239
     668:	80 80       	ld	r8, Z
     66a:	91 80       	ldd	r9, Z+1	; 0x01
     66c:	9e 86       	std	Y+14, r9	; 0x0e
     66e:	8d 86       	std	Y+13, r8	; 0x0d
     670:	81 14       	cp	r8, r1
     672:	91 04       	cpc	r9, r1
     674:	09 f4       	brne	.+2      	; 0x678 <_ZL11chk_mountedPPKcPP5FATFSh+0x8e>
     676:	1f c2       	rjmp	.+1086   	; 0xab6 <_ZL11chk_mountedPPKcPP5FATFSh+0x4cc>
     678:	14 2f       	mov	r17, r20
     67a:	fb 01       	movw	r30, r22
     67c:	91 82       	std	Z+1, r9	; 0x01
     67e:	80 82       	st	Z, r8
     680:	d4 01       	movw	r26, r8
     682:	8c 91       	ld	r24, X
     684:	88 23       	and	r24, r24
     686:	69 f0       	breq	.+26     	; 0x6a2 <_ZL11chk_mountedPPKcPP5FATFSh+0xb8>
     688:	11 96       	adiw	r26, 0x01	; 1
     68a:	8c 91       	ld	r24, X
     68c:	0e 94 05 11 	call	0x220a	; 0x220a <disk_status>
     690:	80 fd       	sbrc	r24, 0
     692:	07 c0       	rjmp	.+14     	; 0x6a2 <_ZL11chk_mountedPPKcPP5FATFSh+0xb8>
     694:	11 23       	and	r17, r17
     696:	09 f4       	brne	.+2      	; 0x69a <_ZL11chk_mountedPPKcPP5FATFSh+0xb0>
     698:	10 c2       	rjmp	.+1056   	; 0xaba <_ZL11chk_mountedPPKcPP5FATFSh+0x4d0>
     69a:	82 fd       	sbrc	r24, 2
     69c:	10 c2       	rjmp	.+1056   	; 0xabe <_ZL11chk_mountedPPKcPP5FATFSh+0x4d4>
     69e:	80 e0       	ldi	r24, 0x00	; 0
     6a0:	2d c2       	rjmp	.+1114   	; 0xafc <_ZL11chk_mountedPPKcPP5FATFSh+0x512>
     6a2:	ed 85       	ldd	r30, Y+13	; 0x0d
     6a4:	fe 85       	ldd	r31, Y+14	; 0x0e
     6a6:	10 82       	st	Z, r1
     6a8:	e1 82       	std	Z+1, r14	; 0x01
     6aa:	8e 2d       	mov	r24, r14
     6ac:	0e 94 0c 11 	call	0x2218	; 0x2218 <disk_initialize>
     6b0:	80 fd       	sbrc	r24, 0
     6b2:	07 c2       	rjmp	.+1038   	; 0xac2 <_ZL11chk_mountedPPKcPP5FATFSh+0x4d8>
     6b4:	11 23       	and	r17, r17
     6b6:	11 f0       	breq	.+4      	; 0x6bc <_ZL11chk_mountedPPKcPP5FATFSh+0xd2>
     6b8:	82 fd       	sbrc	r24, 2
     6ba:	05 c2       	rjmp	.+1034   	; 0xac6 <_ZL11chk_mountedPPKcPP5FATFSh+0x4dc>
     6bc:	40 e0       	ldi	r20, 0x00	; 0
     6be:	50 e0       	ldi	r21, 0x00	; 0
     6c0:	ba 01       	movw	r22, r20
     6c2:	8d 85       	ldd	r24, Y+13	; 0x0d
     6c4:	9e 85       	ldd	r25, Y+14	; 0x0e
     6c6:	91 de       	rcall	.-734    	; 0x3ea <_ZL8check_fsP5FATFSm>
     6c8:	81 30       	cpi	r24, 0x01	; 1
     6ca:	89 f4       	brne	.+34     	; 0x6ee <_ZL11chk_mountedPPKcPP5FATFSh+0x104>
     6cc:	ed 85       	ldd	r30, Y+13	; 0x0d
     6ce:	fe 85       	ldd	r31, Y+14	; 0x0e
     6d0:	e0 51       	subi	r30, 0x10	; 16
     6d2:	fe 4f       	sbci	r31, 0xFE	; 254
     6d4:	94 81       	ldd	r25, Z+4	; 0x04
     6d6:	99 23       	and	r25, r25
     6d8:	71 f0       	breq	.+28     	; 0x6f6 <_ZL11chk_mountedPPKcPP5FATFSh+0x10c>
     6da:	c0 84       	ldd	r12, Z+8	; 0x08
     6dc:	d1 84       	ldd	r13, Z+9	; 0x09
     6de:	e2 84       	ldd	r14, Z+10	; 0x0a
     6e0:	f3 84       	ldd	r15, Z+11	; 0x0b
     6e2:	b7 01       	movw	r22, r14
     6e4:	a6 01       	movw	r20, r12
     6e6:	8d 85       	ldd	r24, Y+13	; 0x0d
     6e8:	9e 85       	ldd	r25, Y+14	; 0x0e
     6ea:	7f de       	rcall	.-770    	; 0x3ea <_ZL8check_fsP5FATFSm>
     6ec:	07 c0       	rjmp	.+14     	; 0x6fc <_ZL11chk_mountedPPKcPP5FATFSh+0x112>
     6ee:	c1 2c       	mov	r12, r1
     6f0:	d1 2c       	mov	r13, r1
     6f2:	76 01       	movw	r14, r12
     6f4:	03 c0       	rjmp	.+6      	; 0x6fc <_ZL11chk_mountedPPKcPP5FATFSh+0x112>
     6f6:	c1 2c       	mov	r12, r1
     6f8:	d1 2c       	mov	r13, r1
     6fa:	76 01       	movw	r14, r12
     6fc:	83 30       	cpi	r24, 0x03	; 3
     6fe:	09 f4       	brne	.+2      	; 0x702 <_ZL11chk_mountedPPKcPP5FATFSh+0x118>
     700:	e4 c1       	rjmp	.+968    	; 0xaca <_ZL11chk_mountedPPKcPP5FATFSh+0x4e0>
     702:	81 11       	cpse	r24, r1
     704:	e4 c1       	rjmp	.+968    	; 0xace <_ZL11chk_mountedPPKcPP5FATFSh+0x4e4>
     706:	ad 85       	ldd	r26, Y+13	; 0x0d
     708:	be 85       	ldd	r27, Y+14	; 0x0e
     70a:	dd 96       	adiw	r26, 0x3d	; 61
     70c:	8d 91       	ld	r24, X+
     70e:	9c 91       	ld	r25, X
     710:	de 97       	sbiw	r26, 0x3e	; 62
     712:	81 15       	cp	r24, r1
     714:	92 40       	sbci	r25, 0x02	; 2
     716:	09 f0       	breq	.+2      	; 0x71a <_ZL11chk_mountedPPKcPP5FATFSh+0x130>
     718:	dc c1       	rjmp	.+952    	; 0xad2 <_ZL11chk_mountedPPKcPP5FATFSh+0x4e8>
     71a:	ed 85       	ldd	r30, Y+13	; 0x0d
     71c:	fe 85       	ldd	r31, Y+14	; 0x0e
     71e:	e8 5b       	subi	r30, 0xB8	; 184
     720:	ff 4f       	sbci	r31, 0xFF	; 255
     722:	80 81       	ld	r24, Z
     724:	91 81       	ldd	r25, Z+1	; 0x01
     726:	2c 01       	movw	r4, r24
     728:	61 2c       	mov	r6, r1
     72a:	71 2c       	mov	r7, r1
     72c:	41 14       	cp	r4, r1
     72e:	51 04       	cpc	r5, r1
     730:	61 04       	cpc	r6, r1
     732:	71 04       	cpc	r7, r1
     734:	41 f4       	brne	.+16     	; 0x746 <_ZL11chk_mountedPPKcPP5FATFSh+0x15c>
     736:	ed 85       	ldd	r30, Y+13	; 0x0d
     738:	fe 85       	ldd	r31, Y+14	; 0x0e
     73a:	ea 5a       	subi	r30, 0xAA	; 170
     73c:	ff 4f       	sbci	r31, 0xFF	; 255
     73e:	40 80       	ld	r4, Z
     740:	51 80       	ldd	r5, Z+1	; 0x01
     742:	62 80       	ldd	r6, Z+2	; 0x02
     744:	73 80       	ldd	r7, Z+3	; 0x03
     746:	ed 85       	ldd	r30, Y+13	; 0x0d
     748:	fe 85       	ldd	r31, Y+14	; 0x0e
     74a:	42 8e       	std	Z+26, r4	; 0x1a
     74c:	53 8e       	std	Z+27, r5	; 0x1b
     74e:	64 8e       	std	Z+28, r6	; 0x1c
     750:	75 8e       	std	Z+29, r7	; 0x1d
     752:	ee 5b       	subi	r30, 0xBE	; 190
     754:	ff 4f       	sbci	r31, 0xFF	; 255
     756:	a0 81       	ld	r26, Z
     758:	ed 85       	ldd	r30, Y+13	; 0x0d
     75a:	fe 85       	ldd	r31, Y+14	; 0x0e
     75c:	a3 83       	std	Z+3, r26	; 0x03
     75e:	8f ef       	ldi	r24, 0xFF	; 255
     760:	8a 0f       	add	r24, r26
     762:	82 30       	cpi	r24, 0x02	; 2
     764:	08 f0       	brcs	.+2      	; 0x768 <_ZL11chk_mountedPPKcPP5FATFSh+0x17e>
     766:	b7 c1       	rjmp	.+878    	; 0xad6 <_ZL11chk_mountedPPKcPP5FATFSh+0x4ec>
     768:	b0 e0       	ldi	r27, 0x00	; 0
     76a:	a3 01       	movw	r20, r6
     76c:	92 01       	movw	r18, r4
     76e:	0e 94 6d 13 	call	0x26da	; 0x26da <__muluhisi3>
     772:	6d 83       	std	Y+5, r22	; 0x05
     774:	7e 83       	std	Y+6, r23	; 0x06
     776:	8f 83       	std	Y+7, r24	; 0x07
     778:	98 87       	std	Y+8, r25	; 0x08
     77a:	27 ad       	ldd	r18, Z+63	; 0x3f
     77c:	22 83       	std	Z+2, r18	; 0x02
     77e:	22 23       	and	r18, r18
     780:	09 f4       	brne	.+2      	; 0x784 <_ZL11chk_mountedPPKcPP5FATFSh+0x19a>
     782:	ab c1       	rjmp	.+854    	; 0xada <_ZL11chk_mountedPPKcPP5FATFSh+0x4f0>
     784:	42 2f       	mov	r20, r18
     786:	50 e0       	ldi	r21, 0x00	; 0
     788:	ca 01       	movw	r24, r20
     78a:	01 97       	sbiw	r24, 0x01	; 1
     78c:	84 23       	and	r24, r20
     78e:	95 23       	and	r25, r21
     790:	89 2b       	or	r24, r25
     792:	09 f0       	breq	.+2      	; 0x796 <_ZL11chk_mountedPPKcPP5FATFSh+0x1ac>
     794:	a4 c1       	rjmp	.+840    	; 0xade <_ZL11chk_mountedPPKcPP5FATFSh+0x4f4>
     796:	ed 5b       	subi	r30, 0xBD	; 189
     798:	ff 4f       	sbci	r31, 0xFF	; 255
     79a:	20 80       	ld	r2, Z
     79c:	31 80       	ldd	r3, Z+1	; 0x01
     79e:	ad 85       	ldd	r26, Y+13	; 0x0d
     7a0:	be 85       	ldd	r27, Y+14	; 0x0e
     7a2:	19 96       	adiw	r26, 0x09	; 9
     7a4:	3c 92       	st	X, r3
     7a6:	2e 92       	st	-X, r2
     7a8:	18 97       	sbiw	r26, 0x08	; 8
     7aa:	c1 01       	movw	r24, r2
     7ac:	8f 70       	andi	r24, 0x0F	; 15
     7ae:	99 27       	eor	r25, r25
     7b0:	89 2b       	or	r24, r25
     7b2:	09 f0       	breq	.+2      	; 0x7b6 <_ZL11chk_mountedPPKcPP5FATFSh+0x1cc>
     7b4:	96 c1       	rjmp	.+812    	; 0xae2 <_ZL11chk_mountedPPKcPP5FATFSh+0x4f8>
     7b6:	fd 01       	movw	r30, r26
     7b8:	eb 5b       	subi	r30, 0xBB	; 187
     7ba:	ff 4f       	sbci	r31, 0xFF	; 255
     7bc:	60 81       	ld	r22, Z
     7be:	71 81       	ldd	r23, Z+1	; 0x01
     7c0:	cb 01       	movw	r24, r22
     7c2:	a0 e0       	ldi	r26, 0x00	; 0
     7c4:	b0 e0       	ldi	r27, 0x00	; 0
     7c6:	00 97       	sbiw	r24, 0x00	; 0
     7c8:	a1 05       	cpc	r26, r1
     7ca:	b1 05       	cpc	r27, r1
     7cc:	41 f4       	brne	.+16     	; 0x7de <_ZL11chk_mountedPPKcPP5FATFSh+0x1f4>
     7ce:	ed 85       	ldd	r30, Y+13	; 0x0d
     7d0:	fe 85       	ldd	r31, Y+14	; 0x0e
     7d2:	ee 5a       	subi	r30, 0xAE	; 174
     7d4:	ff 4f       	sbci	r31, 0xFF	; 255
     7d6:	80 81       	ld	r24, Z
     7d8:	91 81       	ldd	r25, Z+1	; 0x01
     7da:	a2 81       	ldd	r26, Z+2	; 0x02
     7dc:	b3 81       	ldd	r27, Z+3	; 0x03
     7de:	ed 85       	ldd	r30, Y+13	; 0x0d
     7e0:	fe 85       	ldd	r31, Y+14	; 0x0e
     7e2:	e0 5c       	subi	r30, 0xC0	; 192
     7e4:	ff 4f       	sbci	r31, 0xFF	; 255
     7e6:	40 81       	ld	r20, Z
     7e8:	51 81       	ldd	r21, Z+1	; 0x01
     7ea:	41 15       	cp	r20, r1
     7ec:	51 05       	cpc	r21, r1
     7ee:	09 f4       	brne	.+2      	; 0x7f2 <_ZL11chk_mountedPPKcPP5FATFSh+0x208>
     7f0:	7a c1       	rjmp	.+756    	; 0xae6 <_ZL11chk_mountedPPKcPP5FATFSh+0x4fc>
     7f2:	4a 01       	movw	r8, r20
     7f4:	a1 2c       	mov	r10, r1
     7f6:	b1 2c       	mov	r11, r1
     7f8:	89 86       	std	Y+9, r8	; 0x09
     7fa:	9a 86       	std	Y+10, r9	; 0x0a
     7fc:	ab 86       	std	Y+11, r10	; 0x0b
     7fe:	bc 86       	std	Y+12, r11	; 0x0c
     800:	8d 80       	ldd	r8, Y+5	; 0x05
     802:	9e 80       	ldd	r9, Y+6	; 0x06
     804:	af 80       	ldd	r10, Y+7	; 0x07
     806:	b8 84       	ldd	r11, Y+8	; 0x08
     808:	49 85       	ldd	r20, Y+9	; 0x09
     80a:	5a 85       	ldd	r21, Y+10	; 0x0a
     80c:	6b 85       	ldd	r22, Y+11	; 0x0b
     80e:	7c 85       	ldd	r23, Y+12	; 0x0c
     810:	84 0e       	add	r8, r20
     812:	95 1e       	adc	r9, r21
     814:	a6 1e       	adc	r10, r22
     816:	b7 1e       	adc	r11, r23
     818:	f1 01       	movw	r30, r2
     81a:	f2 95       	swap	r31
     81c:	e2 95       	swap	r30
     81e:	ef 70       	andi	r30, 0x0F	; 15
     820:	ef 27       	eor	r30, r31
     822:	ff 70       	andi	r31, 0x0F	; 15
     824:	ef 27       	eor	r30, r31
     826:	b5 01       	movw	r22, r10
     828:	a4 01       	movw	r20, r8
     82a:	4e 0f       	add	r20, r30
     82c:	5f 1f       	adc	r21, r31
     82e:	61 1d       	adc	r22, r1
     830:	71 1d       	adc	r23, r1
     832:	49 83       	std	Y+1, r20	; 0x01
     834:	5a 83       	std	Y+2, r21	; 0x02
     836:	6b 83       	std	Y+3, r22	; 0x03
     838:	7c 83       	std	Y+4, r23	; 0x04
     83a:	84 17       	cp	r24, r20
     83c:	95 07       	cpc	r25, r21
     83e:	a6 07       	cpc	r26, r22
     840:	b7 07       	cpc	r27, r23
     842:	08 f4       	brcc	.+2      	; 0x846 <_ZL11chk_mountedPPKcPP5FATFSh+0x25c>
     844:	52 c1       	rjmp	.+676    	; 0xaea <_ZL11chk_mountedPPKcPP5FATFSh+0x500>
     846:	bc 01       	movw	r22, r24
     848:	cd 01       	movw	r24, r26
     84a:	89 80       	ldd	r8, Y+1	; 0x01
     84c:	9a 80       	ldd	r9, Y+2	; 0x02
     84e:	ab 80       	ldd	r10, Y+3	; 0x03
     850:	bc 80       	ldd	r11, Y+4	; 0x04
     852:	68 19       	sub	r22, r8
     854:	79 09       	sbc	r23, r9
     856:	8a 09       	sbc	r24, r10
     858:	9b 09       	sbc	r25, r11
     85a:	30 e0       	ldi	r19, 0x00	; 0
     85c:	40 e0       	ldi	r20, 0x00	; 0
     85e:	50 e0       	ldi	r21, 0x00	; 0
     860:	0e 94 4b 13 	call	0x2696	; 0x2696 <__udivmodsi4>
     864:	da 01       	movw	r26, r20
     866:	c9 01       	movw	r24, r18
     868:	21 15       	cp	r18, r1
     86a:	31 05       	cpc	r19, r1
     86c:	41 05       	cpc	r20, r1
     86e:	51 05       	cpc	r21, r1
     870:	09 f4       	brne	.+2      	; 0x874 <_ZL11chk_mountedPPKcPP5FATFSh+0x28a>
     872:	3d c1       	rjmp	.+634    	; 0xaee <_ZL11chk_mountedPPKcPP5FATFSh+0x504>
     874:	26 3f       	cpi	r18, 0xF6	; 246
     876:	6f e0       	ldi	r22, 0x0F	; 15
     878:	36 07       	cpc	r19, r22
     87a:	41 05       	cpc	r20, r1
     87c:	51 05       	cpc	r21, r1
     87e:	10 f4       	brcc	.+4      	; 0x884 <_ZL11chk_mountedPPKcPP5FATFSh+0x29a>
     880:	11 e0       	ldi	r17, 0x01	; 1
     882:	01 c0       	rjmp	.+2      	; 0x886 <_ZL11chk_mountedPPKcPP5FATFSh+0x29c>
     884:	12 e0       	ldi	r17, 0x02	; 2
     886:	86 3f       	cpi	r24, 0xF6	; 246
     888:	9f 4f       	sbci	r25, 0xFF	; 255
     88a:	a1 05       	cpc	r26, r1
     88c:	b1 05       	cpc	r27, r1
     88e:	08 f0       	brcs	.+2      	; 0x892 <_ZL11chk_mountedPPKcPP5FATFSh+0x2a8>
     890:	13 e0       	ldi	r17, 0x03	; 3
     892:	49 01       	movw	r8, r18
     894:	5a 01       	movw	r10, r20
     896:	82 e0       	ldi	r24, 0x02	; 2
     898:	88 0e       	add	r8, r24
     89a:	91 1c       	adc	r9, r1
     89c:	a1 1c       	adc	r10, r1
     89e:	b1 1c       	adc	r11, r1
     8a0:	ad 85       	ldd	r26, Y+13	; 0x0d
     8a2:	be 85       	ldd	r27, Y+14	; 0x0e
     8a4:	56 96       	adiw	r26, 0x16	; 22
     8a6:	8d 92       	st	X+, r8
     8a8:	9d 92       	st	X+, r9
     8aa:	ad 92       	st	X+, r10
     8ac:	bc 92       	st	X, r11
     8ae:	59 97       	sbiw	r26, 0x19	; 25
     8b0:	fd 01       	movw	r30, r26
     8b2:	c6 8e       	std	Z+30, r12	; 0x1e
     8b4:	d7 8e       	std	Z+31, r13	; 0x1f
     8b6:	e0 a2       	std	Z+32, r14	; 0x20
     8b8:	f1 a2       	std	Z+33, r15	; 0x21
     8ba:	89 85       	ldd	r24, Y+9	; 0x09
     8bc:	9a 85       	ldd	r25, Y+10	; 0x0a
     8be:	ab 85       	ldd	r26, Y+11	; 0x0b
     8c0:	bc 85       	ldd	r27, Y+12	; 0x0c
     8c2:	8c 0d       	add	r24, r12
     8c4:	9d 1d       	adc	r25, r13
     8c6:	ae 1d       	adc	r26, r14
     8c8:	bf 1d       	adc	r27, r15
     8ca:	82 a3       	std	Z+34, r24	; 0x22
     8cc:	93 a3       	std	Z+35, r25	; 0x23
     8ce:	a4 a3       	std	Z+36, r26	; 0x24
     8d0:	b5 a3       	std	Z+37, r27	; 0x25
     8d2:	49 81       	ldd	r20, Y+1	; 0x01
     8d4:	5a 81       	ldd	r21, Y+2	; 0x02
     8d6:	6b 81       	ldd	r22, Y+3	; 0x03
     8d8:	7c 81       	ldd	r23, Y+4	; 0x04
     8da:	4c 0d       	add	r20, r12
     8dc:	5d 1d       	adc	r21, r13
     8de:	6e 1d       	adc	r22, r14
     8e0:	7f 1d       	adc	r23, r15
     8e2:	42 a7       	std	Z+42, r20	; 0x2a
     8e4:	53 a7       	std	Z+43, r21	; 0x2b
     8e6:	64 a7       	std	Z+44, r22	; 0x2c
     8e8:	75 a7       	std	Z+45, r23	; 0x2d
     8ea:	13 30       	cpi	r17, 0x03	; 3
     8ec:	c1 f4       	brne	.+48     	; 0x91e <_ZL11chk_mountedPPKcPP5FATFSh+0x334>
     8ee:	23 28       	or	r2, r3
     8f0:	09 f0       	breq	.+2      	; 0x8f4 <_ZL11chk_mountedPPKcPP5FATFSh+0x30a>
     8f2:	ff c0       	rjmp	.+510    	; 0xaf2 <_ZL11chk_mountedPPKcPP5FATFSh+0x508>
     8f4:	e2 5a       	subi	r30, 0xA2	; 162
     8f6:	ff 4f       	sbci	r31, 0xFF	; 255
     8f8:	80 81       	ld	r24, Z
     8fa:	91 81       	ldd	r25, Z+1	; 0x01
     8fc:	a2 81       	ldd	r26, Z+2	; 0x02
     8fe:	b3 81       	ldd	r27, Z+3	; 0x03
     900:	ed 85       	ldd	r30, Y+13	; 0x0d
     902:	fe 85       	ldd	r31, Y+14	; 0x0e
     904:	86 a3       	std	Z+38, r24	; 0x26
     906:	97 a3       	std	Z+39, r25	; 0x27
     908:	a0 a7       	std	Z+40, r26	; 0x28
     90a:	b1 a7       	std	Z+41, r27	; 0x29
     90c:	88 0c       	add	r8, r8
     90e:	99 1c       	adc	r9, r9
     910:	aa 1c       	adc	r10, r10
     912:	bb 1c       	adc	r11, r11
     914:	88 0c       	add	r8, r8
     916:	99 1c       	adc	r9, r9
     918:	aa 1c       	adc	r10, r10
     91a:	bb 1c       	adc	r11, r11
     91c:	2d c0       	rjmp	.+90     	; 0x978 <_ZL11chk_mountedPPKcPP5FATFSh+0x38e>
     91e:	23 28       	or	r2, r3
     920:	09 f4       	brne	.+2      	; 0x924 <_ZL11chk_mountedPPKcPP5FATFSh+0x33a>
     922:	e9 c0       	rjmp	.+466    	; 0xaf6 <_ZL11chk_mountedPPKcPP5FATFSh+0x50c>
     924:	2d 81       	ldd	r18, Y+5	; 0x05
     926:	3e 81       	ldd	r19, Y+6	; 0x06
     928:	4f 81       	ldd	r20, Y+7	; 0x07
     92a:	58 85       	ldd	r21, Y+8	; 0x08
     92c:	82 0f       	add	r24, r18
     92e:	93 1f       	adc	r25, r19
     930:	a4 1f       	adc	r26, r20
     932:	b5 1f       	adc	r27, r21
     934:	ed 85       	ldd	r30, Y+13	; 0x0d
     936:	fe 85       	ldd	r31, Y+14	; 0x0e
     938:	86 a3       	std	Z+38, r24	; 0x26
     93a:	97 a3       	std	Z+39, r25	; 0x27
     93c:	a0 a7       	std	Z+40, r26	; 0x28
     93e:	b1 a7       	std	Z+41, r27	; 0x29
     940:	12 30       	cpi	r17, 0x02	; 2
     942:	29 f4       	brne	.+10     	; 0x94e <_ZL11chk_mountedPPKcPP5FATFSh+0x364>
     944:	88 0c       	add	r8, r8
     946:	99 1c       	adc	r9, r9
     948:	aa 1c       	adc	r10, r10
     94a:	bb 1c       	adc	r11, r11
     94c:	15 c0       	rjmp	.+42     	; 0x978 <_ZL11chk_mountedPPKcPP5FATFSh+0x38e>
     94e:	a3 e0       	ldi	r26, 0x03	; 3
     950:	b0 e0       	ldi	r27, 0x00	; 0
     952:	a5 01       	movw	r20, r10
     954:	94 01       	movw	r18, r8
     956:	0e 94 6d 13 	call	0x26da	; 0x26da <__muluhisi3>
     95a:	dc 01       	movw	r26, r24
     95c:	cb 01       	movw	r24, r22
     95e:	b6 95       	lsr	r27
     960:	a7 95       	ror	r26
     962:	97 95       	ror	r25
     964:	87 95       	ror	r24
     966:	f1 e0       	ldi	r31, 0x01	; 1
     968:	8f 22       	and	r8, r31
     96a:	99 24       	eor	r9, r9
     96c:	aa 24       	eor	r10, r10
     96e:	bb 24       	eor	r11, r11
     970:	88 0e       	add	r8, r24
     972:	99 1e       	adc	r9, r25
     974:	aa 1e       	adc	r10, r26
     976:	bb 1e       	adc	r11, r27
     978:	2f ef       	ldi	r18, 0xFF	; 255
     97a:	82 0e       	add	r8, r18
     97c:	21 e0       	ldi	r18, 0x01	; 1
     97e:	92 1e       	adc	r9, r18
     980:	a1 1c       	adc	r10, r1
     982:	b1 1c       	adc	r11, r1
     984:	07 2e       	mov	r0, r23
     986:	79 e0       	ldi	r23, 0x09	; 9
     988:	b6 94       	lsr	r11
     98a:	a7 94       	ror	r10
     98c:	97 94       	ror	r9
     98e:	87 94       	ror	r8
     990:	7a 95       	dec	r23
     992:	d1 f7       	brne	.-12     	; 0x988 <_ZL11chk_mountedPPKcPP5FATFSh+0x39e>
     994:	70 2d       	mov	r23, r0
     996:	48 14       	cp	r4, r8
     998:	59 04       	cpc	r5, r9
     99a:	6a 04       	cpc	r6, r10
     99c:	7b 04       	cpc	r7, r11
     99e:	08 f4       	brcc	.+2      	; 0x9a2 <_ZL11chk_mountedPPKcPP5FATFSh+0x3b8>
     9a0:	ac c0       	rjmp	.+344    	; 0xafa <_ZL11chk_mountedPPKcPP5FATFSh+0x510>
     9a2:	8f ef       	ldi	r24, 0xFF	; 255
     9a4:	9f ef       	ldi	r25, 0xFF	; 255
     9a6:	dc 01       	movw	r26, r24
     9a8:	ed 85       	ldd	r30, Y+13	; 0x0d
     9aa:	fe 85       	ldd	r31, Y+14	; 0x0e
     9ac:	86 87       	std	Z+14, r24	; 0x0e
     9ae:	97 87       	std	Z+15, r25	; 0x0f
     9b0:	a0 8b       	std	Z+16, r26	; 0x10
     9b2:	b1 8b       	std	Z+17, r27	; 0x11
     9b4:	df 01       	movw	r26, r30
     9b6:	12 86       	std	Z+10, r1	; 0x0a
     9b8:	13 86       	std	Z+11, r1	; 0x0b
     9ba:	14 86       	std	Z+12, r1	; 0x0c
     9bc:	15 86       	std	Z+13, r1	; 0x0d
     9be:	13 30       	cpi	r17, 0x03	; 3
     9c0:	09 f0       	breq	.+2      	; 0x9c4 <_ZL11chk_mountedPPKcPP5FATFSh+0x3da>
     9c2:	5f c0       	rjmp	.+190    	; 0xa82 <_ZL11chk_mountedPPKcPP5FATFSh+0x498>
     9c4:	15 82       	std	Z+5, r1	; 0x05
     9c6:	ee 59       	subi	r30, 0x9E	; 158
     9c8:	ff 4f       	sbci	r31, 0xFF	; 255
     9ca:	80 81       	ld	r24, Z
     9cc:	91 81       	ldd	r25, Z+1	; 0x01
     9ce:	a7 01       	movw	r20, r14
     9d0:	96 01       	movw	r18, r12
     9d2:	28 0f       	add	r18, r24
     9d4:	39 1f       	adc	r19, r25
     9d6:	41 1d       	adc	r20, r1
     9d8:	51 1d       	adc	r21, r1
     9da:	fd 01       	movw	r30, r26
     9dc:	22 8b       	std	Z+18, r18	; 0x12
     9de:	33 8b       	std	Z+19, r19	; 0x13
     9e0:	44 8b       	std	Z+20, r20	; 0x14
     9e2:	55 8b       	std	Z+21, r21	; 0x15
     9e4:	01 e0       	ldi	r16, 0x01	; 1
     9e6:	bd 01       	movw	r22, r26
     9e8:	6e 5c       	subi	r22, 0xCE	; 206
     9ea:	7f 4f       	sbci	r23, 0xFF	; 255
     9ec:	81 81       	ldd	r24, Z+1	; 0x01
     9ee:	0e 94 ce 11 	call	0x239c	; 0x239c <disk_read>
     9f2:	81 11       	cpse	r24, r1
     9f4:	23 c0       	rjmp	.+70     	; 0xa3c <_ZL11chk_mountedPPKcPP5FATFSh+0x452>
     9f6:	ed 85       	ldd	r30, Y+13	; 0x0d
     9f8:	fe 85       	ldd	r31, Y+14	; 0x0e
     9fa:	e0 5d       	subi	r30, 0xD0	; 208
     9fc:	fd 4f       	sbci	r31, 0xFD	; 253
     9fe:	80 81       	ld	r24, Z
     a00:	91 81       	ldd	r25, Z+1	; 0x01
     a02:	85 35       	cpi	r24, 0x55	; 85
     a04:	9a 4a       	sbci	r25, 0xAA	; 170
     a06:	e1 f4       	brne	.+56     	; 0xa40 <_ZL11chk_mountedPPKcPP5FATFSh+0x456>
     a08:	ed 85       	ldd	r30, Y+13	; 0x0d
     a0a:	fe 85       	ldd	r31, Y+14	; 0x0e
     a0c:	82 a9       	ldd	r24, Z+50	; 0x32
     a0e:	93 a9       	ldd	r25, Z+51	; 0x33
     a10:	a4 a9       	ldd	r26, Z+52	; 0x34
     a12:	b5 a9       	ldd	r27, Z+53	; 0x35
     a14:	82 35       	cpi	r24, 0x52	; 82
     a16:	92 45       	sbci	r25, 0x52	; 82
     a18:	a1 46       	sbci	r26, 0x61	; 97
     a1a:	b1 44       	sbci	r27, 0x41	; 65
     a1c:	99 f4       	brne	.+38     	; 0xa44 <_ZL11chk_mountedPPKcPP5FATFSh+0x45a>
     a1e:	ed 85       	ldd	r30, Y+13	; 0x0d
     a20:	fe 85       	ldd	r31, Y+14	; 0x0e
     a22:	ea 5e       	subi	r30, 0xEA	; 234
     a24:	fd 4f       	sbci	r31, 0xFD	; 253
     a26:	80 81       	ld	r24, Z
     a28:	91 81       	ldd	r25, Z+1	; 0x01
     a2a:	a2 81       	ldd	r26, Z+2	; 0x02
     a2c:	b3 81       	ldd	r27, Z+3	; 0x03
     a2e:	82 37       	cpi	r24, 0x72	; 114
     a30:	92 47       	sbci	r25, 0x72	; 114
     a32:	a1 44       	sbci	r26, 0x41	; 65
     a34:	b1 46       	sbci	r27, 0x61	; 97
     a36:	41 f0       	breq	.+16     	; 0xa48 <_ZL11chk_mountedPPKcPP5FATFSh+0x45e>
     a38:	80 e0       	ldi	r24, 0x00	; 0
     a3a:	07 c0       	rjmp	.+14     	; 0xa4a <_ZL11chk_mountedPPKcPP5FATFSh+0x460>
     a3c:	80 e0       	ldi	r24, 0x00	; 0
     a3e:	05 c0       	rjmp	.+10     	; 0xa4a <_ZL11chk_mountedPPKcPP5FATFSh+0x460>
     a40:	80 e0       	ldi	r24, 0x00	; 0
     a42:	03 c0       	rjmp	.+6      	; 0xa4a <_ZL11chk_mountedPPKcPP5FATFSh+0x460>
     a44:	80 e0       	ldi	r24, 0x00	; 0
     a46:	01 c0       	rjmp	.+2      	; 0xa4a <_ZL11chk_mountedPPKcPP5FATFSh+0x460>
     a48:	81 e0       	ldi	r24, 0x01	; 1
     a4a:	88 23       	and	r24, r24
     a4c:	d1 f0       	breq	.+52     	; 0xa82 <_ZL11chk_mountedPPKcPP5FATFSh+0x498>
     a4e:	ed 85       	ldd	r30, Y+13	; 0x0d
     a50:	fe 85       	ldd	r31, Y+14	; 0x0e
     a52:	e2 5e       	subi	r30, 0xE2	; 226
     a54:	fd 4f       	sbci	r31, 0xFD	; 253
     a56:	80 81       	ld	r24, Z
     a58:	91 81       	ldd	r25, Z+1	; 0x01
     a5a:	a2 81       	ldd	r26, Z+2	; 0x02
     a5c:	b3 81       	ldd	r27, Z+3	; 0x03
     a5e:	ed 85       	ldd	r30, Y+13	; 0x0d
     a60:	fe 85       	ldd	r31, Y+14	; 0x0e
     a62:	82 87       	std	Z+10, r24	; 0x0a
     a64:	93 87       	std	Z+11, r25	; 0x0b
     a66:	a4 87       	std	Z+12, r26	; 0x0c
     a68:	b5 87       	std	Z+13, r27	; 0x0d
     a6a:	e6 5e       	subi	r30, 0xE6	; 230
     a6c:	fd 4f       	sbci	r31, 0xFD	; 253
     a6e:	80 81       	ld	r24, Z
     a70:	91 81       	ldd	r25, Z+1	; 0x01
     a72:	a2 81       	ldd	r26, Z+2	; 0x02
     a74:	b3 81       	ldd	r27, Z+3	; 0x03
     a76:	ed 85       	ldd	r30, Y+13	; 0x0d
     a78:	fe 85       	ldd	r31, Y+14	; 0x0e
     a7a:	86 87       	std	Z+14, r24	; 0x0e
     a7c:	97 87       	std	Z+15, r25	; 0x0f
     a7e:	a0 8b       	std	Z+16, r26	; 0x10
     a80:	b1 8b       	std	Z+17, r27	; 0x11
     a82:	ad 85       	ldd	r26, Y+13	; 0x0d
     a84:	be 85       	ldd	r27, Y+14	; 0x0e
     a86:	1c 93       	st	X, r17
     a88:	80 91 ec 10 	lds	r24, 0x10EC	; 0x8010ec <_ZL4Fsid>
     a8c:	90 91 ed 10 	lds	r25, 0x10ED	; 0x8010ed <_ZL4Fsid+0x1>
     a90:	01 96       	adiw	r24, 0x01	; 1
     a92:	90 93 ed 10 	sts	0x10ED, r25	; 0x8010ed <_ZL4Fsid+0x1>
     a96:	80 93 ec 10 	sts	0x10EC, r24	; 0x8010ec <_ZL4Fsid>
     a9a:	17 96       	adiw	r26, 0x07	; 7
     a9c:	9c 93       	st	X, r25
     a9e:	8e 93       	st	-X, r24
     aa0:	16 97       	sbiw	r26, 0x06	; 6
     aa2:	fd 01       	movw	r30, r26
     aa4:	16 a6       	std	Z+46, r1	; 0x2e
     aa6:	17 a6       	std	Z+47, r1	; 0x2f
     aa8:	10 aa       	std	Z+48, r1	; 0x30
     aaa:	11 aa       	std	Z+49, r1	; 0x31
     aac:	14 82       	std	Z+4, r1	; 0x04
     aae:	80 e0       	ldi	r24, 0x00	; 0
     ab0:	25 c0       	rjmp	.+74     	; 0xafc <_ZL11chk_mountedPPKcPP5FATFSh+0x512>
     ab2:	8b e0       	ldi	r24, 0x0B	; 11
     ab4:	23 c0       	rjmp	.+70     	; 0xafc <_ZL11chk_mountedPPKcPP5FATFSh+0x512>
     ab6:	8c e0       	ldi	r24, 0x0C	; 12
     ab8:	21 c0       	rjmp	.+66     	; 0xafc <_ZL11chk_mountedPPKcPP5FATFSh+0x512>
     aba:	80 e0       	ldi	r24, 0x00	; 0
     abc:	1f c0       	rjmp	.+62     	; 0xafc <_ZL11chk_mountedPPKcPP5FATFSh+0x512>
     abe:	8a e0       	ldi	r24, 0x0A	; 10
     ac0:	1d c0       	rjmp	.+58     	; 0xafc <_ZL11chk_mountedPPKcPP5FATFSh+0x512>
     ac2:	83 e0       	ldi	r24, 0x03	; 3
     ac4:	1b c0       	rjmp	.+54     	; 0xafc <_ZL11chk_mountedPPKcPP5FATFSh+0x512>
     ac6:	8a e0       	ldi	r24, 0x0A	; 10
     ac8:	19 c0       	rjmp	.+50     	; 0xafc <_ZL11chk_mountedPPKcPP5FATFSh+0x512>
     aca:	81 e0       	ldi	r24, 0x01	; 1
     acc:	17 c0       	rjmp	.+46     	; 0xafc <_ZL11chk_mountedPPKcPP5FATFSh+0x512>
     ace:	8d e0       	ldi	r24, 0x0D	; 13
     ad0:	15 c0       	rjmp	.+42     	; 0xafc <_ZL11chk_mountedPPKcPP5FATFSh+0x512>
     ad2:	8d e0       	ldi	r24, 0x0D	; 13
     ad4:	13 c0       	rjmp	.+38     	; 0xafc <_ZL11chk_mountedPPKcPP5FATFSh+0x512>
     ad6:	8d e0       	ldi	r24, 0x0D	; 13
     ad8:	11 c0       	rjmp	.+34     	; 0xafc <_ZL11chk_mountedPPKcPP5FATFSh+0x512>
     ada:	8d e0       	ldi	r24, 0x0D	; 13
     adc:	0f c0       	rjmp	.+30     	; 0xafc <_ZL11chk_mountedPPKcPP5FATFSh+0x512>
     ade:	8d e0       	ldi	r24, 0x0D	; 13
     ae0:	0d c0       	rjmp	.+26     	; 0xafc <_ZL11chk_mountedPPKcPP5FATFSh+0x512>
     ae2:	8d e0       	ldi	r24, 0x0D	; 13
     ae4:	0b c0       	rjmp	.+22     	; 0xafc <_ZL11chk_mountedPPKcPP5FATFSh+0x512>
     ae6:	8d e0       	ldi	r24, 0x0D	; 13
     ae8:	09 c0       	rjmp	.+18     	; 0xafc <_ZL11chk_mountedPPKcPP5FATFSh+0x512>
     aea:	8d e0       	ldi	r24, 0x0D	; 13
     aec:	07 c0       	rjmp	.+14     	; 0xafc <_ZL11chk_mountedPPKcPP5FATFSh+0x512>
     aee:	8d e0       	ldi	r24, 0x0D	; 13
     af0:	05 c0       	rjmp	.+10     	; 0xafc <_ZL11chk_mountedPPKcPP5FATFSh+0x512>
     af2:	8d e0       	ldi	r24, 0x0D	; 13
     af4:	03 c0       	rjmp	.+6      	; 0xafc <_ZL11chk_mountedPPKcPP5FATFSh+0x512>
     af6:	8d e0       	ldi	r24, 0x0D	; 13
     af8:	01 c0       	rjmp	.+2      	; 0xafc <_ZL11chk_mountedPPKcPP5FATFSh+0x512>
     afa:	8d e0       	ldi	r24, 0x0D	; 13
     afc:	2e 96       	adiw	r28, 0x0e	; 14
     afe:	0f b6       	in	r0, 0x3f	; 63
     b00:	f8 94       	cli
     b02:	de bf       	out	0x3e, r29	; 62
     b04:	0f be       	out	0x3f, r0	; 63
     b06:	cd bf       	out	0x3d, r28	; 61
     b08:	df 91       	pop	r29
     b0a:	cf 91       	pop	r28
     b0c:	1f 91       	pop	r17
     b0e:	0f 91       	pop	r16
     b10:	ff 90       	pop	r15
     b12:	ef 90       	pop	r14
     b14:	df 90       	pop	r13
     b16:	cf 90       	pop	r12
     b18:	bf 90       	pop	r11
     b1a:	af 90       	pop	r10
     b1c:	9f 90       	pop	r9
     b1e:	8f 90       	pop	r8
     b20:	7f 90       	pop	r7
     b22:	6f 90       	pop	r6
     b24:	5f 90       	pop	r5
     b26:	4f 90       	pop	r4
     b28:	3f 90       	pop	r3
     b2a:	2f 90       	pop	r2
     b2c:	08 95       	ret

00000b2e <_ZL7sync_fsP5FATFS>:
     b2e:	ef 92       	push	r14
     b30:	ff 92       	push	r15
     b32:	0f 93       	push	r16
     b34:	1f 93       	push	r17
     b36:	cf 93       	push	r28
     b38:	df 93       	push	r29
     b3a:	ec 01       	movw	r28, r24
     b3c:	92 dc       	rcall	.-1756   	; 0x462 <_ZL11sync_windowP5FATFS>
     b3e:	18 2f       	mov	r17, r24
     b40:	81 11       	cpse	r24, r1
     b42:	52 c0       	rjmp	.+164    	; 0xbe8 <_ZL7sync_fsP5FATFS+0xba>
     b44:	88 81       	ld	r24, Y
     b46:	83 30       	cpi	r24, 0x03	; 3
     b48:	09 f0       	breq	.+2      	; 0xb4c <_ZL7sync_fsP5FATFS+0x1e>
     b4a:	46 c0       	rjmp	.+140    	; 0xbd8 <_ZL7sync_fsP5FATFS+0xaa>
     b4c:	8d 81       	ldd	r24, Y+5	; 0x05
     b4e:	88 23       	and	r24, r24
     b50:	09 f4       	brne	.+2      	; 0xb54 <_ZL7sync_fsP5FATFS+0x26>
     b52:	42 c0       	rjmp	.+132    	; 0xbd8 <_ZL7sync_fsP5FATFS+0xaa>
     b54:	1e a6       	std	Y+46, r1	; 0x2e
     b56:	1f a6       	std	Y+47, r1	; 0x2f
     b58:	18 aa       	std	Y+48, r1	; 0x30
     b5a:	19 aa       	std	Y+49, r1	; 0x31
     b5c:	40 e0       	ldi	r20, 0x00	; 0
     b5e:	52 e0       	ldi	r21, 0x02	; 2
     b60:	60 e0       	ldi	r22, 0x00	; 0
     b62:	70 e0       	ldi	r23, 0x00	; 0
     b64:	7e 01       	movw	r14, r28
     b66:	82 e3       	ldi	r24, 0x32	; 50
     b68:	e8 0e       	add	r14, r24
     b6a:	f1 1c       	adc	r15, r1
     b6c:	c7 01       	movw	r24, r14
     b6e:	25 db       	rcall	.-2486   	; 0x1ba <_ZL7mem_setPvij>
     b70:	85 e5       	ldi	r24, 0x55	; 85
     b72:	9a ea       	ldi	r25, 0xAA	; 170
     b74:	fe 01       	movw	r30, r28
     b76:	e0 5d       	subi	r30, 0xD0	; 208
     b78:	fd 4f       	sbci	r31, 0xFD	; 253
     b7a:	91 83       	std	Z+1, r25	; 0x01
     b7c:	80 83       	st	Z, r24
     b7e:	82 e5       	ldi	r24, 0x52	; 82
     b80:	92 e5       	ldi	r25, 0x52	; 82
     b82:	a1 e6       	ldi	r26, 0x61	; 97
     b84:	b1 e4       	ldi	r27, 0x41	; 65
     b86:	8a ab       	std	Y+50, r24	; 0x32
     b88:	9b ab       	std	Y+51, r25	; 0x33
     b8a:	ac ab       	std	Y+52, r26	; 0x34
     b8c:	bd ab       	std	Y+53, r27	; 0x35
     b8e:	82 e7       	ldi	r24, 0x72	; 114
     b90:	92 e7       	ldi	r25, 0x72	; 114
     b92:	a1 e4       	ldi	r26, 0x41	; 65
     b94:	b1 e6       	ldi	r27, 0x61	; 97
     b96:	7a 97       	sbiw	r30, 0x1a	; 26
     b98:	80 83       	st	Z, r24
     b9a:	91 83       	std	Z+1, r25	; 0x01
     b9c:	a2 83       	std	Z+2, r26	; 0x02
     b9e:	b3 83       	std	Z+3, r27	; 0x03
     ba0:	8e 85       	ldd	r24, Y+14	; 0x0e
     ba2:	9f 85       	ldd	r25, Y+15	; 0x0f
     ba4:	a8 89       	ldd	r26, Y+16	; 0x10
     ba6:	b9 89       	ldd	r27, Y+17	; 0x11
     ba8:	34 96       	adiw	r30, 0x04	; 4
     baa:	80 83       	st	Z, r24
     bac:	91 83       	std	Z+1, r25	; 0x01
     bae:	a2 83       	std	Z+2, r26	; 0x02
     bb0:	b3 83       	std	Z+3, r27	; 0x03
     bb2:	8a 85       	ldd	r24, Y+10	; 0x0a
     bb4:	9b 85       	ldd	r25, Y+11	; 0x0b
     bb6:	ac 85       	ldd	r26, Y+12	; 0x0c
     bb8:	bd 85       	ldd	r27, Y+13	; 0x0d
     bba:	34 96       	adiw	r30, 0x04	; 4
     bbc:	80 83       	st	Z, r24
     bbe:	91 83       	std	Z+1, r25	; 0x01
     bc0:	a2 83       	std	Z+2, r26	; 0x02
     bc2:	b3 83       	std	Z+3, r27	; 0x03
     bc4:	2a 89       	ldd	r18, Y+18	; 0x12
     bc6:	3b 89       	ldd	r19, Y+19	; 0x13
     bc8:	4c 89       	ldd	r20, Y+20	; 0x14
     bca:	5d 89       	ldd	r21, Y+21	; 0x15
     bcc:	01 e0       	ldi	r16, 0x01	; 1
     bce:	b7 01       	movw	r22, r14
     bd0:	89 81       	ldd	r24, Y+1	; 0x01
     bd2:	0e 94 24 12 	call	0x2448	; 0x2448 <disk_write>
     bd6:	1d 82       	std	Y+5, r1	; 0x05
     bd8:	40 e0       	ldi	r20, 0x00	; 0
     bda:	50 e0       	ldi	r21, 0x00	; 0
     bdc:	60 e0       	ldi	r22, 0x00	; 0
     bde:	89 81       	ldd	r24, Y+1	; 0x01
     be0:	0e 94 83 12 	call	0x2506	; 0x2506 <disk_ioctl>
     be4:	81 11       	cpse	r24, r1
     be6:	11 e0       	ldi	r17, 0x01	; 1
     be8:	81 2f       	mov	r24, r17
     bea:	df 91       	pop	r29
     bec:	cf 91       	pop	r28
     bee:	1f 91       	pop	r17
     bf0:	0f 91       	pop	r16
     bf2:	ff 90       	pop	r15
     bf4:	ef 90       	pop	r14
     bf6:	08 95       	ret

00000bf8 <_Z10clust2sectP5FATFSm>:
     bf8:	0f 93       	push	r16
     bfa:	1f 93       	push	r17
     bfc:	fc 01       	movw	r30, r24
     bfe:	9a 01       	movw	r18, r20
     c00:	ab 01       	movw	r20, r22
     c02:	22 50       	subi	r18, 0x02	; 2
     c04:	31 09       	sbc	r19, r1
     c06:	41 09       	sbc	r20, r1
     c08:	51 09       	sbc	r21, r1
     c0a:	86 89       	ldd	r24, Z+22	; 0x16
     c0c:	97 89       	ldd	r25, Z+23	; 0x17
     c0e:	a0 8d       	ldd	r26, Z+24	; 0x18
     c10:	b1 8d       	ldd	r27, Z+25	; 0x19
     c12:	02 97       	sbiw	r24, 0x02	; 2
     c14:	a1 09       	sbc	r26, r1
     c16:	b1 09       	sbc	r27, r1
     c18:	28 17       	cp	r18, r24
     c1a:	39 07       	cpc	r19, r25
     c1c:	4a 07       	cpc	r20, r26
     c1e:	5b 07       	cpc	r21, r27
     c20:	68 f4       	brcc	.+26     	; 0xc3c <_Z10clust2sectP5FATFSm+0x44>
     c22:	a2 81       	ldd	r26, Z+2	; 0x02
     c24:	b0 e0       	ldi	r27, 0x00	; 0
     c26:	0e 94 6d 13 	call	0x26da	; 0x26da <__muluhisi3>
     c2a:	02 a5       	ldd	r16, Z+42	; 0x2a
     c2c:	13 a5       	ldd	r17, Z+43	; 0x2b
     c2e:	24 a5       	ldd	r18, Z+44	; 0x2c
     c30:	35 a5       	ldd	r19, Z+45	; 0x2d
     c32:	60 0f       	add	r22, r16
     c34:	71 1f       	adc	r23, r17
     c36:	82 1f       	adc	r24, r18
     c38:	93 1f       	adc	r25, r19
     c3a:	03 c0       	rjmp	.+6      	; 0xc42 <_Z10clust2sectP5FATFSm+0x4a>
     c3c:	60 e0       	ldi	r22, 0x00	; 0
     c3e:	70 e0       	ldi	r23, 0x00	; 0
     c40:	cb 01       	movw	r24, r22
     c42:	1f 91       	pop	r17
     c44:	0f 91       	pop	r16
     c46:	08 95       	ret

00000c48 <_Z7get_fatP5FATFSm>:
     c48:	af 92       	push	r10
     c4a:	bf 92       	push	r11
     c4c:	cf 92       	push	r12
     c4e:	df 92       	push	r13
     c50:	ef 92       	push	r14
     c52:	ff 92       	push	r15
     c54:	0f 93       	push	r16
     c56:	1f 93       	push	r17
     c58:	cf 93       	push	r28
     c5a:	df 93       	push	r29
     c5c:	42 30       	cpi	r20, 0x02	; 2
     c5e:	51 05       	cpc	r21, r1
     c60:	61 05       	cpc	r22, r1
     c62:	71 05       	cpc	r23, r1
     c64:	08 f4       	brcc	.+2      	; 0xc68 <_Z7get_fatP5FATFSm+0x20>
     c66:	b2 c0       	rjmp	.+356    	; 0xdcc <_Z7get_fatP5FATFSm+0x184>
     c68:	fc 01       	movw	r30, r24
     c6a:	06 89       	ldd	r16, Z+22	; 0x16
     c6c:	17 89       	ldd	r17, Z+23	; 0x17
     c6e:	20 8d       	ldd	r18, Z+24	; 0x18
     c70:	31 8d       	ldd	r19, Z+25	; 0x19
     c72:	40 17       	cp	r20, r16
     c74:	51 07       	cpc	r21, r17
     c76:	62 07       	cpc	r22, r18
     c78:	73 07       	cpc	r23, r19
     c7a:	08 f0       	brcs	.+2      	; 0xc7e <_Z7get_fatP5FATFSm+0x36>
     c7c:	ac c0       	rjmp	.+344    	; 0xdd6 <_Z7get_fatP5FATFSm+0x18e>
     c7e:	6a 01       	movw	r12, r20
     c80:	7b 01       	movw	r14, r22
     c82:	ec 01       	movw	r28, r24
     c84:	80 81       	ld	r24, Z
     c86:	82 30       	cpi	r24, 0x02	; 2
     c88:	09 f4       	brne	.+2      	; 0xc8c <_Z7get_fatP5FATFSm+0x44>
     c8a:	4d c0       	rjmp	.+154    	; 0xd26 <_Z7get_fatP5FATFSm+0xde>
     c8c:	83 30       	cpi	r24, 0x03	; 3
     c8e:	09 f4       	brne	.+2      	; 0xc92 <_Z7get_fatP5FATFSm+0x4a>
     c90:	6d c0       	rjmp	.+218    	; 0xd6c <_Z7get_fatP5FATFSm+0x124>
     c92:	81 30       	cpi	r24, 0x01	; 1
     c94:	09 f0       	breq	.+2      	; 0xc98 <_Z7get_fatP5FATFSm+0x50>
     c96:	a4 c0       	rjmp	.+328    	; 0xde0 <_Z7get_fatP5FATFSm+0x198>
     c98:	5a 01       	movw	r10, r20
     c9a:	b6 94       	lsr	r11
     c9c:	a7 94       	ror	r10
     c9e:	a4 0e       	add	r10, r20
     ca0:	b5 1e       	adc	r11, r21
     ca2:	42 a1       	ldd	r20, Z+34	; 0x22
     ca4:	53 a1       	ldd	r21, Z+35	; 0x23
     ca6:	64 a1       	ldd	r22, Z+36	; 0x24
     ca8:	75 a1       	ldd	r23, Z+37	; 0x25
     caa:	c5 01       	movw	r24, r10
     cac:	89 2f       	mov	r24, r25
     cae:	99 27       	eor	r25, r25
     cb0:	86 95       	lsr	r24
     cb2:	48 0f       	add	r20, r24
     cb4:	59 1f       	adc	r21, r25
     cb6:	61 1d       	adc	r22, r1
     cb8:	71 1d       	adc	r23, r1
     cba:	cf 01       	movw	r24, r30
     cbc:	39 dc       	rcall	.-1934   	; 0x530 <_ZL11move_windowP5FATFSm>
     cbe:	81 11       	cpse	r24, r1
     cc0:	93 c0       	rjmp	.+294    	; 0xde8 <_Z7get_fatP5FATFSm+0x1a0>
     cc2:	f5 01       	movw	r30, r10
     cc4:	f1 70       	andi	r31, 0x01	; 1
     cc6:	ec 0f       	add	r30, r28
     cc8:	fd 1f       	adc	r31, r29
     cca:	02 a9       	ldd	r16, Z+50	; 0x32
     ccc:	10 e0       	ldi	r17, 0x00	; 0
     cce:	ff ef       	ldi	r31, 0xFF	; 255
     cd0:	af 1a       	sub	r10, r31
     cd2:	bf 0a       	sbc	r11, r31
     cd4:	4a a1       	ldd	r20, Y+34	; 0x22
     cd6:	5b a1       	ldd	r21, Y+35	; 0x23
     cd8:	6c a1       	ldd	r22, Y+36	; 0x24
     cda:	7d a1       	ldd	r23, Y+37	; 0x25
     cdc:	c5 01       	movw	r24, r10
     cde:	89 2f       	mov	r24, r25
     ce0:	99 27       	eor	r25, r25
     ce2:	86 95       	lsr	r24
     ce4:	48 0f       	add	r20, r24
     ce6:	59 1f       	adc	r21, r25
     ce8:	61 1d       	adc	r22, r1
     cea:	71 1d       	adc	r23, r1
     cec:	ce 01       	movw	r24, r28
     cee:	20 dc       	rcall	.-1984   	; 0x530 <_ZL11move_windowP5FATFSm>
     cf0:	81 11       	cpse	r24, r1
     cf2:	7e c0       	rjmp	.+252    	; 0xdf0 <_Z7get_fatP5FATFSm+0x1a8>
     cf4:	81 e0       	ldi	r24, 0x01	; 1
     cf6:	b8 22       	and	r11, r24
     cf8:	ca 0d       	add	r28, r10
     cfa:	db 1d       	adc	r29, r11
     cfc:	6a a9       	ldd	r22, Y+50	; 0x32
     cfe:	70 e0       	ldi	r23, 0x00	; 0
     d00:	76 2f       	mov	r23, r22
     d02:	66 27       	eor	r22, r22
     d04:	60 2b       	or	r22, r16
     d06:	71 2b       	or	r23, r17
     d08:	c0 fe       	sbrs	r12, 0
     d0a:	09 c0       	rjmp	.+18     	; 0xd1e <_Z7get_fatP5FATFSm+0xd6>
     d0c:	72 95       	swap	r23
     d0e:	62 95       	swap	r22
     d10:	6f 70       	andi	r22, 0x0F	; 15
     d12:	67 27       	eor	r22, r23
     d14:	7f 70       	andi	r23, 0x0F	; 15
     d16:	67 27       	eor	r22, r23
     d18:	80 e0       	ldi	r24, 0x00	; 0
     d1a:	90 e0       	ldi	r25, 0x00	; 0
     d1c:	74 c0       	rjmp	.+232    	; 0xe06 <_Z7get_fatP5FATFSm+0x1be>
     d1e:	7f 70       	andi	r23, 0x0F	; 15
     d20:	80 e0       	ldi	r24, 0x00	; 0
     d22:	90 e0       	ldi	r25, 0x00	; 0
     d24:	70 c0       	rjmp	.+224    	; 0xe06 <_Z7get_fatP5FATFSm+0x1be>
     d26:	42 a1       	ldd	r20, Z+34	; 0x22
     d28:	53 a1       	ldd	r21, Z+35	; 0x23
     d2a:	64 a1       	ldd	r22, Z+36	; 0x24
     d2c:	75 a1       	ldd	r23, Z+37	; 0x25
     d2e:	bb 27       	eor	r27, r27
     d30:	af 2d       	mov	r26, r15
     d32:	9e 2d       	mov	r25, r14
     d34:	8d 2d       	mov	r24, r13
     d36:	48 0f       	add	r20, r24
     d38:	59 1f       	adc	r21, r25
     d3a:	6a 1f       	adc	r22, r26
     d3c:	7b 1f       	adc	r23, r27
     d3e:	cf 01       	movw	r24, r30
     d40:	f7 db       	rcall	.-2066   	; 0x530 <_ZL11move_windowP5FATFSm>
     d42:	81 11       	cpse	r24, r1
     d44:	59 c0       	rjmp	.+178    	; 0xdf8 <_Z7get_fatP5FATFSm+0x1b0>
     d46:	b7 01       	movw	r22, r14
     d48:	a6 01       	movw	r20, r12
     d4a:	44 0f       	add	r20, r20
     d4c:	55 1f       	adc	r21, r21
     d4e:	66 1f       	adc	r22, r22
     d50:	77 1f       	adc	r23, r23
     d52:	4e 7f       	andi	r20, 0xFE	; 254
     d54:	51 70       	andi	r21, 0x01	; 1
     d56:	66 27       	eor	r22, r22
     d58:	77 27       	eor	r23, r23
     d5a:	4e 5c       	subi	r20, 0xCE	; 206
     d5c:	5f 4f       	sbci	r21, 0xFF	; 255
     d5e:	c4 0f       	add	r28, r20
     d60:	d5 1f       	adc	r29, r21
     d62:	68 81       	ld	r22, Y
     d64:	79 81       	ldd	r23, Y+1	; 0x01
     d66:	80 e0       	ldi	r24, 0x00	; 0
     d68:	90 e0       	ldi	r25, 0x00	; 0
     d6a:	4d c0       	rjmp	.+154    	; 0xe06 <_Z7get_fatP5FATFSm+0x1be>
     d6c:	42 a1       	ldd	r20, Z+34	; 0x22
     d6e:	53 a1       	ldd	r21, Z+35	; 0x23
     d70:	64 a1       	ldd	r22, Z+36	; 0x24
     d72:	75 a1       	ldd	r23, Z+37	; 0x25
     d74:	d7 01       	movw	r26, r14
     d76:	c6 01       	movw	r24, r12
     d78:	68 94       	set
     d7a:	16 f8       	bld	r1, 6
     d7c:	b6 95       	lsr	r27
     d7e:	a7 95       	ror	r26
     d80:	97 95       	ror	r25
     d82:	87 95       	ror	r24
     d84:	16 94       	lsr	r1
     d86:	d1 f7       	brne	.-12     	; 0xd7c <_Z7get_fatP5FATFSm+0x134>
     d88:	48 0f       	add	r20, r24
     d8a:	59 1f       	adc	r21, r25
     d8c:	6a 1f       	adc	r22, r26
     d8e:	7b 1f       	adc	r23, r27
     d90:	cf 01       	movw	r24, r30
     d92:	ce db       	rcall	.-2148   	; 0x530 <_ZL11move_windowP5FATFSm>
     d94:	81 11       	cpse	r24, r1
     d96:	34 c0       	rjmp	.+104    	; 0xe00 <_Z7get_fatP5FATFSm+0x1b8>
     d98:	b7 01       	movw	r22, r14
     d9a:	a6 01       	movw	r20, r12
     d9c:	44 0f       	add	r20, r20
     d9e:	55 1f       	adc	r21, r21
     da0:	66 1f       	adc	r22, r22
     da2:	77 1f       	adc	r23, r23
     da4:	44 0f       	add	r20, r20
     da6:	55 1f       	adc	r21, r21
     da8:	66 1f       	adc	r22, r22
     daa:	77 1f       	adc	r23, r23
     dac:	4c 7f       	andi	r20, 0xFC	; 252
     dae:	51 70       	andi	r21, 0x01	; 1
     db0:	66 27       	eor	r22, r22
     db2:	77 27       	eor	r23, r23
     db4:	4e 5c       	subi	r20, 0xCE	; 206
     db6:	5f 4f       	sbci	r21, 0xFF	; 255
     db8:	c4 0f       	add	r28, r20
     dba:	d5 1f       	adc	r29, r21
     dbc:	88 81       	ld	r24, Y
     dbe:	99 81       	ldd	r25, Y+1	; 0x01
     dc0:	aa 81       	ldd	r26, Y+2	; 0x02
     dc2:	bb 81       	ldd	r27, Y+3	; 0x03
     dc4:	bc 01       	movw	r22, r24
     dc6:	cd 01       	movw	r24, r26
     dc8:	9f 70       	andi	r25, 0x0F	; 15
     dca:	1d c0       	rjmp	.+58     	; 0xe06 <_Z7get_fatP5FATFSm+0x1be>
     dcc:	61 e0       	ldi	r22, 0x01	; 1
     dce:	70 e0       	ldi	r23, 0x00	; 0
     dd0:	80 e0       	ldi	r24, 0x00	; 0
     dd2:	90 e0       	ldi	r25, 0x00	; 0
     dd4:	18 c0       	rjmp	.+48     	; 0xe06 <_Z7get_fatP5FATFSm+0x1be>
     dd6:	61 e0       	ldi	r22, 0x01	; 1
     dd8:	70 e0       	ldi	r23, 0x00	; 0
     dda:	80 e0       	ldi	r24, 0x00	; 0
     ddc:	90 e0       	ldi	r25, 0x00	; 0
     dde:	13 c0       	rjmp	.+38     	; 0xe06 <_Z7get_fatP5FATFSm+0x1be>
     de0:	6f ef       	ldi	r22, 0xFF	; 255
     de2:	7f ef       	ldi	r23, 0xFF	; 255
     de4:	cb 01       	movw	r24, r22
     de6:	0f c0       	rjmp	.+30     	; 0xe06 <_Z7get_fatP5FATFSm+0x1be>
     de8:	6f ef       	ldi	r22, 0xFF	; 255
     dea:	7f ef       	ldi	r23, 0xFF	; 255
     dec:	cb 01       	movw	r24, r22
     dee:	0b c0       	rjmp	.+22     	; 0xe06 <_Z7get_fatP5FATFSm+0x1be>
     df0:	6f ef       	ldi	r22, 0xFF	; 255
     df2:	7f ef       	ldi	r23, 0xFF	; 255
     df4:	cb 01       	movw	r24, r22
     df6:	07 c0       	rjmp	.+14     	; 0xe06 <_Z7get_fatP5FATFSm+0x1be>
     df8:	6f ef       	ldi	r22, 0xFF	; 255
     dfa:	7f ef       	ldi	r23, 0xFF	; 255
     dfc:	cb 01       	movw	r24, r22
     dfe:	03 c0       	rjmp	.+6      	; 0xe06 <_Z7get_fatP5FATFSm+0x1be>
     e00:	6f ef       	ldi	r22, 0xFF	; 255
     e02:	7f ef       	ldi	r23, 0xFF	; 255
     e04:	cb 01       	movw	r24, r22
     e06:	df 91       	pop	r29
     e08:	cf 91       	pop	r28
     e0a:	1f 91       	pop	r17
     e0c:	0f 91       	pop	r16
     e0e:	ff 90       	pop	r15
     e10:	ef 90       	pop	r14
     e12:	df 90       	pop	r13
     e14:	cf 90       	pop	r12
     e16:	bf 90       	pop	r11
     e18:	af 90       	pop	r10
     e1a:	08 95       	ret

00000e1c <_ZL7dir_sdiP3DIRt>:
     e1c:	ef 92       	push	r14
     e1e:	ff 92       	push	r15
     e20:	0f 93       	push	r16
     e22:	1f 93       	push	r17
     e24:	cf 93       	push	r28
     e26:	df 93       	push	r29
     e28:	ec 01       	movw	r28, r24
     e2a:	8b 01       	movw	r16, r22
     e2c:	7d 83       	std	Y+5, r23	; 0x05
     e2e:	6c 83       	std	Y+4, r22	; 0x04
     e30:	4e 81       	ldd	r20, Y+6	; 0x06
     e32:	5f 81       	ldd	r21, Y+7	; 0x07
     e34:	68 85       	ldd	r22, Y+8	; 0x08
     e36:	79 85       	ldd	r23, Y+9	; 0x09
     e38:	41 30       	cpi	r20, 0x01	; 1
     e3a:	51 05       	cpc	r21, r1
     e3c:	61 05       	cpc	r22, r1
     e3e:	71 05       	cpc	r23, r1
     e40:	09 f4       	brne	.+2      	; 0xe44 <_ZL7dir_sdiP3DIRt+0x28>
     e42:	91 c0       	rjmp	.+290    	; 0xf66 <_ZL7dir_sdiP3DIRt+0x14a>
     e44:	e8 81       	ld	r30, Y
     e46:	f9 81       	ldd	r31, Y+1	; 0x01
     e48:	86 89       	ldd	r24, Z+22	; 0x16
     e4a:	97 89       	ldd	r25, Z+23	; 0x17
     e4c:	a0 8d       	ldd	r26, Z+24	; 0x18
     e4e:	b1 8d       	ldd	r27, Z+25	; 0x19
     e50:	48 17       	cp	r20, r24
     e52:	59 07       	cpc	r21, r25
     e54:	6a 07       	cpc	r22, r26
     e56:	7b 07       	cpc	r23, r27
     e58:	08 f0       	brcs	.+2      	; 0xe5c <_ZL7dir_sdiP3DIRt+0x40>
     e5a:	87 c0       	rjmp	.+270    	; 0xf6a <_ZL7dir_sdiP3DIRt+0x14e>
     e5c:	41 15       	cp	r20, r1
     e5e:	51 05       	cpc	r21, r1
     e60:	61 05       	cpc	r22, r1
     e62:	71 05       	cpc	r23, r1
     e64:	39 f4       	brne	.+14     	; 0xe74 <_ZL7dir_sdiP3DIRt+0x58>
     e66:	80 81       	ld	r24, Z
     e68:	83 30       	cpi	r24, 0x03	; 3
     e6a:	21 f4       	brne	.+8      	; 0xe74 <_ZL7dir_sdiP3DIRt+0x58>
     e6c:	46 a1       	ldd	r20, Z+38	; 0x26
     e6e:	57 a1       	ldd	r21, Z+39	; 0x27
     e70:	60 a5       	ldd	r22, Z+40	; 0x28
     e72:	71 a5       	ldd	r23, Z+41	; 0x29
     e74:	41 15       	cp	r20, r1
     e76:	51 05       	cpc	r21, r1
     e78:	61 05       	cpc	r22, r1
     e7a:	71 05       	cpc	r23, r1
     e7c:	f1 f4       	brne	.+60     	; 0xeba <_ZL7dir_sdiP3DIRt+0x9e>
     e7e:	4a 87       	std	Y+10, r20	; 0x0a
     e80:	5b 87       	std	Y+11, r21	; 0x0b
     e82:	6c 87       	std	Y+12, r22	; 0x0c
     e84:	7d 87       	std	Y+13, r23	; 0x0d
     e86:	80 85       	ldd	r24, Z+8	; 0x08
     e88:	91 85       	ldd	r25, Z+9	; 0x09
     e8a:	08 17       	cp	r16, r24
     e8c:	19 07       	cpc	r17, r25
     e8e:	08 f0       	brcs	.+2      	; 0xe92 <_ZL7dir_sdiP3DIRt+0x76>
     e90:	6e c0       	rjmp	.+220    	; 0xf6e <_ZL7dir_sdiP3DIRt+0x152>
     e92:	86 a1       	ldd	r24, Z+38	; 0x26
     e94:	97 a1       	ldd	r25, Z+39	; 0x27
     e96:	a0 a5       	ldd	r26, Z+40	; 0x28
     e98:	b1 a5       	ldd	r27, Z+41	; 0x29
     e9a:	98 01       	movw	r18, r16
     e9c:	32 95       	swap	r19
     e9e:	22 95       	swap	r18
     ea0:	2f 70       	andi	r18, 0x0F	; 15
     ea2:	23 27       	eor	r18, r19
     ea4:	3f 70       	andi	r19, 0x0F	; 15
     ea6:	23 27       	eor	r18, r19
     ea8:	82 0f       	add	r24, r18
     eaa:	93 1f       	adc	r25, r19
     eac:	a1 1d       	adc	r26, r1
     eae:	b1 1d       	adc	r27, r1
     eb0:	8e 87       	std	Y+14, r24	; 0x0e
     eb2:	9f 87       	std	Y+15, r25	; 0x0f
     eb4:	a8 8b       	std	Y+16, r26	; 0x10
     eb6:	b9 8b       	std	Y+17, r27	; 0x11
     eb8:	40 c0       	rjmp	.+128    	; 0xf3a <_ZL7dir_sdiP3DIRt+0x11e>
     eba:	e2 80       	ldd	r14, Z+2	; 0x02
     ebc:	80 e1       	ldi	r24, 0x10	; 16
     ebe:	e8 9e       	mul	r14, r24
     ec0:	70 01       	movw	r14, r0
     ec2:	11 24       	eor	r1, r1
     ec4:	0e 15       	cp	r16, r14
     ec6:	1f 05       	cpc	r17, r15
     ec8:	00 f1       	brcs	.+64     	; 0xf0a <_ZL7dir_sdiP3DIRt+0xee>
     eca:	88 81       	ld	r24, Y
     ecc:	99 81       	ldd	r25, Y+1	; 0x01
     ece:	bc de       	rcall	.-648    	; 0xc48 <_Z7get_fatP5FATFSm>
     ed0:	ab 01       	movw	r20, r22
     ed2:	bc 01       	movw	r22, r24
     ed4:	4f 3f       	cpi	r20, 0xFF	; 255
     ed6:	8f ef       	ldi	r24, 0xFF	; 255
     ed8:	58 07       	cpc	r21, r24
     eda:	68 07       	cpc	r22, r24
     edc:	78 07       	cpc	r23, r24
     ede:	09 f4       	brne	.+2      	; 0xee2 <_ZL7dir_sdiP3DIRt+0xc6>
     ee0:	48 c0       	rjmp	.+144    	; 0xf72 <_ZL7dir_sdiP3DIRt+0x156>
     ee2:	42 30       	cpi	r20, 0x02	; 2
     ee4:	51 05       	cpc	r21, r1
     ee6:	61 05       	cpc	r22, r1
     ee8:	71 05       	cpc	r23, r1
     eea:	08 f4       	brcc	.+2      	; 0xeee <_ZL7dir_sdiP3DIRt+0xd2>
     eec:	44 c0       	rjmp	.+136    	; 0xf76 <_ZL7dir_sdiP3DIRt+0x15a>
     eee:	e8 81       	ld	r30, Y
     ef0:	f9 81       	ldd	r31, Y+1	; 0x01
     ef2:	86 89       	ldd	r24, Z+22	; 0x16
     ef4:	97 89       	ldd	r25, Z+23	; 0x17
     ef6:	a0 8d       	ldd	r26, Z+24	; 0x18
     ef8:	b1 8d       	ldd	r27, Z+25	; 0x19
     efa:	48 17       	cp	r20, r24
     efc:	59 07       	cpc	r21, r25
     efe:	6a 07       	cpc	r22, r26
     f00:	7b 07       	cpc	r23, r27
     f02:	d8 f5       	brcc	.+118    	; 0xf7a <_ZL7dir_sdiP3DIRt+0x15e>
     f04:	0e 19       	sub	r16, r14
     f06:	1f 09       	sbc	r17, r15
     f08:	dd cf       	rjmp	.-70     	; 0xec4 <_ZL7dir_sdiP3DIRt+0xa8>
     f0a:	4a 87       	std	Y+10, r20	; 0x0a
     f0c:	5b 87       	std	Y+11, r21	; 0x0b
     f0e:	6c 87       	std	Y+12, r22	; 0x0c
     f10:	7d 87       	std	Y+13, r23	; 0x0d
     f12:	88 81       	ld	r24, Y
     f14:	99 81       	ldd	r25, Y+1	; 0x01
     f16:	70 de       	rcall	.-800    	; 0xbf8 <_Z10clust2sectP5FATFSm>
     f18:	98 01       	movw	r18, r16
     f1a:	32 95       	swap	r19
     f1c:	22 95       	swap	r18
     f1e:	2f 70       	andi	r18, 0x0F	; 15
     f20:	23 27       	eor	r18, r19
     f22:	3f 70       	andi	r19, 0x0F	; 15
     f24:	23 27       	eor	r18, r19
     f26:	dc 01       	movw	r26, r24
     f28:	cb 01       	movw	r24, r22
     f2a:	82 0f       	add	r24, r18
     f2c:	93 1f       	adc	r25, r19
     f2e:	a1 1d       	adc	r26, r1
     f30:	b1 1d       	adc	r27, r1
     f32:	8e 87       	std	Y+14, r24	; 0x0e
     f34:	9f 87       	std	Y+15, r25	; 0x0f
     f36:	a8 8b       	std	Y+16, r26	; 0x10
     f38:	b9 8b       	std	Y+17, r27	; 0x11
     f3a:	28 81       	ld	r18, Y
     f3c:	39 81       	ldd	r19, Y+1	; 0x01
     f3e:	0f 70       	andi	r16, 0x0F	; 15
     f40:	11 27       	eor	r17, r17
     f42:	c8 01       	movw	r24, r16
     f44:	88 0f       	add	r24, r24
     f46:	99 1f       	adc	r25, r25
     f48:	82 95       	swap	r24
     f4a:	92 95       	swap	r25
     f4c:	90 7f       	andi	r25, 0xF0	; 240
     f4e:	98 27       	eor	r25, r24
     f50:	80 7f       	andi	r24, 0xF0	; 240
     f52:	98 27       	eor	r25, r24
     f54:	89 01       	movw	r16, r18
     f56:	0e 5c       	subi	r16, 0xCE	; 206
     f58:	1f 4f       	sbci	r17, 0xFF	; 255
     f5a:	08 0f       	add	r16, r24
     f5c:	19 1f       	adc	r17, r25
     f5e:	1b 8b       	std	Y+19, r17	; 0x13
     f60:	0a 8b       	std	Y+18, r16	; 0x12
     f62:	80 e0       	ldi	r24, 0x00	; 0
     f64:	0b c0       	rjmp	.+22     	; 0xf7c <_ZL7dir_sdiP3DIRt+0x160>
     f66:	82 e0       	ldi	r24, 0x02	; 2
     f68:	09 c0       	rjmp	.+18     	; 0xf7c <_ZL7dir_sdiP3DIRt+0x160>
     f6a:	82 e0       	ldi	r24, 0x02	; 2
     f6c:	07 c0       	rjmp	.+14     	; 0xf7c <_ZL7dir_sdiP3DIRt+0x160>
     f6e:	82 e0       	ldi	r24, 0x02	; 2
     f70:	05 c0       	rjmp	.+10     	; 0xf7c <_ZL7dir_sdiP3DIRt+0x160>
     f72:	81 e0       	ldi	r24, 0x01	; 1
     f74:	03 c0       	rjmp	.+6      	; 0xf7c <_ZL7dir_sdiP3DIRt+0x160>
     f76:	82 e0       	ldi	r24, 0x02	; 2
     f78:	01 c0       	rjmp	.+2      	; 0xf7c <_ZL7dir_sdiP3DIRt+0x160>
     f7a:	82 e0       	ldi	r24, 0x02	; 2
     f7c:	df 91       	pop	r29
     f7e:	cf 91       	pop	r28
     f80:	1f 91       	pop	r17
     f82:	0f 91       	pop	r16
     f84:	ff 90       	pop	r15
     f86:	ef 90       	pop	r14
     f88:	08 95       	ret

00000f8a <_Z7put_fatP5FATFSmm>:
     f8a:	4f 92       	push	r4
     f8c:	5f 92       	push	r5
     f8e:	6f 92       	push	r6
     f90:	7f 92       	push	r7
     f92:	af 92       	push	r10
     f94:	bf 92       	push	r11
     f96:	cf 92       	push	r12
     f98:	df 92       	push	r13
     f9a:	ef 92       	push	r14
     f9c:	ff 92       	push	r15
     f9e:	0f 93       	push	r16
     fa0:	1f 93       	push	r17
     fa2:	cf 93       	push	r28
     fa4:	df 93       	push	r29
     fa6:	00 d0       	rcall	.+0      	; 0xfa8 <_Z7put_fatP5FATFSmm+0x1e>
     fa8:	00 d0       	rcall	.+0      	; 0xfaa <_Z7put_fatP5FATFSmm+0x20>
     faa:	00 d0       	rcall	.+0      	; 0xfac <_Z7put_fatP5FATFSmm+0x22>
     fac:	cd b7       	in	r28, 0x3d	; 61
     fae:	de b7       	in	r29, 0x3e	; 62
     fb0:	42 30       	cpi	r20, 0x02	; 2
     fb2:	51 05       	cpc	r21, r1
     fb4:	61 05       	cpc	r22, r1
     fb6:	71 05       	cpc	r23, r1
     fb8:	08 f4       	brcc	.+2      	; 0xfbc <_Z7put_fatP5FATFSmm+0x32>
     fba:	f4 c0       	rjmp	.+488    	; 0x11a4 <__EEPROM_REGION_LENGTH__+0x1a4>
     fbc:	fc 01       	movw	r30, r24
     fbe:	c6 88       	ldd	r12, Z+22	; 0x16
     fc0:	d7 88       	ldd	r13, Z+23	; 0x17
     fc2:	e0 8c       	ldd	r14, Z+24	; 0x18
     fc4:	f1 8c       	ldd	r15, Z+25	; 0x19
     fc6:	4c 15       	cp	r20, r12
     fc8:	5d 05       	cpc	r21, r13
     fca:	6e 05       	cpc	r22, r14
     fcc:	7f 05       	cpc	r23, r15
     fce:	08 f0       	brcs	.+2      	; 0xfd2 <_Z7put_fatP5FATFSmm+0x48>
     fd0:	eb c0       	rjmp	.+470    	; 0x11a8 <__EEPROM_REGION_LENGTH__+0x1a8>
     fd2:	28 01       	movw	r4, r16
     fd4:	39 01       	movw	r6, r18
     fd6:	6a 01       	movw	r12, r20
     fd8:	7b 01       	movw	r14, r22
     fda:	9e 83       	std	Y+6, r25	; 0x06
     fdc:	8d 83       	std	Y+5, r24	; 0x05
     fde:	80 81       	ld	r24, Z
     fe0:	82 30       	cpi	r24, 0x02	; 2
     fe2:	09 f4       	brne	.+2      	; 0xfe6 <_Z7put_fatP5FATFSmm+0x5c>
     fe4:	75 c0       	rjmp	.+234    	; 0x10d0 <__EEPROM_REGION_LENGTH__+0xd0>
     fe6:	83 30       	cpi	r24, 0x03	; 3
     fe8:	09 f4       	brne	.+2      	; 0xfec <_Z7put_fatP5FATFSmm+0x62>
     fea:	98 c0       	rjmp	.+304    	; 0x111c <__EEPROM_REGION_LENGTH__+0x11c>
     fec:	81 30       	cpi	r24, 0x01	; 1
     fee:	09 f0       	breq	.+2      	; 0xff2 <_Z7put_fatP5FATFSmm+0x68>
     ff0:	d3 c0       	rjmp	.+422    	; 0x1198 <__EEPROM_REGION_LENGTH__+0x198>
     ff2:	5a 01       	movw	r10, r20
     ff4:	b6 94       	lsr	r11
     ff6:	a7 94       	ror	r10
     ff8:	a4 0e       	add	r10, r20
     ffa:	b5 1e       	adc	r11, r21
     ffc:	42 a1       	ldd	r20, Z+34	; 0x22
     ffe:	53 a1       	ldd	r21, Z+35	; 0x23
    1000:	64 a1       	ldd	r22, Z+36	; 0x24
    1002:	75 a1       	ldd	r23, Z+37	; 0x25
    1004:	c5 01       	movw	r24, r10
    1006:	89 2f       	mov	r24, r25
    1008:	99 27       	eor	r25, r25
    100a:	86 95       	lsr	r24
    100c:	48 0f       	add	r20, r24
    100e:	59 1f       	adc	r21, r25
    1010:	61 1d       	adc	r22, r1
    1012:	71 1d       	adc	r23, r1
    1014:	cf 01       	movw	r24, r30
    1016:	8c da       	rcall	.-2792   	; 0x530 <_ZL11move_windowP5FATFSm>
    1018:	81 11       	cpse	r24, r1
    101a:	bf c0       	rjmp	.+382    	; 0x119a <__EEPROM_REGION_LENGTH__+0x19a>
    101c:	c5 01       	movw	r24, r10
    101e:	91 70       	andi	r25, 0x01	; 1
    1020:	a7 01       	movw	r20, r14
    1022:	96 01       	movw	r18, r12
    1024:	21 70       	andi	r18, 0x01	; 1
    1026:	33 27       	eor	r19, r19
    1028:	44 27       	eor	r20, r20
    102a:	55 27       	eor	r21, r21
    102c:	29 83       	std	Y+1, r18	; 0x01
    102e:	3a 83       	std	Y+2, r19	; 0x02
    1030:	4b 83       	std	Y+3, r20	; 0x03
    1032:	5c 83       	std	Y+4, r21	; 0x04
    1034:	c0 fe       	sbrs	r12, 0
    1036:	0c c0       	rjmp	.+24     	; 0x1050 <__EEPROM_REGION_LENGTH__+0x50>
    1038:	40 e1       	ldi	r20, 0x10	; 16
    103a:	44 9e       	mul	r4, r20
    103c:	90 01       	movw	r18, r0
    103e:	11 24       	eor	r1, r1
    1040:	ed 81       	ldd	r30, Y+5	; 0x05
    1042:	fe 81       	ldd	r31, Y+6	; 0x06
    1044:	e8 0f       	add	r30, r24
    1046:	f9 1f       	adc	r31, r25
    1048:	42 a9       	ldd	r20, Z+50	; 0x32
    104a:	4f 70       	andi	r20, 0x0F	; 15
    104c:	24 2b       	or	r18, r20
    104e:	01 c0       	rjmp	.+2      	; 0x1052 <__EEPROM_REGION_LENGTH__+0x52>
    1050:	24 2d       	mov	r18, r4
    1052:	ed 81       	ldd	r30, Y+5	; 0x05
    1054:	fe 81       	ldd	r31, Y+6	; 0x06
    1056:	e8 0f       	add	r30, r24
    1058:	f9 1f       	adc	r31, r25
    105a:	22 ab       	std	Z+50, r18	; 0x32
    105c:	5f ef       	ldi	r21, 0xFF	; 255
    105e:	a5 1a       	sub	r10, r21
    1060:	b5 0a       	sbc	r11, r21
    1062:	81 e0       	ldi	r24, 0x01	; 1
    1064:	ed 81       	ldd	r30, Y+5	; 0x05
    1066:	fe 81       	ldd	r31, Y+6	; 0x06
    1068:	84 83       	std	Z+4, r24	; 0x04
    106a:	42 a1       	ldd	r20, Z+34	; 0x22
    106c:	53 a1       	ldd	r21, Z+35	; 0x23
    106e:	64 a1       	ldd	r22, Z+36	; 0x24
    1070:	75 a1       	ldd	r23, Z+37	; 0x25
    1072:	c5 01       	movw	r24, r10
    1074:	89 2f       	mov	r24, r25
    1076:	99 27       	eor	r25, r25
    1078:	86 95       	lsr	r24
    107a:	48 0f       	add	r20, r24
    107c:	59 1f       	adc	r21, r25
    107e:	61 1d       	adc	r22, r1
    1080:	71 1d       	adc	r23, r1
    1082:	cf 01       	movw	r24, r30
    1084:	55 da       	rcall	.-2902   	; 0x530 <_ZL11move_windowP5FATFSm>
    1086:	81 11       	cpse	r24, r1
    1088:	88 c0       	rjmp	.+272    	; 0x119a <__EEPROM_REGION_LENGTH__+0x19a>
    108a:	f1 e0       	ldi	r31, 0x01	; 1
    108c:	bf 22       	and	r11, r31
    108e:	29 81       	ldd	r18, Y+1	; 0x01
    1090:	3a 81       	ldd	r19, Y+2	; 0x02
    1092:	4b 81       	ldd	r20, Y+3	; 0x03
    1094:	5c 81       	ldd	r21, Y+4	; 0x04
    1096:	23 2b       	or	r18, r19
    1098:	24 2b       	or	r18, r20
    109a:	25 2b       	or	r18, r21
    109c:	49 f0       	breq	.+18     	; 0x10b0 <__EEPROM_REGION_LENGTH__+0xb0>
    109e:	68 94       	set
    10a0:	13 f8       	bld	r1, 3
    10a2:	76 94       	lsr	r7
    10a4:	67 94       	ror	r6
    10a6:	57 94       	ror	r5
    10a8:	47 94       	ror	r4
    10aa:	16 94       	lsr	r1
    10ac:	d1 f7       	brne	.-12     	; 0x10a2 <__EEPROM_REGION_LENGTH__+0xa2>
    10ae:	0a c0       	rjmp	.+20     	; 0x10c4 <__EEPROM_REGION_LENGTH__+0xc4>
    10b0:	ed 81       	ldd	r30, Y+5	; 0x05
    10b2:	fe 81       	ldd	r31, Y+6	; 0x06
    10b4:	ea 0d       	add	r30, r10
    10b6:	fb 1d       	adc	r31, r11
    10b8:	22 a9       	ldd	r18, Z+50	; 0x32
    10ba:	20 7f       	andi	r18, 0xF0	; 240
    10bc:	95 2d       	mov	r25, r5
    10be:	9f 70       	andi	r25, 0x0F	; 15
    10c0:	42 2e       	mov	r4, r18
    10c2:	49 2a       	or	r4, r25
    10c4:	ed 81       	ldd	r30, Y+5	; 0x05
    10c6:	fe 81       	ldd	r31, Y+6	; 0x06
    10c8:	ea 0d       	add	r30, r10
    10ca:	fb 1d       	adc	r31, r11
    10cc:	42 aa       	std	Z+50, r4	; 0x32
    10ce:	65 c0       	rjmp	.+202    	; 0x119a <__EEPROM_REGION_LENGTH__+0x19a>
    10d0:	ed 81       	ldd	r30, Y+5	; 0x05
    10d2:	fe 81       	ldd	r31, Y+6	; 0x06
    10d4:	42 a1       	ldd	r20, Z+34	; 0x22
    10d6:	53 a1       	ldd	r21, Z+35	; 0x23
    10d8:	64 a1       	ldd	r22, Z+36	; 0x24
    10da:	75 a1       	ldd	r23, Z+37	; 0x25
    10dc:	bb 27       	eor	r27, r27
    10de:	af 2d       	mov	r26, r15
    10e0:	9e 2d       	mov	r25, r14
    10e2:	8d 2d       	mov	r24, r13
    10e4:	48 0f       	add	r20, r24
    10e6:	59 1f       	adc	r21, r25
    10e8:	6a 1f       	adc	r22, r26
    10ea:	7b 1f       	adc	r23, r27
    10ec:	cf 01       	movw	r24, r30
    10ee:	20 da       	rcall	.-3008   	; 0x530 <_ZL11move_windowP5FATFSm>
    10f0:	81 11       	cpse	r24, r1
    10f2:	53 c0       	rjmp	.+166    	; 0x119a <__EEPROM_REGION_LENGTH__+0x19a>
    10f4:	cc 0c       	add	r12, r12
    10f6:	dd 1c       	adc	r13, r13
    10f8:	ee 1c       	adc	r14, r14
    10fa:	ff 1c       	adc	r15, r15
    10fc:	e8 94       	clt
    10fe:	c0 f8       	bld	r12, 0
    1100:	f1 e0       	ldi	r31, 0x01	; 1
    1102:	df 22       	and	r13, r31
    1104:	ee 24       	eor	r14, r14
    1106:	ff 24       	eor	r15, r15
    1108:	22 e3       	ldi	r18, 0x32	; 50
    110a:	c2 0e       	add	r12, r18
    110c:	d1 1c       	adc	r13, r1
    110e:	ed 81       	ldd	r30, Y+5	; 0x05
    1110:	fe 81       	ldd	r31, Y+6	; 0x06
    1112:	ec 0d       	add	r30, r12
    1114:	fd 1d       	adc	r31, r13
    1116:	51 82       	std	Z+1, r5	; 0x01
    1118:	40 82       	st	Z, r4
    111a:	3f c0       	rjmp	.+126    	; 0x119a <__EEPROM_REGION_LENGTH__+0x19a>
    111c:	ed 81       	ldd	r30, Y+5	; 0x05
    111e:	fe 81       	ldd	r31, Y+6	; 0x06
    1120:	42 a1       	ldd	r20, Z+34	; 0x22
    1122:	53 a1       	ldd	r21, Z+35	; 0x23
    1124:	64 a1       	ldd	r22, Z+36	; 0x24
    1126:	75 a1       	ldd	r23, Z+37	; 0x25
    1128:	d7 01       	movw	r26, r14
    112a:	c6 01       	movw	r24, r12
    112c:	68 94       	set
    112e:	16 f8       	bld	r1, 6
    1130:	b6 95       	lsr	r27
    1132:	a7 95       	ror	r26
    1134:	97 95       	ror	r25
    1136:	87 95       	ror	r24
    1138:	16 94       	lsr	r1
    113a:	d1 f7       	brne	.-12     	; 0x1130 <__EEPROM_REGION_LENGTH__+0x130>
    113c:	48 0f       	add	r20, r24
    113e:	59 1f       	adc	r21, r25
    1140:	6a 1f       	adc	r22, r26
    1142:	7b 1f       	adc	r23, r27
    1144:	cf 01       	movw	r24, r30
    1146:	f4 d9       	rcall	.-3096   	; 0x530 <_ZL11move_windowP5FATFSm>
    1148:	81 11       	cpse	r24, r1
    114a:	27 c0       	rjmp	.+78     	; 0x119a <__EEPROM_REGION_LENGTH__+0x19a>
    114c:	cc 0c       	add	r12, r12
    114e:	dd 1c       	adc	r13, r13
    1150:	ee 1c       	adc	r14, r14
    1152:	ff 1c       	adc	r15, r15
    1154:	cc 0c       	add	r12, r12
    1156:	dd 1c       	adc	r13, r13
    1158:	ee 1c       	adc	r14, r14
    115a:	ff 1c       	adc	r15, r15
    115c:	fc ef       	ldi	r31, 0xFC	; 252
    115e:	cf 22       	and	r12, r31
    1160:	f1 e0       	ldi	r31, 0x01	; 1
    1162:	df 22       	and	r13, r31
    1164:	ee 24       	eor	r14, r14
    1166:	ff 24       	eor	r15, r15
    1168:	22 e3       	ldi	r18, 0x32	; 50
    116a:	c2 0e       	add	r12, r18
    116c:	d1 1c       	adc	r13, r1
    116e:	ed 81       	ldd	r30, Y+5	; 0x05
    1170:	fe 81       	ldd	r31, Y+6	; 0x06
    1172:	ec 0d       	add	r30, r12
    1174:	fd 1d       	adc	r31, r13
    1176:	00 81       	ld	r16, Z
    1178:	11 81       	ldd	r17, Z+1	; 0x01
    117a:	22 81       	ldd	r18, Z+2	; 0x02
    117c:	33 81       	ldd	r19, Z+3	; 0x03
    117e:	00 27       	eor	r16, r16
    1180:	11 27       	eor	r17, r17
    1182:	22 27       	eor	r18, r18
    1184:	30 7f       	andi	r19, 0xF0	; 240
    1186:	40 2a       	or	r4, r16
    1188:	51 2a       	or	r5, r17
    118a:	62 2a       	or	r6, r18
    118c:	73 2a       	or	r7, r19
    118e:	40 82       	st	Z, r4
    1190:	51 82       	std	Z+1, r5	; 0x01
    1192:	62 82       	std	Z+2, r6	; 0x02
    1194:	73 82       	std	Z+3, r7	; 0x03
    1196:	01 c0       	rjmp	.+2      	; 0x119a <__EEPROM_REGION_LENGTH__+0x19a>
    1198:	82 e0       	ldi	r24, 0x02	; 2
    119a:	91 e0       	ldi	r25, 0x01	; 1
    119c:	ed 81       	ldd	r30, Y+5	; 0x05
    119e:	fe 81       	ldd	r31, Y+6	; 0x06
    11a0:	94 83       	std	Z+4, r25	; 0x04
    11a2:	03 c0       	rjmp	.+6      	; 0x11aa <__EEPROM_REGION_LENGTH__+0x1aa>
    11a4:	82 e0       	ldi	r24, 0x02	; 2
    11a6:	01 c0       	rjmp	.+2      	; 0x11aa <__EEPROM_REGION_LENGTH__+0x1aa>
    11a8:	82 e0       	ldi	r24, 0x02	; 2
    11aa:	26 96       	adiw	r28, 0x06	; 6
    11ac:	0f b6       	in	r0, 0x3f	; 63
    11ae:	f8 94       	cli
    11b0:	de bf       	out	0x3e, r29	; 62
    11b2:	0f be       	out	0x3f, r0	; 63
    11b4:	cd bf       	out	0x3d, r28	; 61
    11b6:	df 91       	pop	r29
    11b8:	cf 91       	pop	r28
    11ba:	1f 91       	pop	r17
    11bc:	0f 91       	pop	r16
    11be:	ff 90       	pop	r15
    11c0:	ef 90       	pop	r14
    11c2:	df 90       	pop	r13
    11c4:	cf 90       	pop	r12
    11c6:	bf 90       	pop	r11
    11c8:	af 90       	pop	r10
    11ca:	7f 90       	pop	r7
    11cc:	6f 90       	pop	r6
    11ce:	5f 90       	pop	r5
    11d0:	4f 90       	pop	r4
    11d2:	08 95       	ret

000011d4 <_ZL12create_chainP5FATFSm>:
    11d4:	4f 92       	push	r4
    11d6:	5f 92       	push	r5
    11d8:	6f 92       	push	r6
    11da:	7f 92       	push	r7
    11dc:	8f 92       	push	r8
    11de:	9f 92       	push	r9
    11e0:	af 92       	push	r10
    11e2:	bf 92       	push	r11
    11e4:	cf 92       	push	r12
    11e6:	df 92       	push	r13
    11e8:	ef 92       	push	r14
    11ea:	ff 92       	push	r15
    11ec:	0f 93       	push	r16
    11ee:	1f 93       	push	r17
    11f0:	cf 93       	push	r28
    11f2:	df 93       	push	r29
    11f4:	ec 01       	movw	r28, r24
    11f6:	2a 01       	movw	r4, r20
    11f8:	3b 01       	movw	r6, r22
    11fa:	41 15       	cp	r20, r1
    11fc:	51 05       	cpc	r21, r1
    11fe:	61 05       	cpc	r22, r1
    1200:	71 05       	cpc	r23, r1
    1202:	99 f4       	brne	.+38     	; 0x122a <_ZL12create_chainP5FATFSm+0x56>
    1204:	8a 84       	ldd	r8, Y+10	; 0x0a
    1206:	9b 84       	ldd	r9, Y+11	; 0x0b
    1208:	ac 84       	ldd	r10, Y+12	; 0x0c
    120a:	bd 84       	ldd	r11, Y+13	; 0x0d
    120c:	81 14       	cp	r8, r1
    120e:	91 04       	cpc	r9, r1
    1210:	a1 04       	cpc	r10, r1
    1212:	b1 04       	cpc	r11, r1
    1214:	f1 f0       	breq	.+60     	; 0x1252 <_ZL12create_chainP5FATFSm+0x7e>
    1216:	8e 89       	ldd	r24, Y+22	; 0x16
    1218:	9f 89       	ldd	r25, Y+23	; 0x17
    121a:	a8 8d       	ldd	r26, Y+24	; 0x18
    121c:	b9 8d       	ldd	r27, Y+25	; 0x19
    121e:	88 16       	cp	r8, r24
    1220:	99 06       	cpc	r9, r25
    1222:	aa 06       	cpc	r10, r26
    1224:	bb 06       	cpc	r11, r27
    1226:	d0 f4       	brcc	.+52     	; 0x125c <_ZL12create_chainP5FATFSm+0x88>
    1228:	1d c0       	rjmp	.+58     	; 0x1264 <_ZL12create_chainP5FATFSm+0x90>
    122a:	0e dd       	rcall	.-1508   	; 0xc48 <_Z7get_fatP5FATFSm>
    122c:	62 30       	cpi	r22, 0x02	; 2
    122e:	71 05       	cpc	r23, r1
    1230:	81 05       	cpc	r24, r1
    1232:	91 05       	cpc	r25, r1
    1234:	08 f4       	brcc	.+2      	; 0x1238 <_ZL12create_chainP5FATFSm+0x64>
    1236:	88 c0       	rjmp	.+272    	; 0x1348 <_ZL12create_chainP5FATFSm+0x174>
    1238:	ce 88       	ldd	r12, Y+22	; 0x16
    123a:	df 88       	ldd	r13, Y+23	; 0x17
    123c:	e8 8c       	ldd	r14, Y+24	; 0x18
    123e:	f9 8c       	ldd	r15, Y+25	; 0x19
    1240:	6c 15       	cp	r22, r12
    1242:	7d 05       	cpc	r23, r13
    1244:	8e 05       	cpc	r24, r14
    1246:	9f 05       	cpc	r25, r15
    1248:	08 f4       	brcc	.+2      	; 0x124c <_ZL12create_chainP5FATFSm+0x78>
    124a:	83 c0       	rjmp	.+262    	; 0x1352 <_ZL12create_chainP5FATFSm+0x17e>
    124c:	53 01       	movw	r10, r6
    124e:	42 01       	movw	r8, r4
    1250:	09 c0       	rjmp	.+18     	; 0x1264 <_ZL12create_chainP5FATFSm+0x90>
    1252:	81 2c       	mov	r8, r1
    1254:	91 2c       	mov	r9, r1
    1256:	54 01       	movw	r10, r8
    1258:	83 94       	inc	r8
    125a:	04 c0       	rjmp	.+8      	; 0x1264 <_ZL12create_chainP5FATFSm+0x90>
    125c:	81 2c       	mov	r8, r1
    125e:	91 2c       	mov	r9, r1
    1260:	54 01       	movw	r10, r8
    1262:	83 94       	inc	r8
    1264:	75 01       	movw	r14, r10
    1266:	64 01       	movw	r12, r8
    1268:	2f ef       	ldi	r18, 0xFF	; 255
    126a:	c2 1a       	sub	r12, r18
    126c:	d2 0a       	sbc	r13, r18
    126e:	e2 0a       	sbc	r14, r18
    1270:	f2 0a       	sbc	r15, r18
    1272:	8e 89       	ldd	r24, Y+22	; 0x16
    1274:	9f 89       	ldd	r25, Y+23	; 0x17
    1276:	a8 8d       	ldd	r26, Y+24	; 0x18
    1278:	b9 8d       	ldd	r27, Y+25	; 0x19
    127a:	c8 16       	cp	r12, r24
    127c:	d9 06       	cpc	r13, r25
    127e:	ea 06       	cpc	r14, r26
    1280:	fb 06       	cpc	r15, r27
    1282:	60 f0       	brcs	.+24     	; 0x129c <_ZL12create_chainP5FATFSm+0xc8>
    1284:	82 e0       	ldi	r24, 0x02	; 2
    1286:	88 16       	cp	r8, r24
    1288:	91 04       	cpc	r9, r1
    128a:	a1 04       	cpc	r10, r1
    128c:	b1 04       	cpc	r11, r1
    128e:	08 f4       	brcc	.+2      	; 0x1292 <_ZL12create_chainP5FATFSm+0xbe>
    1290:	64 c0       	rjmp	.+200    	; 0x135a <_ZL12create_chainP5FATFSm+0x186>
    1292:	c1 2c       	mov	r12, r1
    1294:	d1 2c       	mov	r13, r1
    1296:	76 01       	movw	r14, r12
    1298:	68 94       	set
    129a:	c1 f8       	bld	r12, 1
    129c:	b7 01       	movw	r22, r14
    129e:	a6 01       	movw	r20, r12
    12a0:	ce 01       	movw	r24, r28
    12a2:	d2 dc       	rcall	.-1628   	; 0xc48 <_Z7get_fatP5FATFSm>
    12a4:	61 15       	cp	r22, r1
    12a6:	71 05       	cpc	r23, r1
    12a8:	81 05       	cpc	r24, r1
    12aa:	91 05       	cpc	r25, r1
    12ac:	99 f0       	breq	.+38     	; 0x12d4 <_ZL12create_chainP5FATFSm+0x100>
    12ae:	6f 3f       	cpi	r22, 0xFF	; 255
    12b0:	2f ef       	ldi	r18, 0xFF	; 255
    12b2:	72 07       	cpc	r23, r18
    12b4:	82 07       	cpc	r24, r18
    12b6:	92 07       	cpc	r25, r18
    12b8:	09 f4       	brne	.+2      	; 0x12bc <_ZL12create_chainP5FATFSm+0xe8>
    12ba:	54 c0       	rjmp	.+168    	; 0x1364 <_ZL12create_chainP5FATFSm+0x190>
    12bc:	61 30       	cpi	r22, 0x01	; 1
    12be:	71 05       	cpc	r23, r1
    12c0:	81 05       	cpc	r24, r1
    12c2:	91 05       	cpc	r25, r1
    12c4:	09 f4       	brne	.+2      	; 0x12c8 <_ZL12create_chainP5FATFSm+0xf4>
    12c6:	52 c0       	rjmp	.+164    	; 0x136c <_ZL12create_chainP5FATFSm+0x198>
    12c8:	c8 14       	cp	r12, r8
    12ca:	d9 04       	cpc	r13, r9
    12cc:	ea 04       	cpc	r14, r10
    12ce:	fb 04       	cpc	r15, r11
    12d0:	59 f6       	brne	.-106    	; 0x1268 <_ZL12create_chainP5FATFSm+0x94>
    12d2:	50 c0       	rjmp	.+160    	; 0x1374 <_ZL12create_chainP5FATFSm+0x1a0>
    12d4:	0f ef       	ldi	r16, 0xFF	; 255
    12d6:	1f ef       	ldi	r17, 0xFF	; 255
    12d8:	2f ef       	ldi	r18, 0xFF	; 255
    12da:	3f e0       	ldi	r19, 0x0F	; 15
    12dc:	b7 01       	movw	r22, r14
    12de:	a6 01       	movw	r20, r12
    12e0:	ce 01       	movw	r24, r28
    12e2:	53 de       	rcall	.-858    	; 0xf8a <_Z7put_fatP5FATFSmm>
    12e4:	81 11       	cpse	r24, r1
    12e6:	0b c0       	rjmp	.+22     	; 0x12fe <_ZL12create_chainP5FATFSm+0x12a>
    12e8:	41 14       	cp	r4, r1
    12ea:	51 04       	cpc	r5, r1
    12ec:	61 04       	cpc	r6, r1
    12ee:	71 04       	cpc	r7, r1
    12f0:	31 f0       	breq	.+12     	; 0x12fe <_ZL12create_chainP5FATFSm+0x12a>
    12f2:	97 01       	movw	r18, r14
    12f4:	86 01       	movw	r16, r12
    12f6:	b3 01       	movw	r22, r6
    12f8:	a2 01       	movw	r20, r4
    12fa:	ce 01       	movw	r24, r28
    12fc:	46 de       	rcall	.-884    	; 0xf8a <_Z7put_fatP5FATFSmm>
    12fe:	81 11       	cpse	r24, r1
    1300:	1c c0       	rjmp	.+56     	; 0x133a <_ZL12create_chainP5FATFSm+0x166>
    1302:	ca 86       	std	Y+10, r12	; 0x0a
    1304:	db 86       	std	Y+11, r13	; 0x0b
    1306:	ec 86       	std	Y+12, r14	; 0x0c
    1308:	fd 86       	std	Y+13, r15	; 0x0d
    130a:	8e 85       	ldd	r24, Y+14	; 0x0e
    130c:	9f 85       	ldd	r25, Y+15	; 0x0f
    130e:	a8 89       	ldd	r26, Y+16	; 0x10
    1310:	b9 89       	ldd	r27, Y+17	; 0x11
    1312:	8f 3f       	cpi	r24, 0xFF	; 255
    1314:	2f ef       	ldi	r18, 0xFF	; 255
    1316:	92 07       	cpc	r25, r18
    1318:	a2 07       	cpc	r26, r18
    131a:	b2 07       	cpc	r27, r18
    131c:	81 f1       	breq	.+96     	; 0x137e <_ZL12create_chainP5FATFSm+0x1aa>
    131e:	01 97       	sbiw	r24, 0x01	; 1
    1320:	a1 09       	sbc	r26, r1
    1322:	b1 09       	sbc	r27, r1
    1324:	8e 87       	std	Y+14, r24	; 0x0e
    1326:	9f 87       	std	Y+15, r25	; 0x0f
    1328:	a8 8b       	std	Y+16, r26	; 0x10
    132a:	b9 8b       	std	Y+17, r27	; 0x11
    132c:	81 e0       	ldi	r24, 0x01	; 1
    132e:	8d 83       	std	Y+5, r24	; 0x05
    1330:	4c 2d       	mov	r20, r12
    1332:	3d 2d       	mov	r19, r13
    1334:	2e 2d       	mov	r18, r14
    1336:	9f 2d       	mov	r25, r15
    1338:	2b c0       	rjmp	.+86     	; 0x1390 <_ZL12create_chainP5FATFSm+0x1bc>
    133a:	81 30       	cpi	r24, 0x01	; 1
    133c:	29 f5       	brne	.+74     	; 0x1388 <_ZL12create_chainP5FATFSm+0x1b4>
    133e:	4f ef       	ldi	r20, 0xFF	; 255
    1340:	3f ef       	ldi	r19, 0xFF	; 255
    1342:	2f ef       	ldi	r18, 0xFF	; 255
    1344:	9f ef       	ldi	r25, 0xFF	; 255
    1346:	24 c0       	rjmp	.+72     	; 0x1390 <_ZL12create_chainP5FATFSm+0x1bc>
    1348:	41 e0       	ldi	r20, 0x01	; 1
    134a:	30 e0       	ldi	r19, 0x00	; 0
    134c:	20 e0       	ldi	r18, 0x00	; 0
    134e:	90 e0       	ldi	r25, 0x00	; 0
    1350:	1f c0       	rjmp	.+62     	; 0x1390 <_ZL12create_chainP5FATFSm+0x1bc>
    1352:	46 2f       	mov	r20, r22
    1354:	37 2f       	mov	r19, r23
    1356:	28 2f       	mov	r18, r24
    1358:	1b c0       	rjmp	.+54     	; 0x1390 <_ZL12create_chainP5FATFSm+0x1bc>
    135a:	40 e0       	ldi	r20, 0x00	; 0
    135c:	30 e0       	ldi	r19, 0x00	; 0
    135e:	20 e0       	ldi	r18, 0x00	; 0
    1360:	90 e0       	ldi	r25, 0x00	; 0
    1362:	16 c0       	rjmp	.+44     	; 0x1390 <_ZL12create_chainP5FATFSm+0x1bc>
    1364:	46 2f       	mov	r20, r22
    1366:	37 2f       	mov	r19, r23
    1368:	28 2f       	mov	r18, r24
    136a:	12 c0       	rjmp	.+36     	; 0x1390 <_ZL12create_chainP5FATFSm+0x1bc>
    136c:	46 2f       	mov	r20, r22
    136e:	37 2f       	mov	r19, r23
    1370:	28 2f       	mov	r18, r24
    1372:	0e c0       	rjmp	.+28     	; 0x1390 <_ZL12create_chainP5FATFSm+0x1bc>
    1374:	40 e0       	ldi	r20, 0x00	; 0
    1376:	30 e0       	ldi	r19, 0x00	; 0
    1378:	20 e0       	ldi	r18, 0x00	; 0
    137a:	90 e0       	ldi	r25, 0x00	; 0
    137c:	09 c0       	rjmp	.+18     	; 0x1390 <_ZL12create_chainP5FATFSm+0x1bc>
    137e:	4c 2d       	mov	r20, r12
    1380:	3d 2d       	mov	r19, r13
    1382:	2e 2d       	mov	r18, r14
    1384:	9f 2d       	mov	r25, r15
    1386:	04 c0       	rjmp	.+8      	; 0x1390 <_ZL12create_chainP5FATFSm+0x1bc>
    1388:	41 e0       	ldi	r20, 0x01	; 1
    138a:	30 e0       	ldi	r19, 0x00	; 0
    138c:	20 e0       	ldi	r18, 0x00	; 0
    138e:	90 e0       	ldi	r25, 0x00	; 0
    1390:	64 2f       	mov	r22, r20
    1392:	73 2f       	mov	r23, r19
    1394:	82 2f       	mov	r24, r18
    1396:	df 91       	pop	r29
    1398:	cf 91       	pop	r28
    139a:	1f 91       	pop	r17
    139c:	0f 91       	pop	r16
    139e:	ff 90       	pop	r15
    13a0:	ef 90       	pop	r14
    13a2:	df 90       	pop	r13
    13a4:	cf 90       	pop	r12
    13a6:	bf 90       	pop	r11
    13a8:	af 90       	pop	r10
    13aa:	9f 90       	pop	r9
    13ac:	8f 90       	pop	r8
    13ae:	7f 90       	pop	r7
    13b0:	6f 90       	pop	r6
    13b2:	5f 90       	pop	r5
    13b4:	4f 90       	pop	r4
    13b6:	08 95       	ret

000013b8 <_ZL8dir_nextP3DIRi>:
    13b8:	8f 92       	push	r8
    13ba:	9f 92       	push	r9
    13bc:	af 92       	push	r10
    13be:	bf 92       	push	r11
    13c0:	cf 92       	push	r12
    13c2:	df 92       	push	r13
    13c4:	ef 92       	push	r14
    13c6:	ff 92       	push	r15
    13c8:	0f 93       	push	r16
    13ca:	1f 93       	push	r17
    13cc:	cf 93       	push	r28
    13ce:	df 93       	push	r29
    13d0:	dc 01       	movw	r26, r24
    13d2:	14 96       	adiw	r26, 0x04	; 4
    13d4:	cd 91       	ld	r28, X+
    13d6:	dc 91       	ld	r29, X
    13d8:	15 97       	sbiw	r26, 0x05	; 5
    13da:	21 96       	adiw	r28, 0x01	; 1
    13dc:	09 f4       	brne	.+2      	; 0x13e0 <_ZL8dir_nextP3DIRi+0x28>
    13de:	f6 c0       	rjmp	.+492    	; 0x15cc <_ZL8dir_nextP3DIRi+0x214>
    13e0:	1e 96       	adiw	r26, 0x0e	; 14
    13e2:	8d 90       	ld	r8, X+
    13e4:	9d 90       	ld	r9, X+
    13e6:	ad 90       	ld	r10, X+
    13e8:	bc 90       	ld	r11, X
    13ea:	51 97       	sbiw	r26, 0x11	; 17
    13ec:	81 14       	cp	r8, r1
    13ee:	91 04       	cpc	r9, r1
    13f0:	a1 04       	cpc	r10, r1
    13f2:	b1 04       	cpc	r11, r1
    13f4:	09 f4       	brne	.+2      	; 0x13f8 <_ZL8dir_nextP3DIRi+0x40>
    13f6:	ec c0       	rjmp	.+472    	; 0x15d0 <_ZL8dir_nextP3DIRi+0x218>
    13f8:	7b 01       	movw	r14, r22
    13fa:	8c 01       	movw	r16, r24
    13fc:	6e 01       	movw	r12, r28
    13fe:	bf e0       	ldi	r27, 0x0F	; 15
    1400:	cb 22       	and	r12, r27
    1402:	dd 24       	eor	r13, r13
    1404:	c1 14       	cp	r12, r1
    1406:	d1 04       	cpc	r13, r1
    1408:	09 f0       	breq	.+2      	; 0x140c <_ZL8dir_nextP3DIRi+0x54>
    140a:	ca c0       	rjmp	.+404    	; 0x15a0 <_ZL8dir_nextP3DIRi+0x1e8>
    140c:	ef ef       	ldi	r30, 0xFF	; 255
    140e:	8e 1a       	sub	r8, r30
    1410:	9e 0a       	sbc	r9, r30
    1412:	ae 0a       	sbc	r10, r30
    1414:	be 0a       	sbc	r11, r30
    1416:	dc 01       	movw	r26, r24
    1418:	1e 96       	adiw	r26, 0x0e	; 14
    141a:	8d 92       	st	X+, r8
    141c:	9d 92       	st	X+, r9
    141e:	ad 92       	st	X+, r10
    1420:	bc 92       	st	X, r11
    1422:	51 97       	sbiw	r26, 0x11	; 17
    1424:	1a 96       	adiw	r26, 0x0a	; 10
    1426:	4d 91       	ld	r20, X+
    1428:	5d 91       	ld	r21, X+
    142a:	6d 91       	ld	r22, X+
    142c:	7c 91       	ld	r23, X
    142e:	1d 97       	sbiw	r26, 0x0d	; 13
    1430:	41 15       	cp	r20, r1
    1432:	51 05       	cpc	r21, r1
    1434:	61 05       	cpc	r22, r1
    1436:	71 05       	cpc	r23, r1
    1438:	49 f4       	brne	.+18     	; 0x144c <_ZL8dir_nextP3DIRi+0x94>
    143a:	ed 91       	ld	r30, X+
    143c:	fc 91       	ld	r31, X
    143e:	80 85       	ldd	r24, Z+8	; 0x08
    1440:	91 85       	ldd	r25, Z+9	; 0x09
    1442:	c8 17       	cp	r28, r24
    1444:	d9 07       	cpc	r29, r25
    1446:	08 f0       	brcs	.+2      	; 0x144a <_ZL8dir_nextP3DIRi+0x92>
    1448:	c5 c0       	rjmp	.+394    	; 0x15d4 <_ZL8dir_nextP3DIRi+0x21c>
    144a:	aa c0       	rjmp	.+340    	; 0x15a0 <_ZL8dir_nextP3DIRi+0x1e8>
    144c:	dc 01       	movw	r26, r24
    144e:	ed 91       	ld	r30, X+
    1450:	fc 91       	ld	r31, X
    1452:	22 81       	ldd	r18, Z+2	; 0x02
    1454:	30 e0       	ldi	r19, 0x00	; 0
    1456:	21 50       	subi	r18, 0x01	; 1
    1458:	31 09       	sbc	r19, r1
    145a:	ce 01       	movw	r24, r28
    145c:	92 95       	swap	r25
    145e:	82 95       	swap	r24
    1460:	8f 70       	andi	r24, 0x0F	; 15
    1462:	89 27       	eor	r24, r25
    1464:	9f 70       	andi	r25, 0x0F	; 15
    1466:	89 27       	eor	r24, r25
    1468:	28 23       	and	r18, r24
    146a:	39 23       	and	r19, r25
    146c:	23 2b       	or	r18, r19
    146e:	09 f0       	breq	.+2      	; 0x1472 <_ZL8dir_nextP3DIRi+0xba>
    1470:	97 c0       	rjmp	.+302    	; 0x15a0 <_ZL8dir_nextP3DIRi+0x1e8>
    1472:	cf 01       	movw	r24, r30
    1474:	e9 db       	rcall	.-2094   	; 0xc48 <_Z7get_fatP5FATFSm>
    1476:	4b 01       	movw	r8, r22
    1478:	5c 01       	movw	r10, r24
    147a:	62 30       	cpi	r22, 0x02	; 2
    147c:	71 05       	cpc	r23, r1
    147e:	81 05       	cpc	r24, r1
    1480:	91 05       	cpc	r25, r1
    1482:	08 f4       	brcc	.+2      	; 0x1486 <_ZL8dir_nextP3DIRi+0xce>
    1484:	a9 c0       	rjmp	.+338    	; 0x15d8 <_ZL8dir_nextP3DIRi+0x220>
    1486:	6f 3f       	cpi	r22, 0xFF	; 255
    1488:	7f 4f       	sbci	r23, 0xFF	; 255
    148a:	8f 4f       	sbci	r24, 0xFF	; 255
    148c:	9f 4f       	sbci	r25, 0xFF	; 255
    148e:	09 f4       	brne	.+2      	; 0x1492 <_ZL8dir_nextP3DIRi+0xda>
    1490:	a5 c0       	rjmp	.+330    	; 0x15dc <_ZL8dir_nextP3DIRi+0x224>
    1492:	d8 01       	movw	r26, r16
    1494:	ed 91       	ld	r30, X+
    1496:	fc 91       	ld	r31, X
    1498:	86 89       	ldd	r24, Z+22	; 0x16
    149a:	97 89       	ldd	r25, Z+23	; 0x17
    149c:	a0 8d       	ldd	r26, Z+24	; 0x18
    149e:	b1 8d       	ldd	r27, Z+25	; 0x19
    14a0:	88 16       	cp	r8, r24
    14a2:	99 06       	cpc	r9, r25
    14a4:	aa 06       	cpc	r10, r26
    14a6:	bb 06       	cpc	r11, r27
    14a8:	08 f4       	brcc	.+2      	; 0x14ac <_ZL8dir_nextP3DIRi+0xf4>
    14aa:	69 c0       	rjmp	.+210    	; 0x157e <_ZL8dir_nextP3DIRi+0x1c6>
    14ac:	ef 28       	or	r14, r15
    14ae:	09 f4       	brne	.+2      	; 0x14b2 <_ZL8dir_nextP3DIRi+0xfa>
    14b0:	97 c0       	rjmp	.+302    	; 0x15e0 <_ZL8dir_nextP3DIRi+0x228>
    14b2:	d8 01       	movw	r26, r16
    14b4:	1a 96       	adiw	r26, 0x0a	; 10
    14b6:	4d 91       	ld	r20, X+
    14b8:	5d 91       	ld	r21, X+
    14ba:	6d 91       	ld	r22, X+
    14bc:	7c 91       	ld	r23, X
    14be:	1d 97       	sbiw	r26, 0x0d	; 13
    14c0:	cf 01       	movw	r24, r30
    14c2:	88 de       	rcall	.-752    	; 0x11d4 <_ZL12create_chainP5FATFSm>
    14c4:	4b 01       	movw	r8, r22
    14c6:	5c 01       	movw	r10, r24
    14c8:	61 15       	cp	r22, r1
    14ca:	71 05       	cpc	r23, r1
    14cc:	81 05       	cpc	r24, r1
    14ce:	91 05       	cpc	r25, r1
    14d0:	09 f4       	brne	.+2      	; 0x14d4 <_ZL8dir_nextP3DIRi+0x11c>
    14d2:	88 c0       	rjmp	.+272    	; 0x15e4 <_ZL8dir_nextP3DIRi+0x22c>
    14d4:	61 30       	cpi	r22, 0x01	; 1
    14d6:	71 05       	cpc	r23, r1
    14d8:	81 05       	cpc	r24, r1
    14da:	91 05       	cpc	r25, r1
    14dc:	09 f4       	brne	.+2      	; 0x14e0 <_ZL8dir_nextP3DIRi+0x128>
    14de:	84 c0       	rjmp	.+264    	; 0x15e8 <_ZL8dir_nextP3DIRi+0x230>
    14e0:	6f 3f       	cpi	r22, 0xFF	; 255
    14e2:	7f 4f       	sbci	r23, 0xFF	; 255
    14e4:	8f 4f       	sbci	r24, 0xFF	; 255
    14e6:	9f 4f       	sbci	r25, 0xFF	; 255
    14e8:	09 f4       	brne	.+2      	; 0x14ec <_ZL8dir_nextP3DIRi+0x134>
    14ea:	80 c0       	rjmp	.+256    	; 0x15ec <_ZL8dir_nextP3DIRi+0x234>
    14ec:	d8 01       	movw	r26, r16
    14ee:	8d 91       	ld	r24, X+
    14f0:	9c 91       	ld	r25, X
    14f2:	0e 94 31 02 	call	0x462	; 0x462 <_ZL11sync_windowP5FATFS>
    14f6:	81 11       	cpse	r24, r1
    14f8:	7b c0       	rjmp	.+246    	; 0x15f0 <_ZL8dir_nextP3DIRi+0x238>
    14fa:	f8 01       	movw	r30, r16
    14fc:	80 81       	ld	r24, Z
    14fe:	91 81       	ldd	r25, Z+1	; 0x01
    1500:	40 e0       	ldi	r20, 0x00	; 0
    1502:	52 e0       	ldi	r21, 0x02	; 2
    1504:	60 e0       	ldi	r22, 0x00	; 0
    1506:	70 e0       	ldi	r23, 0x00	; 0
    1508:	c2 96       	adiw	r24, 0x32	; 50
    150a:	0e 94 dd 00 	call	0x1ba	; 0x1ba <_ZL7mem_setPvij>
    150e:	d8 01       	movw	r26, r16
    1510:	ed 90       	ld	r14, X+
    1512:	fc 90       	ld	r15, X
    1514:	b5 01       	movw	r22, r10
    1516:	a4 01       	movw	r20, r8
    1518:	c7 01       	movw	r24, r14
    151a:	6e db       	rcall	.-2340   	; 0xbf8 <_Z10clust2sectP5FATFSm>
    151c:	f7 01       	movw	r30, r14
    151e:	66 a7       	std	Z+46, r22	; 0x2e
    1520:	77 a7       	std	Z+47, r23	; 0x2f
    1522:	80 ab       	std	Z+48, r24	; 0x30
    1524:	91 ab       	std	Z+49, r25	; 0x31
    1526:	f1 2c       	mov	r15, r1
    1528:	d8 01       	movw	r26, r16
    152a:	ed 91       	ld	r30, X+
    152c:	fc 91       	ld	r31, X
    152e:	11 97       	sbiw	r26, 0x01	; 1
    1530:	82 81       	ldd	r24, Z+2	; 0x02
    1532:	f8 16       	cp	r15, r24
    1534:	c0 f4       	brcc	.+48     	; 0x1566 <_ZL8dir_nextP3DIRi+0x1ae>
    1536:	81 e0       	ldi	r24, 0x01	; 1
    1538:	84 83       	std	Z+4, r24	; 0x04
    153a:	8d 91       	ld	r24, X+
    153c:	9c 91       	ld	r25, X
    153e:	0e 94 31 02 	call	0x462	; 0x462 <_ZL11sync_windowP5FATFS>
    1542:	81 11       	cpse	r24, r1
    1544:	57 c0       	rjmp	.+174    	; 0x15f4 <_ZL8dir_nextP3DIRi+0x23c>
    1546:	d8 01       	movw	r26, r16
    1548:	ed 91       	ld	r30, X+
    154a:	fc 91       	ld	r31, X
    154c:	86 a5       	ldd	r24, Z+46	; 0x2e
    154e:	97 a5       	ldd	r25, Z+47	; 0x2f
    1550:	a0 a9       	ldd	r26, Z+48	; 0x30
    1552:	b1 a9       	ldd	r27, Z+49	; 0x31
    1554:	01 96       	adiw	r24, 0x01	; 1
    1556:	a1 1d       	adc	r26, r1
    1558:	b1 1d       	adc	r27, r1
    155a:	86 a7       	std	Z+46, r24	; 0x2e
    155c:	97 a7       	std	Z+47, r25	; 0x2f
    155e:	a0 ab       	std	Z+48, r26	; 0x30
    1560:	b1 ab       	std	Z+49, r27	; 0x31
    1562:	f3 94       	inc	r15
    1564:	e1 cf       	rjmp	.-62     	; 0x1528 <_ZL8dir_nextP3DIRi+0x170>
    1566:	86 a5       	ldd	r24, Z+46	; 0x2e
    1568:	97 a5       	ldd	r25, Z+47	; 0x2f
    156a:	a0 a9       	ldd	r26, Z+48	; 0x30
    156c:	b1 a9       	ldd	r27, Z+49	; 0x31
    156e:	8f 19       	sub	r24, r15
    1570:	91 09       	sbc	r25, r1
    1572:	a1 09       	sbc	r26, r1
    1574:	b1 09       	sbc	r27, r1
    1576:	86 a7       	std	Z+46, r24	; 0x2e
    1578:	97 a7       	std	Z+47, r25	; 0x2f
    157a:	a0 ab       	std	Z+48, r26	; 0x30
    157c:	b1 ab       	std	Z+49, r27	; 0x31
    157e:	f8 01       	movw	r30, r16
    1580:	82 86       	std	Z+10, r8	; 0x0a
    1582:	93 86       	std	Z+11, r9	; 0x0b
    1584:	a4 86       	std	Z+12, r10	; 0x0c
    1586:	b5 86       	std	Z+13, r11	; 0x0d
    1588:	b5 01       	movw	r22, r10
    158a:	a4 01       	movw	r20, r8
    158c:	80 81       	ld	r24, Z
    158e:	91 81       	ldd	r25, Z+1	; 0x01
    1590:	33 db       	rcall	.-2458   	; 0xbf8 <_Z10clust2sectP5FATFSm>
    1592:	d8 01       	movw	r26, r16
    1594:	1e 96       	adiw	r26, 0x0e	; 14
    1596:	6d 93       	st	X+, r22
    1598:	7d 93       	st	X+, r23
    159a:	8d 93       	st	X+, r24
    159c:	9c 93       	st	X, r25
    159e:	51 97       	sbiw	r26, 0x11	; 17
    15a0:	f8 01       	movw	r30, r16
    15a2:	d5 83       	std	Z+5, r29	; 0x05
    15a4:	c4 83       	std	Z+4, r28	; 0x04
    15a6:	80 81       	ld	r24, Z
    15a8:	91 81       	ldd	r25, Z+1	; 0x01
    15aa:	cc 0c       	add	r12, r12
    15ac:	dd 1c       	adc	r13, r13
    15ae:	cc 0c       	add	r12, r12
    15b0:	dd 1c       	adc	r13, r13
    15b2:	cc 0c       	add	r12, r12
    15b4:	dd 1c       	adc	r13, r13
    15b6:	cc 0c       	add	r12, r12
    15b8:	dd 1c       	adc	r13, r13
    15ba:	cc 0c       	add	r12, r12
    15bc:	dd 1c       	adc	r13, r13
    15be:	c2 96       	adiw	r24, 0x32	; 50
    15c0:	c8 0e       	add	r12, r24
    15c2:	d9 1e       	adc	r13, r25
    15c4:	d3 8a       	std	Z+19, r13	; 0x13
    15c6:	c2 8a       	std	Z+18, r12	; 0x12
    15c8:	80 e0       	ldi	r24, 0x00	; 0
    15ca:	15 c0       	rjmp	.+42     	; 0x15f6 <_ZL8dir_nextP3DIRi+0x23e>
    15cc:	84 e0       	ldi	r24, 0x04	; 4
    15ce:	13 c0       	rjmp	.+38     	; 0x15f6 <_ZL8dir_nextP3DIRi+0x23e>
    15d0:	84 e0       	ldi	r24, 0x04	; 4
    15d2:	11 c0       	rjmp	.+34     	; 0x15f6 <_ZL8dir_nextP3DIRi+0x23e>
    15d4:	84 e0       	ldi	r24, 0x04	; 4
    15d6:	0f c0       	rjmp	.+30     	; 0x15f6 <_ZL8dir_nextP3DIRi+0x23e>
    15d8:	82 e0       	ldi	r24, 0x02	; 2
    15da:	0d c0       	rjmp	.+26     	; 0x15f6 <_ZL8dir_nextP3DIRi+0x23e>
    15dc:	81 e0       	ldi	r24, 0x01	; 1
    15de:	0b c0       	rjmp	.+22     	; 0x15f6 <_ZL8dir_nextP3DIRi+0x23e>
    15e0:	84 e0       	ldi	r24, 0x04	; 4
    15e2:	09 c0       	rjmp	.+18     	; 0x15f6 <_ZL8dir_nextP3DIRi+0x23e>
    15e4:	87 e0       	ldi	r24, 0x07	; 7
    15e6:	07 c0       	rjmp	.+14     	; 0x15f6 <_ZL8dir_nextP3DIRi+0x23e>
    15e8:	82 e0       	ldi	r24, 0x02	; 2
    15ea:	05 c0       	rjmp	.+10     	; 0x15f6 <_ZL8dir_nextP3DIRi+0x23e>
    15ec:	81 e0       	ldi	r24, 0x01	; 1
    15ee:	03 c0       	rjmp	.+6      	; 0x15f6 <_ZL8dir_nextP3DIRi+0x23e>
    15f0:	81 e0       	ldi	r24, 0x01	; 1
    15f2:	01 c0       	rjmp	.+2      	; 0x15f6 <_ZL8dir_nextP3DIRi+0x23e>
    15f4:	81 e0       	ldi	r24, 0x01	; 1
    15f6:	df 91       	pop	r29
    15f8:	cf 91       	pop	r28
    15fa:	1f 91       	pop	r17
    15fc:	0f 91       	pop	r16
    15fe:	ff 90       	pop	r15
    1600:	ef 90       	pop	r14
    1602:	df 90       	pop	r13
    1604:	cf 90       	pop	r12
    1606:	bf 90       	pop	r11
    1608:	af 90       	pop	r10
    160a:	9f 90       	pop	r9
    160c:	8f 90       	pop	r8
    160e:	08 95       	ret

00001610 <_ZL8dir_findP3DIR>:
    1610:	1f 93       	push	r17
    1612:	cf 93       	push	r28
    1614:	df 93       	push	r29
    1616:	ec 01       	movw	r28, r24
    1618:	60 e0       	ldi	r22, 0x00	; 0
    161a:	70 e0       	ldi	r23, 0x00	; 0
    161c:	ff db       	rcall	.-2050   	; 0xe1c <_ZL7dir_sdiP3DIRt>
    161e:	81 11       	cpse	r24, r1
    1620:	2e c0       	rjmp	.+92     	; 0x167e <_ZL8dir_findP3DIR+0x6e>
    1622:	4e 85       	ldd	r20, Y+14	; 0x0e
    1624:	5f 85       	ldd	r21, Y+15	; 0x0f
    1626:	68 89       	ldd	r22, Y+16	; 0x10
    1628:	79 89       	ldd	r23, Y+17	; 0x11
    162a:	88 81       	ld	r24, Y
    162c:	99 81       	ldd	r25, Y+1	; 0x01
    162e:	0e 94 98 02 	call	0x530	; 0x530 <_ZL11move_windowP5FATFSm>
    1632:	18 2f       	mov	r17, r24
    1634:	81 11       	cpse	r24, r1
    1636:	1f c0       	rjmp	.+62     	; 0x1676 <_ZL8dir_findP3DIR+0x66>
    1638:	ea 89       	ldd	r30, Y+18	; 0x12
    163a:	fb 89       	ldd	r31, Y+19	; 0x13
    163c:	80 81       	ld	r24, Z
    163e:	88 23       	and	r24, r24
    1640:	d9 f0       	breq	.+54     	; 0x1678 <_ZL8dir_findP3DIR+0x68>
    1642:	83 85       	ldd	r24, Z+11	; 0x0b
    1644:	83 fd       	sbrc	r24, 3
    1646:	0b c0       	rjmp	.+22     	; 0x165e <_ZL8dir_findP3DIR+0x4e>
    1648:	6c 89       	ldd	r22, Y+20	; 0x14
    164a:	7d 89       	ldd	r23, Y+21	; 0x15
    164c:	4b e0       	ldi	r20, 0x0B	; 11
    164e:	50 e0       	ldi	r21, 0x00	; 0
    1650:	cf 01       	movw	r24, r30
    1652:	0e 94 e7 00 	call	0x1ce	; 0x1ce <_ZL7mem_cmpPKvS0_j>
    1656:	89 2b       	or	r24, r25
    1658:	21 f4       	brne	.+8      	; 0x1662 <_ZL8dir_findP3DIR+0x52>
    165a:	81 e0       	ldi	r24, 0x01	; 1
    165c:	03 c0       	rjmp	.+6      	; 0x1664 <_ZL8dir_findP3DIR+0x54>
    165e:	80 e0       	ldi	r24, 0x00	; 0
    1660:	01 c0       	rjmp	.+2      	; 0x1664 <_ZL8dir_findP3DIR+0x54>
    1662:	80 e0       	ldi	r24, 0x00	; 0
    1664:	81 11       	cpse	r24, r1
    1666:	0a c0       	rjmp	.+20     	; 0x167c <_ZL8dir_findP3DIR+0x6c>
    1668:	60 e0       	ldi	r22, 0x00	; 0
    166a:	70 e0       	ldi	r23, 0x00	; 0
    166c:	ce 01       	movw	r24, r28
    166e:	a4 de       	rcall	.-696    	; 0x13b8 <_ZL8dir_nextP3DIRi>
    1670:	88 23       	and	r24, r24
    1672:	b9 f2       	breq	.-82     	; 0x1622 <_ZL8dir_findP3DIR+0x12>
    1674:	04 c0       	rjmp	.+8      	; 0x167e <_ZL8dir_findP3DIR+0x6e>
    1676:	03 c0       	rjmp	.+6      	; 0x167e <_ZL8dir_findP3DIR+0x6e>
    1678:	84 e0       	ldi	r24, 0x04	; 4
    167a:	01 c0       	rjmp	.+2      	; 0x167e <_ZL8dir_findP3DIR+0x6e>
    167c:	81 2f       	mov	r24, r17
    167e:	df 91       	pop	r29
    1680:	cf 91       	pop	r28
    1682:	1f 91       	pop	r17
    1684:	08 95       	ret

00001686 <_ZL11follow_pathP3DIRPKc>:
    1686:	0f 93       	push	r16
    1688:	1f 93       	push	r17
    168a:	cf 93       	push	r28
    168c:	df 93       	push	r29
    168e:	00 d0       	rcall	.+0      	; 0x1690 <_ZL11follow_pathP3DIRPKc+0xa>
    1690:	cd b7       	in	r28, 0x3d	; 61
    1692:	de b7       	in	r29, 0x3e	; 62
    1694:	8c 01       	movw	r16, r24
    1696:	7a 83       	std	Y+2, r23	; 0x02
    1698:	69 83       	std	Y+1, r22	; 0x01
    169a:	e6 2f       	mov	r30, r22
    169c:	f7 2f       	mov	r31, r23
    169e:	80 81       	ld	r24, Z
    16a0:	8f 32       	cpi	r24, 0x2F	; 47
    16a2:	11 f0       	breq	.+4      	; 0x16a8 <_ZL11follow_pathP3DIRPKc+0x22>
    16a4:	8c 35       	cpi	r24, 0x5C	; 92
    16a6:	19 f4       	brne	.+6      	; 0x16ae <_ZL11follow_pathP3DIRPKc+0x28>
    16a8:	31 96       	adiw	r30, 0x01	; 1
    16aa:	fa 83       	std	Y+2, r31	; 0x02
    16ac:	e9 83       	std	Y+1, r30	; 0x01
    16ae:	d8 01       	movw	r26, r16
    16b0:	16 96       	adiw	r26, 0x06	; 6
    16b2:	1d 92       	st	X+, r1
    16b4:	1d 92       	st	X+, r1
    16b6:	1d 92       	st	X+, r1
    16b8:	1c 92       	st	X, r1
    16ba:	19 97       	sbiw	r26, 0x09	; 9
    16bc:	e9 81       	ldd	r30, Y+1	; 0x01
    16be:	fa 81       	ldd	r31, Y+2	; 0x02
    16c0:	80 81       	ld	r24, Z
    16c2:	80 32       	cpi	r24, 0x20	; 32
    16c4:	40 f4       	brcc	.+16     	; 0x16d6 <_ZL11follow_pathP3DIRPKc+0x50>
    16c6:	60 e0       	ldi	r22, 0x00	; 0
    16c8:	70 e0       	ldi	r23, 0x00	; 0
    16ca:	c8 01       	movw	r24, r16
    16cc:	a7 db       	rcall	.-2226   	; 0xe1c <_ZL7dir_sdiP3DIRt>
    16ce:	f8 01       	movw	r30, r16
    16d0:	13 8a       	std	Z+19, r1	; 0x13
    16d2:	12 8a       	std	Z+18, r1	; 0x12
    16d4:	2e c0       	rjmp	.+92     	; 0x1732 <_ZL11follow_pathP3DIRPKc+0xac>
    16d6:	be 01       	movw	r22, r28
    16d8:	6f 5f       	subi	r22, 0xFF	; 255
    16da:	7f 4f       	sbci	r23, 0xFF	; 255
    16dc:	c8 01       	movw	r24, r16
    16de:	0e 94 38 01 	call	0x270	; 0x270 <_ZL11create_nameP3DIRPPKc>
    16e2:	81 11       	cpse	r24, r1
    16e4:	26 c0       	rjmp	.+76     	; 0x1732 <_ZL11follow_pathP3DIRPKc+0xac>
    16e6:	c8 01       	movw	r24, r16
    16e8:	93 df       	rcall	.-218    	; 0x1610 <_ZL8dir_findP3DIR>
    16ea:	d8 01       	movw	r26, r16
    16ec:	54 96       	adiw	r26, 0x14	; 20
    16ee:	ed 91       	ld	r30, X+
    16f0:	fc 91       	ld	r31, X
    16f2:	55 97       	sbiw	r26, 0x15	; 21
    16f4:	93 85       	ldd	r25, Z+11	; 0x0b
    16f6:	88 23       	and	r24, r24
    16f8:	29 f0       	breq	.+10     	; 0x1704 <_ZL11follow_pathP3DIRPKc+0x7e>
    16fa:	84 30       	cpi	r24, 0x04	; 4
    16fc:	d1 f4       	brne	.+52     	; 0x1732 <_ZL11follow_pathP3DIRPKc+0xac>
    16fe:	92 ff       	sbrs	r25, 2
    1700:	15 c0       	rjmp	.+42     	; 0x172c <_ZL11follow_pathP3DIRPKc+0xa6>
    1702:	17 c0       	rjmp	.+46     	; 0x1732 <_ZL11follow_pathP3DIRPKc+0xac>
    1704:	92 fd       	sbrc	r25, 2
    1706:	15 c0       	rjmp	.+42     	; 0x1732 <_ZL11follow_pathP3DIRPKc+0xac>
    1708:	f8 01       	movw	r30, r16
    170a:	62 89       	ldd	r22, Z+18	; 0x12
    170c:	73 89       	ldd	r23, Z+19	; 0x13
    170e:	db 01       	movw	r26, r22
    1710:	1b 96       	adiw	r26, 0x0b	; 11
    1712:	8c 91       	ld	r24, X
    1714:	84 ff       	sbrs	r24, 4
    1716:	0c c0       	rjmp	.+24     	; 0x1730 <_ZL11follow_pathP3DIRPKc+0xaa>
    1718:	80 81       	ld	r24, Z
    171a:	91 81       	ldd	r25, Z+1	; 0x01
    171c:	0e 94 19 01 	call	0x232	; 0x232 <_ZL8ld_clustP5FATFSPh>
    1720:	f8 01       	movw	r30, r16
    1722:	66 83       	std	Z+6, r22	; 0x06
    1724:	77 83       	std	Z+7, r23	; 0x07
    1726:	80 87       	std	Z+8, r24	; 0x08
    1728:	91 87       	std	Z+9, r25	; 0x09
    172a:	d5 cf       	rjmp	.-86     	; 0x16d6 <_ZL11follow_pathP3DIRPKc+0x50>
    172c:	85 e0       	ldi	r24, 0x05	; 5
    172e:	01 c0       	rjmp	.+2      	; 0x1732 <_ZL11follow_pathP3DIRPKc+0xac>
    1730:	85 e0       	ldi	r24, 0x05	; 5
    1732:	0f 90       	pop	r0
    1734:	0f 90       	pop	r0
    1736:	df 91       	pop	r29
    1738:	cf 91       	pop	r28
    173a:	1f 91       	pop	r17
    173c:	0f 91       	pop	r16
    173e:	08 95       	ret

00001740 <_ZL9dir_allocP3DIRj>:
    1740:	ef 92       	push	r14
    1742:	ff 92       	push	r15
    1744:	0f 93       	push	r16
    1746:	1f 93       	push	r17
    1748:	cf 93       	push	r28
    174a:	df 93       	push	r29
    174c:	ec 01       	movw	r28, r24
    174e:	7b 01       	movw	r14, r22
    1750:	60 e0       	ldi	r22, 0x00	; 0
    1752:	70 e0       	ldi	r23, 0x00	; 0
    1754:	63 db       	rcall	.-2362   	; 0xe1c <_ZL7dir_sdiP3DIRt>
    1756:	81 11       	cpse	r24, r1
    1758:	21 c0       	rjmp	.+66     	; 0x179c <_ZL9dir_allocP3DIRj+0x5c>
    175a:	00 e0       	ldi	r16, 0x00	; 0
    175c:	10 e0       	ldi	r17, 0x00	; 0
    175e:	4e 85       	ldd	r20, Y+14	; 0x0e
    1760:	5f 85       	ldd	r21, Y+15	; 0x0f
    1762:	68 89       	ldd	r22, Y+16	; 0x10
    1764:	79 89       	ldd	r23, Y+17	; 0x11
    1766:	88 81       	ld	r24, Y
    1768:	99 81       	ldd	r25, Y+1	; 0x01
    176a:	0e 94 98 02 	call	0x530	; 0x530 <_ZL11move_windowP5FATFSm>
    176e:	81 11       	cpse	r24, r1
    1770:	15 c0       	rjmp	.+42     	; 0x179c <_ZL9dir_allocP3DIRj+0x5c>
    1772:	ea 89       	ldd	r30, Y+18	; 0x12
    1774:	fb 89       	ldd	r31, Y+19	; 0x13
    1776:	90 81       	ld	r25, Z
    1778:	95 3e       	cpi	r25, 0xE5	; 229
    177a:	11 f0       	breq	.+4      	; 0x1780 <_ZL9dir_allocP3DIRj+0x40>
    177c:	91 11       	cpse	r25, r1
    177e:	06 c0       	rjmp	.+12     	; 0x178c <_ZL9dir_allocP3DIRj+0x4c>
    1780:	0f 5f       	subi	r16, 0xFF	; 255
    1782:	1f 4f       	sbci	r17, 0xFF	; 255
    1784:	0e 15       	cp	r16, r14
    1786:	1f 05       	cpc	r17, r15
    1788:	19 f4       	brne	.+6      	; 0x1790 <_ZL9dir_allocP3DIRj+0x50>
    178a:	08 c0       	rjmp	.+16     	; 0x179c <_ZL9dir_allocP3DIRj+0x5c>
    178c:	00 e0       	ldi	r16, 0x00	; 0
    178e:	10 e0       	ldi	r17, 0x00	; 0
    1790:	61 e0       	ldi	r22, 0x01	; 1
    1792:	70 e0       	ldi	r23, 0x00	; 0
    1794:	ce 01       	movw	r24, r28
    1796:	10 de       	rcall	.-992    	; 0x13b8 <_ZL8dir_nextP3DIRi>
    1798:	88 23       	and	r24, r24
    179a:	09 f3       	breq	.-62     	; 0x175e <_ZL9dir_allocP3DIRj+0x1e>
    179c:	df 91       	pop	r29
    179e:	cf 91       	pop	r28
    17a0:	1f 91       	pop	r17
    17a2:	0f 91       	pop	r16
    17a4:	ff 90       	pop	r15
    17a6:	ef 90       	pop	r14
    17a8:	08 95       	ret

000017aa <_ZL12dir_registerP3DIR>:
    17aa:	0f 93       	push	r16
    17ac:	1f 93       	push	r17
    17ae:	cf 93       	push	r28
    17b0:	8c 01       	movw	r16, r24
    17b2:	61 e0       	ldi	r22, 0x01	; 1
    17b4:	70 e0       	ldi	r23, 0x00	; 0
    17b6:	c4 df       	rcall	.-120    	; 0x1740 <_ZL9dir_allocP3DIRj>
    17b8:	c8 2f       	mov	r28, r24
    17ba:	81 11       	cpse	r24, r1
    17bc:	29 c0       	rjmp	.+82     	; 0x1810 <_ZL12dir_registerP3DIR+0x66>
    17be:	d8 01       	movw	r26, r16
    17c0:	1e 96       	adiw	r26, 0x0e	; 14
    17c2:	4d 91       	ld	r20, X+
    17c4:	5d 91       	ld	r21, X+
    17c6:	6d 91       	ld	r22, X+
    17c8:	7c 91       	ld	r23, X
    17ca:	51 97       	sbiw	r26, 0x11	; 17
    17cc:	8d 91       	ld	r24, X+
    17ce:	9c 91       	ld	r25, X
    17d0:	0e 94 98 02 	call	0x530	; 0x530 <_ZL11move_windowP5FATFSm>
    17d4:	c8 2f       	mov	r28, r24
    17d6:	81 11       	cpse	r24, r1
    17d8:	1b c0       	rjmp	.+54     	; 0x1810 <_ZL12dir_registerP3DIR+0x66>
    17da:	40 e2       	ldi	r20, 0x20	; 32
    17dc:	50 e0       	ldi	r21, 0x00	; 0
    17de:	60 e0       	ldi	r22, 0x00	; 0
    17e0:	70 e0       	ldi	r23, 0x00	; 0
    17e2:	f8 01       	movw	r30, r16
    17e4:	82 89       	ldd	r24, Z+18	; 0x12
    17e6:	93 89       	ldd	r25, Z+19	; 0x13
    17e8:	0e 94 dd 00 	call	0x1ba	; 0x1ba <_ZL7mem_setPvij>
    17ec:	d8 01       	movw	r26, r16
    17ee:	54 96       	adiw	r26, 0x14	; 20
    17f0:	6d 91       	ld	r22, X+
    17f2:	7c 91       	ld	r23, X
    17f4:	55 97       	sbiw	r26, 0x15	; 21
    17f6:	4b e0       	ldi	r20, 0x0B	; 11
    17f8:	50 e0       	ldi	r21, 0x00	; 0
    17fa:	52 96       	adiw	r26, 0x12	; 18
    17fc:	8d 91       	ld	r24, X+
    17fe:	9c 91       	ld	r25, X
    1800:	53 97       	sbiw	r26, 0x13	; 19
    1802:	0e 94 c6 00 	call	0x18c	; 0x18c <_ZL7mem_cpyPvPKvj>
    1806:	d8 01       	movw	r26, r16
    1808:	ed 91       	ld	r30, X+
    180a:	fc 91       	ld	r31, X
    180c:	81 e0       	ldi	r24, 0x01	; 1
    180e:	84 83       	std	Z+4, r24	; 0x04
    1810:	8c 2f       	mov	r24, r28
    1812:	cf 91       	pop	r28
    1814:	1f 91       	pop	r17
    1816:	0f 91       	pop	r16
    1818:	08 95       	ret

0000181a <_ZL12remove_chainP5FATFSm>:
    181a:	8f 92       	push	r8
    181c:	9f 92       	push	r9
    181e:	af 92       	push	r10
    1820:	bf 92       	push	r11
    1822:	cf 92       	push	r12
    1824:	df 92       	push	r13
    1826:	ef 92       	push	r14
    1828:	ff 92       	push	r15
    182a:	0f 93       	push	r16
    182c:	1f 93       	push	r17
    182e:	cf 93       	push	r28
    1830:	df 93       	push	r29
    1832:	ec 01       	movw	r28, r24
    1834:	6a 01       	movw	r12, r20
    1836:	7b 01       	movw	r14, r22
    1838:	42 30       	cpi	r20, 0x02	; 2
    183a:	51 05       	cpc	r21, r1
    183c:	61 05       	cpc	r22, r1
    183e:	71 05       	cpc	r23, r1
    1840:	08 f4       	brcc	.+2      	; 0x1844 <_ZL12remove_chainP5FATFSm+0x2a>
    1842:	4b c0       	rjmp	.+150    	; 0x18da <_ZL12remove_chainP5FATFSm+0xc0>
    1844:	8e 89       	ldd	r24, Y+22	; 0x16
    1846:	9f 89       	ldd	r25, Y+23	; 0x17
    1848:	a8 8d       	ldd	r26, Y+24	; 0x18
    184a:	b9 8d       	ldd	r27, Y+25	; 0x19
    184c:	48 17       	cp	r20, r24
    184e:	59 07       	cpc	r21, r25
    1850:	6a 07       	cpc	r22, r26
    1852:	7b 07       	cpc	r23, r27
    1854:	08 f0       	brcs	.+2      	; 0x1858 <_ZL12remove_chainP5FATFSm+0x3e>
    1856:	43 c0       	rjmp	.+134    	; 0x18de <_ZL12remove_chainP5FATFSm+0xc4>
    1858:	10 e0       	ldi	r17, 0x00	; 0
    185a:	02 c0       	rjmp	.+4      	; 0x1860 <_ZL12remove_chainP5FATFSm+0x46>
    185c:	75 01       	movw	r14, r10
    185e:	64 01       	movw	r12, r8
    1860:	8e 89       	ldd	r24, Y+22	; 0x16
    1862:	9f 89       	ldd	r25, Y+23	; 0x17
    1864:	a8 8d       	ldd	r26, Y+24	; 0x18
    1866:	b9 8d       	ldd	r27, Y+25	; 0x19
    1868:	c8 16       	cp	r12, r24
    186a:	d9 06       	cpc	r13, r25
    186c:	ea 06       	cpc	r14, r26
    186e:	fb 06       	cpc	r15, r27
    1870:	d8 f5       	brcc	.+118    	; 0x18e8 <_ZL12remove_chainP5FATFSm+0xce>
    1872:	b7 01       	movw	r22, r14
    1874:	a6 01       	movw	r20, r12
    1876:	ce 01       	movw	r24, r28
    1878:	e7 d9       	rcall	.-3122   	; 0xc48 <_Z7get_fatP5FATFSm>
    187a:	4b 01       	movw	r8, r22
    187c:	5c 01       	movw	r10, r24
    187e:	67 2b       	or	r22, r23
    1880:	68 2b       	or	r22, r24
    1882:	69 2b       	or	r22, r25
    1884:	89 f1       	breq	.+98     	; 0x18e8 <_ZL12remove_chainP5FATFSm+0xce>
    1886:	81 e0       	ldi	r24, 0x01	; 1
    1888:	88 16       	cp	r8, r24
    188a:	91 04       	cpc	r9, r1
    188c:	a1 04       	cpc	r10, r1
    188e:	b1 04       	cpc	r11, r1
    1890:	41 f1       	breq	.+80     	; 0x18e2 <_ZL12remove_chainP5FATFSm+0xc8>
    1892:	2f ef       	ldi	r18, 0xFF	; 255
    1894:	82 16       	cp	r8, r18
    1896:	92 06       	cpc	r9, r18
    1898:	a2 06       	cpc	r10, r18
    189a:	b2 06       	cpc	r11, r18
    189c:	21 f1       	breq	.+72     	; 0x18e6 <_ZL12remove_chainP5FATFSm+0xcc>
    189e:	00 e0       	ldi	r16, 0x00	; 0
    18a0:	10 e0       	ldi	r17, 0x00	; 0
    18a2:	98 01       	movw	r18, r16
    18a4:	b7 01       	movw	r22, r14
    18a6:	a6 01       	movw	r20, r12
    18a8:	ce 01       	movw	r24, r28
    18aa:	6f db       	rcall	.-2338   	; 0xf8a <_Z7put_fatP5FATFSmm>
    18ac:	18 2f       	mov	r17, r24
    18ae:	81 11       	cpse	r24, r1
    18b0:	1b c0       	rjmp	.+54     	; 0x18e8 <_ZL12remove_chainP5FATFSm+0xce>
    18b2:	8e 85       	ldd	r24, Y+14	; 0x0e
    18b4:	9f 85       	ldd	r25, Y+15	; 0x0f
    18b6:	a8 89       	ldd	r26, Y+16	; 0x10
    18b8:	b9 89       	ldd	r27, Y+17	; 0x11
    18ba:	8f 3f       	cpi	r24, 0xFF	; 255
    18bc:	2f ef       	ldi	r18, 0xFF	; 255
    18be:	92 07       	cpc	r25, r18
    18c0:	a2 07       	cpc	r26, r18
    18c2:	b2 07       	cpc	r27, r18
    18c4:	59 f2       	breq	.-106    	; 0x185c <_ZL12remove_chainP5FATFSm+0x42>
    18c6:	01 96       	adiw	r24, 0x01	; 1
    18c8:	a1 1d       	adc	r26, r1
    18ca:	b1 1d       	adc	r27, r1
    18cc:	8e 87       	std	Y+14, r24	; 0x0e
    18ce:	9f 87       	std	Y+15, r25	; 0x0f
    18d0:	a8 8b       	std	Y+16, r26	; 0x10
    18d2:	b9 8b       	std	Y+17, r27	; 0x11
    18d4:	81 e0       	ldi	r24, 0x01	; 1
    18d6:	8d 83       	std	Y+5, r24	; 0x05
    18d8:	c1 cf       	rjmp	.-126    	; 0x185c <_ZL12remove_chainP5FATFSm+0x42>
    18da:	12 e0       	ldi	r17, 0x02	; 2
    18dc:	05 c0       	rjmp	.+10     	; 0x18e8 <_ZL12remove_chainP5FATFSm+0xce>
    18de:	12 e0       	ldi	r17, 0x02	; 2
    18e0:	03 c0       	rjmp	.+6      	; 0x18e8 <_ZL12remove_chainP5FATFSm+0xce>
    18e2:	12 e0       	ldi	r17, 0x02	; 2
    18e4:	01 c0       	rjmp	.+2      	; 0x18e8 <_ZL12remove_chainP5FATFSm+0xce>
    18e6:	11 e0       	ldi	r17, 0x01	; 1
    18e8:	81 2f       	mov	r24, r17
    18ea:	df 91       	pop	r29
    18ec:	cf 91       	pop	r28
    18ee:	1f 91       	pop	r17
    18f0:	0f 91       	pop	r16
    18f2:	ff 90       	pop	r15
    18f4:	ef 90       	pop	r14
    18f6:	df 90       	pop	r13
    18f8:	cf 90       	pop	r12
    18fa:	bf 90       	pop	r11
    18fc:	af 90       	pop	r10
    18fe:	9f 90       	pop	r9
    1900:	8f 90       	pop	r8
    1902:	08 95       	ret

00001904 <f_mount>:
    1904:	81 11       	cpse	r24, r1
    1906:	1a c0       	rjmp	.+52     	; 0x193c <f_mount+0x38>
    1908:	90 e0       	ldi	r25, 0x00	; 0
    190a:	fc 01       	movw	r30, r24
    190c:	ee 0f       	add	r30, r30
    190e:	ff 1f       	adc	r31, r31
    1910:	e2 51       	subi	r30, 0x12	; 18
    1912:	ff 4e       	sbci	r31, 0xEF	; 239
    1914:	01 90       	ld	r0, Z+
    1916:	f0 81       	ld	r31, Z
    1918:	e0 2d       	mov	r30, r0
    191a:	30 97       	sbiw	r30, 0x00	; 0
    191c:	09 f0       	breq	.+2      	; 0x1920 <f_mount+0x1c>
    191e:	10 82       	st	Z, r1
    1920:	61 15       	cp	r22, r1
    1922:	71 05       	cpc	r23, r1
    1924:	11 f0       	breq	.+4      	; 0x192a <f_mount+0x26>
    1926:	fb 01       	movw	r30, r22
    1928:	10 82       	st	Z, r1
    192a:	88 0f       	add	r24, r24
    192c:	99 1f       	adc	r25, r25
    192e:	fc 01       	movw	r30, r24
    1930:	e2 51       	subi	r30, 0x12	; 18
    1932:	ff 4e       	sbci	r31, 0xEF	; 239
    1934:	71 83       	std	Z+1, r23	; 0x01
    1936:	60 83       	st	Z, r22
    1938:	80 e0       	ldi	r24, 0x00	; 0
    193a:	08 95       	ret
    193c:	8b e0       	ldi	r24, 0x0B	; 11
    193e:	08 95       	ret

00001940 <f_open>:
    1940:	4f 92       	push	r4
    1942:	5f 92       	push	r5
    1944:	6f 92       	push	r6
    1946:	7f 92       	push	r7
    1948:	af 92       	push	r10
    194a:	bf 92       	push	r11
    194c:	cf 92       	push	r12
    194e:	df 92       	push	r13
    1950:	ef 92       	push	r14
    1952:	ff 92       	push	r15
    1954:	0f 93       	push	r16
    1956:	1f 93       	push	r17
    1958:	cf 93       	push	r28
    195a:	df 93       	push	r29
    195c:	cd b7       	in	r28, 0x3d	; 61
    195e:	de b7       	in	r29, 0x3e	; 62
    1960:	a8 97       	sbiw	r28, 0x28	; 40
    1962:	0f b6       	in	r0, 0x3f	; 63
    1964:	f8 94       	cli
    1966:	de bf       	out	0x3e, r29	; 62
    1968:	0f be       	out	0x3f, r0	; 63
    196a:	cd bf       	out	0x3d, r28	; 61
    196c:	7c a3       	std	Y+36, r23	; 0x24
    196e:	6b a3       	std	Y+35, r22	; 0x23
    1970:	00 97       	sbiw	r24, 0x00	; 0
    1972:	09 f4       	brne	.+2      	; 0x1976 <f_open+0x36>
    1974:	d9 c0       	rjmp	.+434    	; 0x1b28 <f_open+0x1e8>
    1976:	04 2f       	mov	r16, r20
    1978:	7c 01       	movw	r14, r24
    197a:	dc 01       	movw	r26, r24
    197c:	1d 92       	st	X+, r1
    197e:	1c 92       	st	X, r1
    1980:	b4 2f       	mov	r27, r20
    1982:	bf 71       	andi	r27, 0x1F	; 31
    1984:	db 2e       	mov	r13, r27
    1986:	4e 71       	andi	r20, 0x1E	; 30
    1988:	be 01       	movw	r22, r28
    198a:	6f 5f       	subi	r22, 0xFF	; 255
    198c:	7f 4f       	sbci	r23, 0xFF	; 255
    198e:	ce 01       	movw	r24, r28
    1990:	83 96       	adiw	r24, 0x23	; 35
    1992:	0e 94 f5 02 	call	0x5ea	; 0x5ea <_ZL11chk_mountedPPKcPP5FATFSh>
    1996:	81 11       	cpse	r24, r1
    1998:	ca c0       	rjmp	.+404    	; 0x1b2e <f_open+0x1ee>
    199a:	ce 01       	movw	r24, r28
    199c:	47 96       	adiw	r24, 0x17	; 23
    199e:	9e 8b       	std	Y+22, r25	; 0x16
    19a0:	8d 8b       	std	Y+21, r24	; 0x15
    19a2:	6b a1       	ldd	r22, Y+35	; 0x23
    19a4:	7c a1       	ldd	r23, Y+36	; 0x24
    19a6:	46 97       	sbiw	r24, 0x16	; 22
    19a8:	6e de       	rcall	.-804    	; 0x1686 <_ZL11follow_pathP3DIRPKc>
    19aa:	18 2f       	mov	r17, r24
    19ac:	ab 88       	ldd	r10, Y+19	; 0x13
    19ae:	bc 88       	ldd	r11, Y+20	; 0x14
    19b0:	81 11       	cpse	r24, r1
    19b2:	04 c0       	rjmp	.+8      	; 0x19bc <f_open+0x7c>
    19b4:	a1 14       	cp	r10, r1
    19b6:	b1 04       	cpc	r11, r1
    19b8:	09 f4       	brne	.+2      	; 0x19bc <f_open+0x7c>
    19ba:	16 e0       	ldi	r17, 0x06	; 6
    19bc:	80 2f       	mov	r24, r16
    19be:	8c 71       	andi	r24, 0x1C	; 28
    19c0:	09 f4       	brne	.+2      	; 0x19c4 <f_open+0x84>
    19c2:	62 c0       	rjmp	.+196    	; 0x1a88 <f_open+0x148>
    19c4:	11 23       	and	r17, r17
    19c6:	61 f0       	breq	.+24     	; 0x19e0 <f_open+0xa0>
    19c8:	14 30       	cpi	r17, 0x04	; 4
    19ca:	21 f4       	brne	.+8      	; 0x19d4 <f_open+0x94>
    19cc:	ce 01       	movw	r24, r28
    19ce:	01 96       	adiw	r24, 0x01	; 1
    19d0:	ec de       	rcall	.-552    	; 0x17aa <_ZL12dir_registerP3DIR>
    19d2:	18 2f       	mov	r17, r24
    19d4:	ed 2d       	mov	r30, r13
    19d6:	e8 60       	ori	r30, 0x08	; 8
    19d8:	de 2e       	mov	r13, r30
    19da:	ab 88       	ldd	r10, Y+19	; 0x13
    19dc:	bc 88       	ldd	r11, Y+20	; 0x14
    19de:	0b c0       	rjmp	.+22     	; 0x19f6 <f_open+0xb6>
    19e0:	d5 01       	movw	r26, r10
    19e2:	1b 96       	adiw	r26, 0x0b	; 11
    19e4:	8c 91       	ld	r24, X
    19e6:	81 71       	andi	r24, 0x11	; 17
    19e8:	19 f4       	brne	.+6      	; 0x19f0 <f_open+0xb0>
    19ea:	02 fd       	sbrc	r16, 2
    19ec:	03 c0       	rjmp	.+6      	; 0x19f4 <f_open+0xb4>
    19ee:	03 c0       	rjmp	.+6      	; 0x19f6 <f_open+0xb6>
    19f0:	17 e0       	ldi	r17, 0x07	; 7
    19f2:	01 c0       	rjmp	.+2      	; 0x19f6 <f_open+0xb6>
    19f4:	18 e0       	ldi	r17, 0x08	; 8
    19f6:	11 11       	cpse	r17, r1
    19f8:	56 c0       	rjmp	.+172    	; 0x1aa6 <f_open+0x166>
    19fa:	d3 fe       	sbrs	r13, 3
    19fc:	54 c0       	rjmp	.+168    	; 0x1aa6 <f_open+0x166>
    19fe:	0e 94 65 00 	call	0xca	; 0xca <get_fattime>
    1a02:	f5 01       	movw	r30, r10
    1a04:	66 87       	std	Z+14, r22	; 0x0e
    1a06:	77 87       	std	Z+15, r23	; 0x0f
    1a08:	80 8b       	std	Z+16, r24	; 0x10
    1a0a:	91 8b       	std	Z+17, r25	; 0x11
    1a0c:	13 86       	std	Z+11, r1	; 0x0b
    1a0e:	14 8e       	std	Z+28, r1	; 0x1c
    1a10:	15 8e       	std	Z+29, r1	; 0x1d
    1a12:	16 8e       	std	Z+30, r1	; 0x1e
    1a14:	17 8e       	std	Z+31, r1	; 0x1f
    1a16:	b5 01       	movw	r22, r10
    1a18:	89 81       	ldd	r24, Y+1	; 0x01
    1a1a:	9a 81       	ldd	r25, Y+2	; 0x02
    1a1c:	0e 94 19 01 	call	0x232	; 0x232 <_ZL8ld_clustP5FATFSPh>
    1a20:	2b 01       	movw	r4, r22
    1a22:	3c 01       	movw	r6, r24
    1a24:	40 e0       	ldi	r20, 0x00	; 0
    1a26:	50 e0       	ldi	r21, 0x00	; 0
    1a28:	ba 01       	movw	r22, r20
    1a2a:	c5 01       	movw	r24, r10
    1a2c:	0e 94 32 01 	call	0x264	; 0x264 <_ZL8st_clustPhm>
    1a30:	e9 81       	ldd	r30, Y+1	; 0x01
    1a32:	fa 81       	ldd	r31, Y+2	; 0x02
    1a34:	81 e0       	ldi	r24, 0x01	; 1
    1a36:	84 83       	std	Z+4, r24	; 0x04
    1a38:	41 14       	cp	r4, r1
    1a3a:	51 04       	cpc	r5, r1
    1a3c:	61 04       	cpc	r6, r1
    1a3e:	71 04       	cpc	r7, r1
    1a40:	91 f1       	breq	.+100    	; 0x1aa6 <f_open+0x166>
    1a42:	86 a5       	ldd	r24, Z+46	; 0x2e
    1a44:	97 a5       	ldd	r25, Z+47	; 0x2f
    1a46:	a0 a9       	ldd	r26, Z+48	; 0x30
    1a48:	b1 a9       	ldd	r27, Z+49	; 0x31
    1a4a:	8d a3       	std	Y+37, r24	; 0x25
    1a4c:	9e a3       	std	Y+38, r25	; 0x26
    1a4e:	af a3       	std	Y+39, r26	; 0x27
    1a50:	b8 a7       	std	Y+40, r27	; 0x28
    1a52:	b3 01       	movw	r22, r6
    1a54:	a2 01       	movw	r20, r4
    1a56:	cf 01       	movw	r24, r30
    1a58:	e0 de       	rcall	.-576    	; 0x181a <_ZL12remove_chainP5FATFSm>
    1a5a:	18 2f       	mov	r17, r24
    1a5c:	81 11       	cpse	r24, r1
    1a5e:	23 c0       	rjmp	.+70     	; 0x1aa6 <f_open+0x166>
    1a60:	89 81       	ldd	r24, Y+1	; 0x01
    1a62:	9a 81       	ldd	r25, Y+2	; 0x02
    1a64:	a1 e0       	ldi	r26, 0x01	; 1
    1a66:	4a 1a       	sub	r4, r26
    1a68:	51 08       	sbc	r5, r1
    1a6a:	61 08       	sbc	r6, r1
    1a6c:	71 08       	sbc	r7, r1
    1a6e:	fc 01       	movw	r30, r24
    1a70:	42 86       	std	Z+10, r4	; 0x0a
    1a72:	53 86       	std	Z+11, r5	; 0x0b
    1a74:	64 86       	std	Z+12, r6	; 0x0c
    1a76:	75 86       	std	Z+13, r7	; 0x0d
    1a78:	4d a1       	ldd	r20, Y+37	; 0x25
    1a7a:	5e a1       	ldd	r21, Y+38	; 0x26
    1a7c:	6f a1       	ldd	r22, Y+39	; 0x27
    1a7e:	78 a5       	ldd	r23, Y+40	; 0x28
    1a80:	0e 94 98 02 	call	0x530	; 0x530 <_ZL11move_windowP5FATFSm>
    1a84:	18 2f       	mov	r17, r24
    1a86:	0f c0       	rjmp	.+30     	; 0x1aa6 <f_open+0x166>
    1a88:	11 11       	cpse	r17, r1
    1a8a:	0d c0       	rjmp	.+26     	; 0x1aa6 <f_open+0x166>
    1a8c:	d5 01       	movw	r26, r10
    1a8e:	1b 96       	adiw	r26, 0x0b	; 11
    1a90:	8c 91       	ld	r24, X
    1a92:	84 fd       	sbrc	r24, 4
    1a94:	05 c0       	rjmp	.+10     	; 0x1aa0 <f_open+0x160>
    1a96:	01 ff       	sbrs	r16, 1
    1a98:	06 c0       	rjmp	.+12     	; 0x1aa6 <f_open+0x166>
    1a9a:	80 fd       	sbrc	r24, 0
    1a9c:	03 c0       	rjmp	.+6      	; 0x1aa4 <f_open+0x164>
    1a9e:	03 c0       	rjmp	.+6      	; 0x1aa6 <f_open+0x166>
    1aa0:	14 e0       	ldi	r17, 0x04	; 4
    1aa2:	01 c0       	rjmp	.+2      	; 0x1aa6 <f_open+0x166>
    1aa4:	17 e0       	ldi	r17, 0x07	; 7
    1aa6:	11 11       	cpse	r17, r1
    1aa8:	12 c0       	rjmp	.+36     	; 0x1ace <f_open+0x18e>
    1aaa:	d3 fe       	sbrs	r13, 3
    1aac:	03 c0       	rjmp	.+6      	; 0x1ab4 <f_open+0x174>
    1aae:	bd 2d       	mov	r27, r13
    1ab0:	b0 62       	ori	r27, 0x20	; 32
    1ab2:	db 2e       	mov	r13, r27
    1ab4:	e9 81       	ldd	r30, Y+1	; 0x01
    1ab6:	fa 81       	ldd	r31, Y+2	; 0x02
    1ab8:	86 a5       	ldd	r24, Z+46	; 0x2e
    1aba:	97 a5       	ldd	r25, Z+47	; 0x2f
    1abc:	a0 a9       	ldd	r26, Z+48	; 0x30
    1abe:	b1 a9       	ldd	r27, Z+49	; 0x31
    1ac0:	f7 01       	movw	r30, r14
    1ac2:	82 8f       	std	Z+26, r24	; 0x1a
    1ac4:	93 8f       	std	Z+27, r25	; 0x1b
    1ac6:	a4 8f       	std	Z+28, r26	; 0x1c
    1ac8:	b5 8f       	std	Z+29, r27	; 0x1d
    1aca:	b7 8e       	std	Z+31, r11	; 0x1f
    1acc:	a6 8e       	std	Z+30, r10	; 0x1e
    1ace:	11 11       	cpse	r17, r1
    1ad0:	2d c0       	rjmp	.+90     	; 0x1b2c <f_open+0x1ec>
    1ad2:	d7 01       	movw	r26, r14
    1ad4:	14 96       	adiw	r26, 0x04	; 4
    1ad6:	dc 92       	st	X, r13
    1ad8:	c9 80       	ldd	r12, Y+1	; 0x01
    1ada:	da 80       	ldd	r13, Y+2	; 0x02
    1adc:	b5 01       	movw	r22, r10
    1ade:	c6 01       	movw	r24, r12
    1ae0:	0e 94 19 01 	call	0x232	; 0x232 <_ZL8ld_clustP5FATFSPh>
    1ae4:	f7 01       	movw	r30, r14
    1ae6:	66 87       	std	Z+14, r22	; 0x0e
    1ae8:	77 87       	std	Z+15, r23	; 0x0f
    1aea:	80 8b       	std	Z+16, r24	; 0x10
    1aec:	91 8b       	std	Z+17, r25	; 0x11
    1aee:	f5 01       	movw	r30, r10
    1af0:	84 8d       	ldd	r24, Z+28	; 0x1c
    1af2:	95 8d       	ldd	r25, Z+29	; 0x1d
    1af4:	a6 8d       	ldd	r26, Z+30	; 0x1e
    1af6:	b7 8d       	ldd	r27, Z+31	; 0x1f
    1af8:	f7 01       	movw	r30, r14
    1afa:	82 87       	std	Z+10, r24	; 0x0a
    1afc:	93 87       	std	Z+11, r25	; 0x0b
    1afe:	a4 87       	std	Z+12, r26	; 0x0c
    1b00:	b5 87       	std	Z+13, r27	; 0x0d
    1b02:	16 82       	std	Z+6, r1	; 0x06
    1b04:	17 82       	std	Z+7, r1	; 0x07
    1b06:	10 86       	std	Z+8, r1	; 0x08
    1b08:	11 86       	std	Z+9, r1	; 0x09
    1b0a:	16 8a       	std	Z+22, r1	; 0x16
    1b0c:	17 8a       	std	Z+23, r1	; 0x17
    1b0e:	10 8e       	std	Z+24, r1	; 0x18
    1b10:	11 8e       	std	Z+25, r1	; 0x19
    1b12:	d1 82       	std	Z+1, r13	; 0x01
    1b14:	c0 82       	st	Z, r12
    1b16:	d6 01       	movw	r26, r12
    1b18:	16 96       	adiw	r26, 0x06	; 6
    1b1a:	8d 91       	ld	r24, X+
    1b1c:	9c 91       	ld	r25, X
    1b1e:	17 97       	sbiw	r26, 0x07	; 7
    1b20:	93 83       	std	Z+3, r25	; 0x03
    1b22:	82 83       	std	Z+2, r24	; 0x02
    1b24:	81 2f       	mov	r24, r17
    1b26:	03 c0       	rjmp	.+6      	; 0x1b2e <f_open+0x1ee>
    1b28:	89 e0       	ldi	r24, 0x09	; 9
    1b2a:	01 c0       	rjmp	.+2      	; 0x1b2e <f_open+0x1ee>
    1b2c:	81 2f       	mov	r24, r17
    1b2e:	a8 96       	adiw	r28, 0x28	; 40
    1b30:	0f b6       	in	r0, 0x3f	; 63
    1b32:	f8 94       	cli
    1b34:	de bf       	out	0x3e, r29	; 62
    1b36:	0f be       	out	0x3f, r0	; 63
    1b38:	cd bf       	out	0x3d, r28	; 61
    1b3a:	df 91       	pop	r29
    1b3c:	cf 91       	pop	r28
    1b3e:	1f 91       	pop	r17
    1b40:	0f 91       	pop	r16
    1b42:	ff 90       	pop	r15
    1b44:	ef 90       	pop	r14
    1b46:	df 90       	pop	r13
    1b48:	cf 90       	pop	r12
    1b4a:	bf 90       	pop	r11
    1b4c:	af 90       	pop	r10
    1b4e:	7f 90       	pop	r7
    1b50:	6f 90       	pop	r6
    1b52:	5f 90       	pop	r5
    1b54:	4f 90       	pop	r4
    1b56:	08 95       	ret

00001b58 <f_write>:
    1b58:	2f 92       	push	r2
    1b5a:	3f 92       	push	r3
    1b5c:	4f 92       	push	r4
    1b5e:	5f 92       	push	r5
    1b60:	6f 92       	push	r6
    1b62:	7f 92       	push	r7
    1b64:	8f 92       	push	r8
    1b66:	9f 92       	push	r9
    1b68:	af 92       	push	r10
    1b6a:	bf 92       	push	r11
    1b6c:	cf 92       	push	r12
    1b6e:	df 92       	push	r13
    1b70:	ef 92       	push	r14
    1b72:	ff 92       	push	r15
    1b74:	0f 93       	push	r16
    1b76:	1f 93       	push	r17
    1b78:	cf 93       	push	r28
    1b7a:	df 93       	push	r29
    1b7c:	ec 01       	movw	r28, r24
    1b7e:	5b 01       	movw	r10, r22
    1b80:	6a 01       	movw	r12, r20
    1b82:	49 01       	movw	r8, r18
    1b84:	f9 01       	movw	r30, r18
    1b86:	11 82       	std	Z+1, r1	; 0x01
    1b88:	10 82       	st	Z, r1
    1b8a:	0e 94 d0 02 	call	0x5a0	; 0x5a0 <_ZL8validatePv>
    1b8e:	81 11       	cpse	r24, r1
    1b90:	7b c1       	rjmp	.+758    	; 0x1e88 <f_write+0x330>
    1b92:	8c 81       	ldd	r24, Y+4	; 0x04
    1b94:	88 23       	and	r24, r24
    1b96:	0c f4       	brge	.+2      	; 0x1b9a <f_write+0x42>
    1b98:	74 c1       	rjmp	.+744    	; 0x1e82 <f_write+0x32a>
    1b9a:	81 ff       	sbrs	r24, 1
    1b9c:	74 c1       	rjmp	.+744    	; 0x1e86 <f_write+0x32e>
    1b9e:	8a 85       	ldd	r24, Y+10	; 0x0a
    1ba0:	9b 85       	ldd	r25, Y+11	; 0x0b
    1ba2:	ac 85       	ldd	r26, Y+12	; 0x0c
    1ba4:	bd 85       	ldd	r27, Y+13	; 0x0d
    1ba6:	ac 01       	movw	r20, r24
    1ba8:	bd 01       	movw	r22, r26
    1baa:	4c 0d       	add	r20, r12
    1bac:	5d 1d       	adc	r21, r13
    1bae:	61 1d       	adc	r22, r1
    1bb0:	71 1d       	adc	r23, r1
    1bb2:	48 17       	cp	r20, r24
    1bb4:	59 07       	cpc	r21, r25
    1bb6:	6a 07       	cpc	r22, r26
    1bb8:	7b 07       	cpc	r23, r27
    1bba:	10 f4       	brcc	.+4      	; 0x1bc0 <f_write+0x68>
    1bbc:	c1 2c       	mov	r12, r1
    1bbe:	d1 2c       	mov	r13, r1
    1bc0:	c1 14       	cp	r12, r1
    1bc2:	d1 04       	cpc	r13, r1
    1bc4:	09 f4       	brne	.+2      	; 0x1bc8 <f_write+0x70>
    1bc6:	47 c1       	rjmp	.+654    	; 0x1e56 <f_write+0x2fe>
    1bc8:	4e 81       	ldd	r20, Y+6	; 0x06
    1bca:	5f 81       	ldd	r21, Y+7	; 0x07
    1bcc:	68 85       	ldd	r22, Y+8	; 0x08
    1bce:	79 85       	ldd	r23, Y+9	; 0x09
    1bd0:	db 01       	movw	r26, r22
    1bd2:	ca 01       	movw	r24, r20
    1bd4:	91 70       	andi	r25, 0x01	; 1
    1bd6:	aa 27       	eor	r26, r26
    1bd8:	bb 27       	eor	r27, r27
    1bda:	89 2b       	or	r24, r25
    1bdc:	8a 2b       	or	r24, r26
    1bde:	8b 2b       	or	r24, r27
    1be0:	09 f0       	breq	.+2      	; 0x1be4 <f_write+0x8c>
    1be2:	ef c0       	rjmp	.+478    	; 0x1dc2 <f_write+0x26a>
    1be4:	e8 81       	ld	r30, Y
    1be6:	f9 81       	ldd	r31, Y+1	; 0x01
    1be8:	12 81       	ldd	r17, Z+2	; 0x02
    1bea:	11 50       	subi	r17, 0x01	; 1
    1bec:	db 01       	movw	r26, r22
    1bee:	ca 01       	movw	r24, r20
    1bf0:	07 2e       	mov	r0, r23
    1bf2:	79 e0       	ldi	r23, 0x09	; 9
    1bf4:	b6 95       	lsr	r27
    1bf6:	a7 95       	ror	r26
    1bf8:	97 95       	ror	r25
    1bfa:	87 95       	ror	r24
    1bfc:	7a 95       	dec	r23
    1bfe:	d1 f7       	brne	.-12     	; 0x1bf4 <f_write+0x9c>
    1c00:	70 2d       	mov	r23, r0
    1c02:	18 23       	and	r17, r24
    1c04:	e1 f5       	brne	.+120    	; 0x1c7e <f_write+0x126>
    1c06:	45 2b       	or	r20, r21
    1c08:	46 2b       	or	r20, r22
    1c0a:	47 2b       	or	r20, r23
    1c0c:	99 f4       	brne	.+38     	; 0x1c34 <f_write+0xdc>
    1c0e:	6e 85       	ldd	r22, Y+14	; 0x0e
    1c10:	7f 85       	ldd	r23, Y+15	; 0x0f
    1c12:	88 89       	ldd	r24, Y+16	; 0x10
    1c14:	99 89       	ldd	r25, Y+17	; 0x11
    1c16:	61 15       	cp	r22, r1
    1c18:	71 05       	cpc	r23, r1
    1c1a:	81 05       	cpc	r24, r1
    1c1c:	91 05       	cpc	r25, r1
    1c1e:	81 f4       	brne	.+32     	; 0x1c40 <f_write+0xe8>
    1c20:	40 e0       	ldi	r20, 0x00	; 0
    1c22:	50 e0       	ldi	r21, 0x00	; 0
    1c24:	ba 01       	movw	r22, r20
    1c26:	cf 01       	movw	r24, r30
    1c28:	d5 da       	rcall	.-2646   	; 0x11d4 <_ZL12create_chainP5FATFSm>
    1c2a:	6e 87       	std	Y+14, r22	; 0x0e
    1c2c:	7f 87       	std	Y+15, r23	; 0x0f
    1c2e:	88 8b       	std	Y+16, r24	; 0x10
    1c30:	99 8b       	std	Y+17, r25	; 0x11
    1c32:	06 c0       	rjmp	.+12     	; 0x1c40 <f_write+0xe8>
    1c34:	4a 89       	ldd	r20, Y+18	; 0x12
    1c36:	5b 89       	ldd	r21, Y+19	; 0x13
    1c38:	6c 89       	ldd	r22, Y+20	; 0x14
    1c3a:	7d 89       	ldd	r23, Y+21	; 0x15
    1c3c:	cf 01       	movw	r24, r30
    1c3e:	ca da       	rcall	.-2668   	; 0x11d4 <_ZL12create_chainP5FATFSm>
    1c40:	61 15       	cp	r22, r1
    1c42:	71 05       	cpc	r23, r1
    1c44:	81 05       	cpc	r24, r1
    1c46:	91 05       	cpc	r25, r1
    1c48:	09 f4       	brne	.+2      	; 0x1c4c <f_write+0xf4>
    1c4a:	05 c1       	rjmp	.+522    	; 0x1e56 <f_write+0x2fe>
    1c4c:	61 30       	cpi	r22, 0x01	; 1
    1c4e:	71 05       	cpc	r23, r1
    1c50:	81 05       	cpc	r24, r1
    1c52:	91 05       	cpc	r25, r1
    1c54:	29 f4       	brne	.+10     	; 0x1c60 <f_write+0x108>
    1c56:	8c 81       	ldd	r24, Y+4	; 0x04
    1c58:	80 68       	ori	r24, 0x80	; 128
    1c5a:	8c 83       	std	Y+4, r24	; 0x04
    1c5c:	82 e0       	ldi	r24, 0x02	; 2
    1c5e:	14 c1       	rjmp	.+552    	; 0x1e88 <f_write+0x330>
    1c60:	6f 3f       	cpi	r22, 0xFF	; 255
    1c62:	ff ef       	ldi	r31, 0xFF	; 255
    1c64:	7f 07       	cpc	r23, r31
    1c66:	8f 07       	cpc	r24, r31
    1c68:	9f 07       	cpc	r25, r31
    1c6a:	29 f4       	brne	.+10     	; 0x1c76 <f_write+0x11e>
    1c6c:	8c 81       	ldd	r24, Y+4	; 0x04
    1c6e:	80 68       	ori	r24, 0x80	; 128
    1c70:	8c 83       	std	Y+4, r24	; 0x04
    1c72:	81 e0       	ldi	r24, 0x01	; 1
    1c74:	09 c1       	rjmp	.+530    	; 0x1e88 <f_write+0x330>
    1c76:	6a 8b       	std	Y+18, r22	; 0x12
    1c78:	7b 8b       	std	Y+19, r23	; 0x13
    1c7a:	8c 8b       	std	Y+20, r24	; 0x14
    1c7c:	9d 8b       	std	Y+21, r25	; 0x15
    1c7e:	e8 81       	ld	r30, Y
    1c80:	f9 81       	ldd	r31, Y+1	; 0x01
    1c82:	46 a5       	ldd	r20, Z+46	; 0x2e
    1c84:	57 a5       	ldd	r21, Z+47	; 0x2f
    1c86:	60 a9       	ldd	r22, Z+48	; 0x30
    1c88:	71 a9       	ldd	r23, Z+49	; 0x31
    1c8a:	8e 89       	ldd	r24, Y+22	; 0x16
    1c8c:	9f 89       	ldd	r25, Y+23	; 0x17
    1c8e:	a8 8d       	ldd	r26, Y+24	; 0x18
    1c90:	b9 8d       	ldd	r27, Y+25	; 0x19
    1c92:	48 17       	cp	r20, r24
    1c94:	59 07       	cpc	r21, r25
    1c96:	6a 07       	cpc	r22, r26
    1c98:	7b 07       	cpc	r23, r27
    1c9a:	39 f4       	brne	.+14     	; 0x1caa <f_write+0x152>
    1c9c:	cf 01       	movw	r24, r30
    1c9e:	0e 94 31 02 	call	0x462	; 0x462 <_ZL11sync_windowP5FATFS>
    1ca2:	88 23       	and	r24, r24
    1ca4:	21 f0       	breq	.+8      	; 0x1cae <f_write+0x156>
    1ca6:	81 e0       	ldi	r24, 0x01	; 1
    1ca8:	03 c0       	rjmp	.+6      	; 0x1cb0 <f_write+0x158>
    1caa:	80 e0       	ldi	r24, 0x00	; 0
    1cac:	01 c0       	rjmp	.+2      	; 0x1cb0 <f_write+0x158>
    1cae:	80 e0       	ldi	r24, 0x00	; 0
    1cb0:	88 23       	and	r24, r24
    1cb2:	29 f0       	breq	.+10     	; 0x1cbe <f_write+0x166>
    1cb4:	8c 81       	ldd	r24, Y+4	; 0x04
    1cb6:	80 68       	ori	r24, 0x80	; 128
    1cb8:	8c 83       	std	Y+4, r24	; 0x04
    1cba:	81 e0       	ldi	r24, 0x01	; 1
    1cbc:	e5 c0       	rjmp	.+458    	; 0x1e88 <f_write+0x330>
    1cbe:	4a 89       	ldd	r20, Y+18	; 0x12
    1cc0:	5b 89       	ldd	r21, Y+19	; 0x13
    1cc2:	6c 89       	ldd	r22, Y+20	; 0x14
    1cc4:	7d 89       	ldd	r23, Y+21	; 0x15
    1cc6:	28 80       	ld	r2, Y
    1cc8:	39 80       	ldd	r3, Y+1	; 0x01
    1cca:	c1 01       	movw	r24, r2
    1ccc:	0e 94 fc 05 	call	0xbf8	; 0xbf8 <_Z10clust2sectP5FATFSm>
    1cd0:	61 15       	cp	r22, r1
    1cd2:	71 05       	cpc	r23, r1
    1cd4:	81 05       	cpc	r24, r1
    1cd6:	91 05       	cpc	r25, r1
    1cd8:	29 f4       	brne	.+10     	; 0x1ce4 <f_write+0x18c>
    1cda:	8c 81       	ldd	r24, Y+4	; 0x04
    1cdc:	80 68       	ori	r24, 0x80	; 128
    1cde:	8c 83       	std	Y+4, r24	; 0x04
    1ce0:	82 e0       	ldi	r24, 0x02	; 2
    1ce2:	d2 c0       	rjmp	.+420    	; 0x1e88 <f_write+0x330>
    1ce4:	2b 01       	movw	r4, r22
    1ce6:	3c 01       	movw	r6, r24
    1ce8:	41 0e       	add	r4, r17
    1cea:	51 1c       	adc	r5, r1
    1cec:	61 1c       	adc	r6, r1
    1cee:	71 1c       	adc	r7, r1
    1cf0:	76 01       	movw	r14, r12
    1cf2:	ef 2c       	mov	r14, r15
    1cf4:	ff 24       	eor	r15, r15
    1cf6:	e6 94       	lsr	r14
    1cf8:	e1 14       	cp	r14, r1
    1cfa:	f1 04       	cpc	r15, r1
    1cfc:	09 f4       	brne	.+2      	; 0x1d00 <f_write+0x1a8>
    1cfe:	40 c0       	rjmp	.+128    	; 0x1d80 <f_write+0x228>
    1d00:	f1 01       	movw	r30, r2
    1d02:	42 81       	ldd	r20, Z+2	; 0x02
    1d04:	24 2f       	mov	r18, r20
    1d06:	30 e0       	ldi	r19, 0x00	; 0
    1d08:	c7 01       	movw	r24, r14
    1d0a:	81 0f       	add	r24, r17
    1d0c:	91 1d       	adc	r25, r1
    1d0e:	28 17       	cp	r18, r24
    1d10:	39 07       	cpc	r19, r25
    1d12:	18 f4       	brcc	.+6      	; 0x1d1a <f_write+0x1c2>
    1d14:	79 01       	movw	r14, r18
    1d16:	e1 1a       	sub	r14, r17
    1d18:	f1 08       	sbc	r15, r1
    1d1a:	0e 2d       	mov	r16, r14
    1d1c:	a3 01       	movw	r20, r6
    1d1e:	92 01       	movw	r18, r4
    1d20:	b5 01       	movw	r22, r10
    1d22:	f1 01       	movw	r30, r2
    1d24:	81 81       	ldd	r24, Z+1	; 0x01
    1d26:	90 d3       	rcall	.+1824   	; 0x2448 <disk_write>
    1d28:	88 23       	and	r24, r24
    1d2a:	29 f0       	breq	.+10     	; 0x1d36 <f_write+0x1de>
    1d2c:	8c 81       	ldd	r24, Y+4	; 0x04
    1d2e:	80 68       	ori	r24, 0x80	; 128
    1d30:	8c 83       	std	Y+4, r24	; 0x04
    1d32:	81 e0       	ldi	r24, 0x01	; 1
    1d34:	a9 c0       	rjmp	.+338    	; 0x1e88 <f_write+0x330>
    1d36:	e8 81       	ld	r30, Y
    1d38:	f9 81       	ldd	r31, Y+1	; 0x01
    1d3a:	86 a5       	ldd	r24, Z+46	; 0x2e
    1d3c:	97 a5       	ldd	r25, Z+47	; 0x2f
    1d3e:	a0 a9       	ldd	r26, Z+48	; 0x30
    1d40:	b1 a9       	ldd	r27, Z+49	; 0x31
    1d42:	84 19       	sub	r24, r4
    1d44:	95 09       	sbc	r25, r5
    1d46:	a6 09       	sbc	r26, r6
    1d48:	b7 09       	sbc	r27, r7
    1d4a:	a7 01       	movw	r20, r14
    1d4c:	60 e0       	ldi	r22, 0x00	; 0
    1d4e:	70 e0       	ldi	r23, 0x00	; 0
    1d50:	84 17       	cp	r24, r20
    1d52:	95 07       	cpc	r25, r21
    1d54:	a6 07       	cpc	r26, r22
    1d56:	b7 07       	cpc	r27, r23
    1d58:	78 f4       	brcc	.+30     	; 0x1d78 <f_write+0x220>
    1d5a:	98 2f       	mov	r25, r24
    1d5c:	88 27       	eor	r24, r24
    1d5e:	99 0f       	add	r25, r25
    1d60:	b5 01       	movw	r22, r10
    1d62:	68 0f       	add	r22, r24
    1d64:	79 1f       	adc	r23, r25
    1d66:	40 e0       	ldi	r20, 0x00	; 0
    1d68:	52 e0       	ldi	r21, 0x02	; 2
    1d6a:	cf 01       	movw	r24, r30
    1d6c:	c2 96       	adiw	r24, 0x32	; 50
    1d6e:	0e 94 c6 00 	call	0x18c	; 0x18c <_ZL7mem_cpyPvPKvj>
    1d72:	e8 81       	ld	r30, Y
    1d74:	f9 81       	ldd	r31, Y+1	; 0x01
    1d76:	14 82       	std	Z+4, r1	; 0x04
    1d78:	fe 2c       	mov	r15, r14
    1d7a:	ee 24       	eor	r14, r14
    1d7c:	ff 0c       	add	r15, r15
    1d7e:	53 c0       	rjmp	.+166    	; 0x1e26 <f_write+0x2ce>
    1d80:	4e 81       	ldd	r20, Y+6	; 0x06
    1d82:	5f 81       	ldd	r21, Y+7	; 0x07
    1d84:	68 85       	ldd	r22, Y+8	; 0x08
    1d86:	79 85       	ldd	r23, Y+9	; 0x09
    1d88:	8a 85       	ldd	r24, Y+10	; 0x0a
    1d8a:	9b 85       	ldd	r25, Y+11	; 0x0b
    1d8c:	ac 85       	ldd	r26, Y+12	; 0x0c
    1d8e:	bd 85       	ldd	r27, Y+13	; 0x0d
    1d90:	48 17       	cp	r20, r24
    1d92:	59 07       	cpc	r21, r25
    1d94:	6a 07       	cpc	r22, r26
    1d96:	7b 07       	cpc	r23, r27
    1d98:	80 f0       	brcs	.+32     	; 0x1dba <f_write+0x262>
    1d9a:	c1 01       	movw	r24, r2
    1d9c:	0e 94 31 02 	call	0x462	; 0x462 <_ZL11sync_windowP5FATFS>
    1da0:	88 23       	and	r24, r24
    1da2:	29 f0       	breq	.+10     	; 0x1dae <f_write+0x256>
    1da4:	8c 81       	ldd	r24, Y+4	; 0x04
    1da6:	80 68       	ori	r24, 0x80	; 128
    1da8:	8c 83       	std	Y+4, r24	; 0x04
    1daa:	81 e0       	ldi	r24, 0x01	; 1
    1dac:	6d c0       	rjmp	.+218    	; 0x1e88 <f_write+0x330>
    1dae:	e8 81       	ld	r30, Y
    1db0:	f9 81       	ldd	r31, Y+1	; 0x01
    1db2:	46 a6       	std	Z+46, r4	; 0x2e
    1db4:	57 a6       	std	Z+47, r5	; 0x2f
    1db6:	60 aa       	std	Z+48, r6	; 0x30
    1db8:	71 aa       	std	Z+49, r7	; 0x31
    1dba:	4e 8a       	std	Y+22, r4	; 0x16
    1dbc:	5f 8a       	std	Y+23, r5	; 0x17
    1dbe:	68 8e       	std	Y+24, r6	; 0x18
    1dc0:	79 8e       	std	Y+25, r7	; 0x19
    1dc2:	8e 81       	ldd	r24, Y+6	; 0x06
    1dc4:	9f 81       	ldd	r25, Y+7	; 0x07
    1dc6:	a8 85       	ldd	r26, Y+8	; 0x08
    1dc8:	b9 85       	ldd	r27, Y+9	; 0x09
    1dca:	91 70       	andi	r25, 0x01	; 1
    1dcc:	20 e0       	ldi	r18, 0x00	; 0
    1dce:	32 e0       	ldi	r19, 0x02	; 2
    1dd0:	79 01       	movw	r14, r18
    1dd2:	e8 1a       	sub	r14, r24
    1dd4:	f9 0a       	sbc	r15, r25
    1dd6:	ce 14       	cp	r12, r14
    1dd8:	df 04       	cpc	r13, r15
    1dda:	08 f4       	brcc	.+2      	; 0x1dde <f_write+0x286>
    1ddc:	76 01       	movw	r14, r12
    1dde:	4e 89       	ldd	r20, Y+22	; 0x16
    1de0:	5f 89       	ldd	r21, Y+23	; 0x17
    1de2:	68 8d       	ldd	r22, Y+24	; 0x18
    1de4:	79 8d       	ldd	r23, Y+25	; 0x19
    1de6:	88 81       	ld	r24, Y
    1de8:	99 81       	ldd	r25, Y+1	; 0x01
    1dea:	0e 94 98 02 	call	0x530	; 0x530 <_ZL11move_windowP5FATFSm>
    1dee:	88 23       	and	r24, r24
    1df0:	29 f0       	breq	.+10     	; 0x1dfc <f_write+0x2a4>
    1df2:	8c 81       	ldd	r24, Y+4	; 0x04
    1df4:	80 68       	ori	r24, 0x80	; 128
    1df6:	8c 83       	std	Y+4, r24	; 0x04
    1df8:	81 e0       	ldi	r24, 0x01	; 1
    1dfa:	46 c0       	rjmp	.+140    	; 0x1e88 <f_write+0x330>
    1dfc:	28 81       	ld	r18, Y
    1dfe:	39 81       	ldd	r19, Y+1	; 0x01
    1e00:	4e 81       	ldd	r20, Y+6	; 0x06
    1e02:	5f 81       	ldd	r21, Y+7	; 0x07
    1e04:	68 85       	ldd	r22, Y+8	; 0x08
    1e06:	79 85       	ldd	r23, Y+9	; 0x09
    1e08:	51 70       	andi	r21, 0x01	; 1
    1e0a:	66 27       	eor	r22, r22
    1e0c:	77 27       	eor	r23, r23
    1e0e:	ca 01       	movw	r24, r20
    1e10:	c2 96       	adiw	r24, 0x32	; 50
    1e12:	a7 01       	movw	r20, r14
    1e14:	b5 01       	movw	r22, r10
    1e16:	82 0f       	add	r24, r18
    1e18:	93 1f       	adc	r25, r19
    1e1a:	0e 94 c6 00 	call	0x18c	; 0x18c <_ZL7mem_cpyPvPKvj>
    1e1e:	e8 81       	ld	r30, Y
    1e20:	f9 81       	ldd	r31, Y+1	; 0x01
    1e22:	81 e0       	ldi	r24, 0x01	; 1
    1e24:	84 83       	std	Z+4, r24	; 0x04
    1e26:	ae 0c       	add	r10, r14
    1e28:	bf 1c       	adc	r11, r15
    1e2a:	8e 81       	ldd	r24, Y+6	; 0x06
    1e2c:	9f 81       	ldd	r25, Y+7	; 0x07
    1e2e:	a8 85       	ldd	r26, Y+8	; 0x08
    1e30:	b9 85       	ldd	r27, Y+9	; 0x09
    1e32:	8e 0d       	add	r24, r14
    1e34:	9f 1d       	adc	r25, r15
    1e36:	a1 1d       	adc	r26, r1
    1e38:	b1 1d       	adc	r27, r1
    1e3a:	8e 83       	std	Y+6, r24	; 0x06
    1e3c:	9f 83       	std	Y+7, r25	; 0x07
    1e3e:	a8 87       	std	Y+8, r26	; 0x08
    1e40:	b9 87       	std	Y+9, r27	; 0x09
    1e42:	f4 01       	movw	r30, r8
    1e44:	80 81       	ld	r24, Z
    1e46:	91 81       	ldd	r25, Z+1	; 0x01
    1e48:	8e 0d       	add	r24, r14
    1e4a:	9f 1d       	adc	r25, r15
    1e4c:	91 83       	std	Z+1, r25	; 0x01
    1e4e:	80 83       	st	Z, r24
    1e50:	ce 18       	sub	r12, r14
    1e52:	df 08       	sbc	r13, r15
    1e54:	b5 ce       	rjmp	.-662    	; 0x1bc0 <f_write+0x68>
    1e56:	8e 81       	ldd	r24, Y+6	; 0x06
    1e58:	9f 81       	ldd	r25, Y+7	; 0x07
    1e5a:	a8 85       	ldd	r26, Y+8	; 0x08
    1e5c:	b9 85       	ldd	r27, Y+9	; 0x09
    1e5e:	4a 85       	ldd	r20, Y+10	; 0x0a
    1e60:	5b 85       	ldd	r21, Y+11	; 0x0b
    1e62:	6c 85       	ldd	r22, Y+12	; 0x0c
    1e64:	7d 85       	ldd	r23, Y+13	; 0x0d
    1e66:	48 17       	cp	r20, r24
    1e68:	59 07       	cpc	r21, r25
    1e6a:	6a 07       	cpc	r22, r26
    1e6c:	7b 07       	cpc	r23, r27
    1e6e:	20 f4       	brcc	.+8      	; 0x1e78 <f_write+0x320>
    1e70:	8a 87       	std	Y+10, r24	; 0x0a
    1e72:	9b 87       	std	Y+11, r25	; 0x0b
    1e74:	ac 87       	std	Y+12, r26	; 0x0c
    1e76:	bd 87       	std	Y+13, r27	; 0x0d
    1e78:	8c 81       	ldd	r24, Y+4	; 0x04
    1e7a:	80 62       	ori	r24, 0x20	; 32
    1e7c:	8c 83       	std	Y+4, r24	; 0x04
    1e7e:	80 e0       	ldi	r24, 0x00	; 0
    1e80:	03 c0       	rjmp	.+6      	; 0x1e88 <f_write+0x330>
    1e82:	82 e0       	ldi	r24, 0x02	; 2
    1e84:	01 c0       	rjmp	.+2      	; 0x1e88 <f_write+0x330>
    1e86:	87 e0       	ldi	r24, 0x07	; 7
    1e88:	df 91       	pop	r29
    1e8a:	cf 91       	pop	r28
    1e8c:	1f 91       	pop	r17
    1e8e:	0f 91       	pop	r16
    1e90:	ff 90       	pop	r15
    1e92:	ef 90       	pop	r14
    1e94:	df 90       	pop	r13
    1e96:	cf 90       	pop	r12
    1e98:	bf 90       	pop	r11
    1e9a:	af 90       	pop	r10
    1e9c:	9f 90       	pop	r9
    1e9e:	8f 90       	pop	r8
    1ea0:	7f 90       	pop	r7
    1ea2:	6f 90       	pop	r6
    1ea4:	5f 90       	pop	r5
    1ea6:	4f 90       	pop	r4
    1ea8:	3f 90       	pop	r3
    1eaa:	2f 90       	pop	r2
    1eac:	08 95       	ret

00001eae <f_sync>:
    1eae:	0f 93       	push	r16
    1eb0:	1f 93       	push	r17
    1eb2:	cf 93       	push	r28
    1eb4:	df 93       	push	r29
    1eb6:	ec 01       	movw	r28, r24
    1eb8:	0e 94 d0 02 	call	0x5a0	; 0x5a0 <_ZL8validatePv>
    1ebc:	81 11       	cpse	r24, r1
    1ebe:	36 c0       	rjmp	.+108    	; 0x1f2c <f_sync+0x7e>
    1ec0:	9c 81       	ldd	r25, Y+4	; 0x04
    1ec2:	95 ff       	sbrs	r25, 5
    1ec4:	33 c0       	rjmp	.+102    	; 0x1f2c <f_sync+0x7e>
    1ec6:	4a 8d       	ldd	r20, Y+26	; 0x1a
    1ec8:	5b 8d       	ldd	r21, Y+27	; 0x1b
    1eca:	6c 8d       	ldd	r22, Y+28	; 0x1c
    1ecc:	7d 8d       	ldd	r23, Y+29	; 0x1d
    1ece:	88 81       	ld	r24, Y
    1ed0:	99 81       	ldd	r25, Y+1	; 0x01
    1ed2:	0e 94 98 02 	call	0x530	; 0x530 <_ZL11move_windowP5FATFSm>
    1ed6:	81 11       	cpse	r24, r1
    1ed8:	29 c0       	rjmp	.+82     	; 0x1f2c <f_sync+0x7e>
    1eda:	0e 8d       	ldd	r16, Y+30	; 0x1e
    1edc:	1f 8d       	ldd	r17, Y+31	; 0x1f
    1ede:	f8 01       	movw	r30, r16
    1ee0:	83 85       	ldd	r24, Z+11	; 0x0b
    1ee2:	80 62       	ori	r24, 0x20	; 32
    1ee4:	83 87       	std	Z+11, r24	; 0x0b
    1ee6:	8a 85       	ldd	r24, Y+10	; 0x0a
    1ee8:	9b 85       	ldd	r25, Y+11	; 0x0b
    1eea:	ac 85       	ldd	r26, Y+12	; 0x0c
    1eec:	bd 85       	ldd	r27, Y+13	; 0x0d
    1eee:	84 8f       	std	Z+28, r24	; 0x1c
    1ef0:	95 8f       	std	Z+29, r25	; 0x1d
    1ef2:	a6 8f       	std	Z+30, r26	; 0x1e
    1ef4:	b7 8f       	std	Z+31, r27	; 0x1f
    1ef6:	4e 85       	ldd	r20, Y+14	; 0x0e
    1ef8:	5f 85       	ldd	r21, Y+15	; 0x0f
    1efa:	68 89       	ldd	r22, Y+16	; 0x10
    1efc:	79 89       	ldd	r23, Y+17	; 0x11
    1efe:	c8 01       	movw	r24, r16
    1f00:	0e 94 32 01 	call	0x264	; 0x264 <_ZL8st_clustPhm>
    1f04:	0e 94 65 00 	call	0xca	; 0xca <get_fattime>
    1f08:	f8 01       	movw	r30, r16
    1f0a:	66 8b       	std	Z+22, r22	; 0x16
    1f0c:	77 8b       	std	Z+23, r23	; 0x17
    1f0e:	80 8f       	std	Z+24, r24	; 0x18
    1f10:	91 8f       	std	Z+25, r25	; 0x19
    1f12:	13 8a       	std	Z+19, r1	; 0x13
    1f14:	12 8a       	std	Z+18, r1	; 0x12
    1f16:	8c 81       	ldd	r24, Y+4	; 0x04
    1f18:	8f 7d       	andi	r24, 0xDF	; 223
    1f1a:	8c 83       	std	Y+4, r24	; 0x04
    1f1c:	e8 81       	ld	r30, Y
    1f1e:	f9 81       	ldd	r31, Y+1	; 0x01
    1f20:	81 e0       	ldi	r24, 0x01	; 1
    1f22:	84 83       	std	Z+4, r24	; 0x04
    1f24:	88 81       	ld	r24, Y
    1f26:	99 81       	ldd	r25, Y+1	; 0x01
    1f28:	0e 94 97 05 	call	0xb2e	; 0xb2e <_ZL7sync_fsP5FATFS>
    1f2c:	df 91       	pop	r29
    1f2e:	cf 91       	pop	r28
    1f30:	1f 91       	pop	r17
    1f32:	0f 91       	pop	r16
    1f34:	08 95       	ret

00001f36 <f_close>:
    1f36:	cf 93       	push	r28
    1f38:	df 93       	push	r29
    1f3a:	ec 01       	movw	r28, r24
    1f3c:	b8 df       	rcall	.-144    	; 0x1eae <f_sync>
    1f3e:	81 11       	cpse	r24, r1
    1f40:	02 c0       	rjmp	.+4      	; 0x1f46 <f_close+0x10>
    1f42:	19 82       	std	Y+1, r1	; 0x01
    1f44:	18 82       	st	Y, r1
    1f46:	df 91       	pop	r29
    1f48:	cf 91       	pop	r28
    1f4a:	08 95       	ret

00001f4c <_ZL6dly_usj>:

static
void dly_us (UINT n)	/* Delay n microseconds (avr-gcc -Os) */ //TODO: Replace
{
	do {
		PINB;
    1f4c:	23 b1       	in	r18, 0x03	; 3
#define SPI_PORT		PORTB	//SPI on PORTB

static
void dly_us (UINT n)	/* Delay n microseconds (avr-gcc -Os) */ //TODO: Replace
{
	do {
    1f4e:	01 97       	sbiw	r24, 0x01	; 1
    1f50:	e9 f7       	brne	.-6      	; 0x1f4c <_ZL6dly_usj>
#endif
#if F_CPU >= 14000000
#error Too fast clock
#endif
	} while (--n);
}
    1f52:	08 95       	ret

00001f54 <_ZL8xmit_mmcPKhj>:
static
void xmit_mmc (
	const BYTE* buff,	/* Data to be sent */
	UINT bc				/* Number of bytes to send */
)
{
    1f54:	fc 01       	movw	r30, r24
	BYTE d;

	do {
		d = *buff++;	/* Get a byte to be sent */
    1f56:	cf 01       	movw	r24, r30
    1f58:	01 96       	adiw	r24, 0x01	; 1
    1f5a:	20 81       	ld	r18, Z
		SPDR = d;
    1f5c:	2e bd       	out	0x2e, r18	; 46
		while(!(SPSR & (1<<SPIF)));
    1f5e:	0d b4       	in	r0, 0x2d	; 45
    1f60:	07 fe       	sbrs	r0, 7
    1f62:	fd cf       	rjmp	.-6      	; 0x1f5e <_ZL8xmit_mmcPKhj+0xa>
	UINT bc				/* Number of bytes to send */
)
{
	BYTE d;

	do {
    1f64:	61 50       	subi	r22, 0x01	; 1
    1f66:	71 09       	sbc	r23, r1
		d = *buff++;	/* Get a byte to be sent */
    1f68:	fc 01       	movw	r30, r24
	UINT bc				/* Number of bytes to send */
)
{
	BYTE d;

	do {
    1f6a:	a9 f7       	brne	.-22     	; 0x1f56 <_ZL8xmit_mmcPKhj+0x2>
		d = *buff++;	/* Get a byte to be sent */
		SPDR = d;
		while(!(SPSR & (1<<SPIF)));
	} while (--bc);
}
    1f6c:	08 95       	ret

00001f6e <_ZL8rcvr_mmcPhj>:
static
void rcvr_mmc (
	BYTE *buff,	/* Pointer to read buffer */
	UINT bc		/* Number of bytes to receive */
)
{
    1f6e:	fc 01       	movw	r30, r24
    1f70:	01 c0       	rjmp	.+2      	; 0x1f74 <_ZL8rcvr_mmcPhj+0x6>

	do {
		SPDR = 0x00;
		while(!(SPSR & (1<<SPIF) ));
		r = (BYTE) SPDR;
		*buff++ = r;			/* Store a received byte */
    1f72:	f9 01       	movw	r30, r18
)
{
	BYTE r=0;

	do {
		SPDR = 0x00;
    1f74:	1e bc       	out	0x2e, r1	; 46
		while(!(SPSR & (1<<SPIF) ));
    1f76:	0d b4       	in	r0, 0x2d	; 45
    1f78:	07 fe       	sbrs	r0, 7
    1f7a:	fd cf       	rjmp	.-6      	; 0x1f76 <_ZL8rcvr_mmcPhj+0x8>
		r = (BYTE) SPDR;
    1f7c:	8e b5       	in	r24, 0x2e	; 46
		*buff++ = r;			/* Store a received byte */
    1f7e:	9f 01       	movw	r18, r30
    1f80:	2f 5f       	subi	r18, 0xFF	; 255
    1f82:	3f 4f       	sbci	r19, 0xFF	; 255
    1f84:	80 83       	st	Z, r24
	UINT bc		/* Number of bytes to receive */
)
{
	BYTE r=0;

	do {
    1f86:	61 50       	subi	r22, 0x01	; 1
    1f88:	71 09       	sbc	r23, r1
    1f8a:	99 f7       	brne	.-26     	; 0x1f72 <_ZL8rcvr_mmcPhj+0x4>
		SPDR = 0x00;
		while(!(SPSR & (1<<SPIF) ));
		r = (BYTE) SPDR;
		*buff++ = r;			/* Store a received byte */
	} while (--bc);
}
    1f8c:	08 95       	ret

00001f8e <_ZL10wait_readyv>:
/* Wait for card ready                                                   */
/*-----------------------------------------------------------------------*/

static
int wait_ready (void)	/* 1:OK, 0:Timeout */
{
    1f8e:	0f 93       	push	r16
    1f90:	1f 93       	push	r17
    1f92:	cf 93       	push	r28
    1f94:	df 93       	push	r29
    1f96:	1f 92       	push	r1
    1f98:	cd b7       	in	r28, 0x3d	; 61
    1f9a:	de b7       	in	r29, 0x3e	; 62
	BYTE d;
	UINT tmr;


	for (tmr = 5000; tmr; tmr--) {	/* Wait for ready in timeout of 500ms */
    1f9c:	08 e8       	ldi	r16, 0x88	; 136
    1f9e:	13 e1       	ldi	r17, 0x13	; 19
    1fa0:	01 15       	cp	r16, r1
    1fa2:	11 05       	cpc	r17, r1
    1fa4:	71 f0       	breq	.+28     	; 0x1fc2 <_ZL10wait_readyv+0x34>
		rcvr_mmc(&d, 1);
    1fa6:	61 e0       	ldi	r22, 0x01	; 1
    1fa8:	70 e0       	ldi	r23, 0x00	; 0
    1faa:	ce 01       	movw	r24, r28
    1fac:	01 96       	adiw	r24, 0x01	; 1
    1fae:	df df       	rcall	.-66     	; 0x1f6e <_ZL8rcvr_mmcPhj>
		if (d == 0xFF) break;
    1fb0:	89 81       	ldd	r24, Y+1	; 0x01
    1fb2:	8f 3f       	cpi	r24, 0xFF	; 255
    1fb4:	31 f0       	breq	.+12     	; 0x1fc2 <_ZL10wait_readyv+0x34>
		dly_us(100);
    1fb6:	84 e6       	ldi	r24, 0x64	; 100
    1fb8:	90 e0       	ldi	r25, 0x00	; 0
    1fba:	c8 df       	rcall	.-112    	; 0x1f4c <_ZL6dly_usj>
{
	BYTE d;
	UINT tmr;


	for (tmr = 5000; tmr; tmr--) {	/* Wait for ready in timeout of 500ms */
    1fbc:	01 50       	subi	r16, 0x01	; 1
    1fbe:	11 09       	sbc	r17, r1
    1fc0:	ef cf       	rjmp	.-34     	; 0x1fa0 <_ZL10wait_readyv+0x12>
		rcvr_mmc(&d, 1);
		if (d == 0xFF) break;
		dly_us(100);
	}

	return tmr ? 1 : 0;
    1fc2:	01 2b       	or	r16, r17
    1fc4:	19 f0       	breq	.+6      	; 0x1fcc <_ZL10wait_readyv+0x3e>
    1fc6:	81 e0       	ldi	r24, 0x01	; 1
    1fc8:	90 e0       	ldi	r25, 0x00	; 0
    1fca:	02 c0       	rjmp	.+4      	; 0x1fd0 <_ZL10wait_readyv+0x42>
    1fcc:	80 e0       	ldi	r24, 0x00	; 0
    1fce:	90 e0       	ldi	r25, 0x00	; 0
}
    1fd0:	0f 90       	pop	r0
    1fd2:	df 91       	pop	r29
    1fd4:	cf 91       	pop	r28
    1fd6:	1f 91       	pop	r17
    1fd8:	0f 91       	pop	r16
    1fda:	08 95       	ret

00001fdc <_ZL8deselectv>:
static
void deselect (void)
{
	BYTE d;

	SPI_PORT |= (1<<SPI_PIN_SS);
    1fdc:	85 b1       	in	r24, 0x05	; 5
    1fde:	82 60       	ori	r24, 0x02	; 2
    1fe0:	85 b9       	out	0x05, r24	; 5
    1fe2:	08 95       	ret

00001fe4 <_ZL6selectv>:
/* Select the card and wait for ready                                    */
/*-----------------------------------------------------------------------*/

static
int select (void)	/* 1:OK, 0:Timeout */
{
    1fe4:	cf 93       	push	r28
    1fe6:	df 93       	push	r29
	BYTE d;

	SPI_PORT &= ~(1<<SPI_PIN_SS);
    1fe8:	85 b1       	in	r24, 0x05	; 5
    1fea:	8d 7f       	andi	r24, 0xFD	; 253
    1fec:	85 b9       	out	0x05, r24	; 5
	//rcvr_mmc(&d, 1);	/* Dummy clock (force DO enabled) */

	if (wait_ready()) return 1;	/* OK */
    1fee:	cf df       	rcall	.-98     	; 0x1f8e <_ZL10wait_readyv>
    1ff0:	ec 01       	movw	r28, r24
    1ff2:	89 2b       	or	r24, r25
    1ff4:	11 f4       	brne	.+4      	; 0x1ffa <_ZL6selectv+0x16>
	deselect();
    1ff6:	f2 df       	rcall	.-28     	; 0x1fdc <_ZL8deselectv>
    1ff8:	02 c0       	rjmp	.+4      	; 0x1ffe <_ZL6selectv+0x1a>
	return 0;			/* Failed */
    1ffa:	c1 e0       	ldi	r28, 0x01	; 1
	BYTE d;

	SPI_PORT &= ~(1<<SPI_PIN_SS);
	//rcvr_mmc(&d, 1);	/* Dummy clock (force DO enabled) */

	if (wait_ready()) return 1;	/* OK */
    1ffc:	d0 e0       	ldi	r29, 0x00	; 0
    1ffe:	ce 01       	movw	r24, r28
	deselect();
	return 0;			/* Failed */
}
    2000:	df 91       	pop	r29
    2002:	cf 91       	pop	r28
    2004:	08 95       	ret

00002006 <_ZL14rcvr_datablockPhj>:
    2006:	cf 92       	push	r12
static
int rcvr_datablock (	/* 1:OK, 0:Failed */
	BYTE *buff,			/* Data buffer to store received data */
	UINT btr			/* Byte count */
)
{
    2008:	df 92       	push	r13
    200a:	ef 92       	push	r14
    200c:	ff 92       	push	r15
    200e:	0f 93       	push	r16
    2010:	1f 93       	push	r17
    2012:	cf 93       	push	r28
    2014:	df 93       	push	r29
    2016:	00 d0       	rcall	.+0      	; 0x2018 <_ZL14rcvr_datablockPhj+0x12>
    2018:	cd b7       	in	r28, 0x3d	; 61
    201a:	de b7       	in	r29, 0x3e	; 62
    201c:	7c 01       	movw	r14, r24
    201e:	6b 01       	movw	r12, r22
	BYTE d[2];
	UINT tmr;


	for (tmr = 1000; tmr; tmr--) {	/* Wait for data packet in timeout of 100ms */
    2020:	08 ee       	ldi	r16, 0xE8	; 232
    2022:	13 e0       	ldi	r17, 0x03	; 3
    2024:	01 15       	cp	r16, r1
    2026:	11 05       	cpc	r17, r1
    2028:	71 f0       	breq	.+28     	; 0x2046 <_ZL14rcvr_datablockPhj+0x40>
		rcvr_mmc(d, 1);
    202a:	61 e0       	ldi	r22, 0x01	; 1
    202c:	70 e0       	ldi	r23, 0x00	; 0
    202e:	ce 01       	movw	r24, r28
    2030:	01 96       	adiw	r24, 0x01	; 1
    2032:	9d df       	rcall	.-198    	; 0x1f6e <_ZL8rcvr_mmcPhj>
		if (d[0] != 0xFF) break;
    2034:	89 81       	ldd	r24, Y+1	; 0x01
    2036:	8f 3f       	cpi	r24, 0xFF	; 255
    2038:	31 f4       	brne	.+12     	; 0x2046 <_ZL14rcvr_datablockPhj+0x40>
		dly_us(100);
    203a:	84 e6       	ldi	r24, 0x64	; 100
    203c:	90 e0       	ldi	r25, 0x00	; 0
    203e:	86 df       	rcall	.-244    	; 0x1f4c <_ZL6dly_usj>
{
	BYTE d[2];
	UINT tmr;


	for (tmr = 1000; tmr; tmr--) {	/* Wait for data packet in timeout of 100ms */
    2040:	01 50       	subi	r16, 0x01	; 1
    2042:	11 09       	sbc	r17, r1
    2044:	ef cf       	rjmp	.-34     	; 0x2024 <_ZL14rcvr_datablockPhj+0x1e>
		rcvr_mmc(d, 1);
		if (d[0] != 0xFF) break;
		dly_us(100);
	}
	if (d[0] != 0xFE) return 0;		/* If not valid data token, return with error */
    2046:	89 81       	ldd	r24, Y+1	; 0x01
    2048:	8e 3f       	cpi	r24, 0xFE	; 254
    204a:	59 f4       	brne	.+22     	; 0x2062 <_ZL14rcvr_datablockPhj+0x5c>

	rcvr_mmc(buff, btr);			/* Receive the data block into buffer */
    204c:	b6 01       	movw	r22, r12
    204e:	c7 01       	movw	r24, r14
    2050:	8e df       	rcall	.-228    	; 0x1f6e <_ZL8rcvr_mmcPhj>
	rcvr_mmc(d, 2);					/* Discard CRC */
    2052:	62 e0       	ldi	r22, 0x02	; 2
    2054:	70 e0       	ldi	r23, 0x00	; 0
    2056:	ce 01       	movw	r24, r28
    2058:	01 96       	adiw	r24, 0x01	; 1
    205a:	89 df       	rcall	.-238    	; 0x1f6e <_ZL8rcvr_mmcPhj>

	return 1;						/* Return with success */
    205c:	81 e0       	ldi	r24, 0x01	; 1
    205e:	90 e0       	ldi	r25, 0x00	; 0
    2060:	02 c0       	rjmp	.+4      	; 0x2066 <_ZL14rcvr_datablockPhj+0x60>
	for (tmr = 1000; tmr; tmr--) {	/* Wait for data packet in timeout of 100ms */
		rcvr_mmc(d, 1);
		if (d[0] != 0xFF) break;
		dly_us(100);
	}
	if (d[0] != 0xFE) return 0;		/* If not valid data token, return with error */
    2062:	80 e0       	ldi	r24, 0x00	; 0
    2064:	90 e0       	ldi	r25, 0x00	; 0

	rcvr_mmc(buff, btr);			/* Receive the data block into buffer */
	rcvr_mmc(d, 2);					/* Discard CRC */

	return 1;						/* Return with success */
}
    2066:	0f 90       	pop	r0
    2068:	0f 90       	pop	r0
    206a:	df 91       	pop	r29
    206c:	cf 91       	pop	r28
    206e:	1f 91       	pop	r17
    2070:	0f 91       	pop	r16
    2072:	ff 90       	pop	r15
    2074:	ef 90       	pop	r14
    2076:	df 90       	pop	r13
    2078:	cf 90       	pop	r12
    207a:	08 95       	ret

0000207c <_ZL14xmit_datablockPKhh>:
static
int xmit_datablock (	/* 1:OK, 0:Failed */
	const BYTE *buff,	/* 512 byte data block to be transmitted */
	BYTE token			/* Data/Stop token */
)
{
    207c:	ef 92       	push	r14
    207e:	ff 92       	push	r15
    2080:	1f 93       	push	r17
    2082:	cf 93       	push	r28
    2084:	df 93       	push	r29
    2086:	00 d0       	rcall	.+0      	; 0x2088 <_ZL14xmit_datablockPKhh+0xc>
    2088:	cd b7       	in	r28, 0x3d	; 61
    208a:	de b7       	in	r29, 0x3e	; 62
    208c:	7c 01       	movw	r14, r24
    208e:	16 2f       	mov	r17, r22
	BYTE d[2];


	if (!wait_ready()) return 0;
    2090:	7e df       	rcall	.-260    	; 0x1f8e <_ZL10wait_readyv>
    2092:	00 97       	sbiw	r24, 0x00	; 0
    2094:	11 f1       	breq	.+68     	; 0x20da <_ZL14xmit_datablockPKhh+0x5e>

	d[0] = token;
    2096:	19 83       	std	Y+1, r17	; 0x01
	xmit_mmc(d, 1);				/* Xmit a token */
    2098:	61 e0       	ldi	r22, 0x01	; 1
    209a:	70 e0       	ldi	r23, 0x00	; 0
    209c:	ce 01       	movw	r24, r28
    209e:	01 96       	adiw	r24, 0x01	; 1
    20a0:	59 df       	rcall	.-334    	; 0x1f54 <_ZL8xmit_mmcPKhj>
	if (token != 0xFD) {		/* Is it data token? */
    20a2:	1d 3f       	cpi	r17, 0xFD	; 253
    20a4:	a9 f0       	breq	.+42     	; 0x20d0 <_ZL14xmit_datablockPKhh+0x54>
		xmit_mmc(buff, 512);	/* Xmit the 512 byte data block to MMC */
    20a6:	60 e0       	ldi	r22, 0x00	; 0
    20a8:	72 e0       	ldi	r23, 0x02	; 2
    20aa:	c7 01       	movw	r24, r14
    20ac:	53 df       	rcall	.-346    	; 0x1f54 <_ZL8xmit_mmcPKhj>
		rcvr_mmc(d, 2);			/* Xmit dummy CRC (0xFF,0xFF) */
    20ae:	62 e0       	ldi	r22, 0x02	; 2
    20b0:	70 e0       	ldi	r23, 0x00	; 0
    20b2:	ce 01       	movw	r24, r28
    20b4:	01 96       	adiw	r24, 0x01	; 1
    20b6:	5b df       	rcall	.-330    	; 0x1f6e <_ZL8rcvr_mmcPhj>
		rcvr_mmc(d, 1);			/* Receive data response */
    20b8:	61 e0       	ldi	r22, 0x01	; 1
    20ba:	70 e0       	ldi	r23, 0x00	; 0
    20bc:	ce 01       	movw	r24, r28
    20be:	01 96       	adiw	r24, 0x01	; 1
    20c0:	56 df       	rcall	.-340    	; 0x1f6e <_ZL8rcvr_mmcPhj>
		if ((d[0] & 0x1F) != 0x05)	/* If not accepted, return with error */
    20c2:	89 81       	ldd	r24, Y+1	; 0x01
    20c4:	8f 71       	andi	r24, 0x1F	; 31
    20c6:	85 30       	cpi	r24, 0x05	; 5
    20c8:	31 f0       	breq	.+12     	; 0x20d6 <_ZL14xmit_datablockPKhh+0x5a>
			return 0;
    20ca:	80 e0       	ldi	r24, 0x00	; 0
    20cc:	90 e0       	ldi	r25, 0x00	; 0
    20ce:	05 c0       	rjmp	.+10     	; 0x20da <_ZL14xmit_datablockPKhh+0x5e>
	}

	return 1;
    20d0:	81 e0       	ldi	r24, 0x01	; 1
    20d2:	90 e0       	ldi	r25, 0x00	; 0
    20d4:	02 c0       	rjmp	.+4      	; 0x20da <_ZL14xmit_datablockPKhh+0x5e>
    20d6:	81 e0       	ldi	r24, 0x01	; 1
    20d8:	90 e0       	ldi	r25, 0x00	; 0
}
    20da:	0f 90       	pop	r0
    20dc:	0f 90       	pop	r0
    20de:	df 91       	pop	r29
    20e0:	cf 91       	pop	r28
    20e2:	1f 91       	pop	r17
    20e4:	ff 90       	pop	r15
    20e6:	ef 90       	pop	r14
    20e8:	08 95       	ret

000020ea <_ZL8send_cmdhm>:
static
BYTE send_cmd (		/* Returns command response (bit7==1:Send failed)*/
	BYTE cmd,		/* Command byte */
	DWORD arg		/* Argument */
)
{
    20ea:	df 92       	push	r13
    20ec:	ef 92       	push	r14
    20ee:	ff 92       	push	r15
    20f0:	0f 93       	push	r16
    20f2:	1f 93       	push	r17
    20f4:	cf 93       	push	r28
    20f6:	df 93       	push	r29
    20f8:	cd b7       	in	r28, 0x3d	; 61
    20fa:	de b7       	in	r29, 0x3e	; 62
    20fc:	27 97       	sbiw	r28, 0x07	; 7
    20fe:	0f b6       	in	r0, 0x3f	; 63
    2100:	f8 94       	cli
    2102:	de bf       	out	0x3e, r29	; 62
    2104:	0f be       	out	0x3f, r0	; 63
    2106:	cd bf       	out	0x3d, r28	; 61
    2108:	18 2f       	mov	r17, r24
    210a:	04 2f       	mov	r16, r20
    210c:	f5 2e       	mov	r15, r21
    210e:	e6 2e       	mov	r14, r22
    2110:	d7 2e       	mov	r13, r23
	BYTE n, d, buf[6];


	if (cmd & 0x80) {	/* ACMD<n> is the command sequence of CMD55-CMD<n> */
    2112:	88 23       	and	r24, r24
    2114:	44 f4       	brge	.+16     	; 0x2126 <_ZL8send_cmdhm+0x3c>
		cmd &= 0x7F;
    2116:	1f 77       	andi	r17, 0x7F	; 127
		n = send_cmd(CMD55, 0);
    2118:	40 e0       	ldi	r20, 0x00	; 0
    211a:	50 e0       	ldi	r21, 0x00	; 0
    211c:	ba 01       	movw	r22, r20
    211e:	87 e3       	ldi	r24, 0x37	; 55
    2120:	e4 df       	rcall	.-56     	; 0x20ea <_ZL8send_cmdhm>
		if (n > 1) return n;
    2122:	82 30       	cpi	r24, 0x02	; 2
	}

	/* Select the card and wait for ready */
	deselect();
    2124:	a0 f5       	brcc	.+104    	; 0x218e <_ZL8send_cmdhm+0xa4>
	if (!select()) return 0xFF;
    2126:	5a df       	rcall	.-332    	; 0x1fdc <_ZL8deselectv>
    2128:	5d df       	rcall	.-326    	; 0x1fe4 <_ZL6selectv>
    212a:	89 2b       	or	r24, r25
    212c:	79 f1       	breq	.+94     	; 0x218c <_ZL8send_cmdhm+0xa2>

	/* Send a command packet */
	buf[0] = 0x40 | cmd;			/* Start + Command index */
    212e:	81 2f       	mov	r24, r17
    2130:	80 64       	ori	r24, 0x40	; 64
    2132:	8a 83       	std	Y+2, r24	; 0x02
	buf[1] = (BYTE)(arg >> 24);		/* Argument[31..24] */
    2134:	db 82       	std	Y+3, r13	; 0x03
	buf[2] = (BYTE)(arg >> 16);		/* Argument[23..16] */
    2136:	ec 82       	std	Y+4, r14	; 0x04
	buf[3] = (BYTE)(arg >> 8);		/* Argument[15..8] */
    2138:	fd 82       	std	Y+5, r15	; 0x05
	buf[4] = (BYTE)arg;				/* Argument[7..0] */
    213a:	0e 83       	std	Y+6, r16	; 0x06
	n = 0x01;						/* Dummy CRC + Stop */
	if (cmd == CMD0) n = 0x95;		/* (valid CRC for CMD0(0)) */
    213c:	11 23       	and	r17, r17
    213e:	11 f0       	breq	.+4      	; 0x2144 <_ZL8send_cmdhm+0x5a>
	buf[0] = 0x40 | cmd;			/* Start + Command index */
	buf[1] = (BYTE)(arg >> 24);		/* Argument[31..24] */
	buf[2] = (BYTE)(arg >> 16);		/* Argument[23..16] */
	buf[3] = (BYTE)(arg >> 8);		/* Argument[15..8] */
	buf[4] = (BYTE)arg;				/* Argument[7..0] */
	n = 0x01;						/* Dummy CRC + Stop */
    2140:	81 e0       	ldi	r24, 0x01	; 1
    2142:	01 c0       	rjmp	.+2      	; 0x2146 <_ZL8send_cmdhm+0x5c>
	if (cmd == CMD0) n = 0x95;		/* (valid CRC for CMD0(0)) */
    2144:	85 e9       	ldi	r24, 0x95	; 149
	if (cmd == CMD8) n = 0x87;		/* (valid CRC for CMD8(0x1AA)) */
    2146:	18 30       	cpi	r17, 0x08	; 8
    2148:	09 f4       	brne	.+2      	; 0x214c <_ZL8send_cmdhm+0x62>
    214a:	87 e8       	ldi	r24, 0x87	; 135
	buf[5] = n;
    214c:	8f 83       	std	Y+7, r24	; 0x07
	xmit_mmc(buf, 6);
    214e:	66 e0       	ldi	r22, 0x06	; 6
    2150:	70 e0       	ldi	r23, 0x00	; 0
    2152:	ce 01       	movw	r24, r28
    2154:	02 96       	adiw	r24, 0x02	; 2
    2156:	fe de       	rcall	.-516    	; 0x1f54 <_ZL8xmit_mmcPKhj>

	/* Receive command response */
	if (cmd == CMD12) rcvr_mmc(&d, 1);	/* Skip a stuff byte when stop reading */
    2158:	1c 30       	cpi	r17, 0x0C	; 12
    215a:	29 f4       	brne	.+10     	; 0x2166 <_ZL8send_cmdhm+0x7c>
    215c:	61 e0       	ldi	r22, 0x01	; 1
    215e:	70 e0       	ldi	r23, 0x00	; 0
    2160:	ce 01       	movw	r24, r28
    2162:	01 96       	adiw	r24, 0x01	; 1
    2164:	04 df       	rcall	.-504    	; 0x1f6e <_ZL8rcvr_mmcPhj>
	n = 10;								/* Wait for a valid response in timeout of 10 attempts */
	do
		rcvr_mmc(&d, 1);
    2166:	1a e0       	ldi	r17, 0x0A	; 10
    2168:	61 e0       	ldi	r22, 0x01	; 1
    216a:	70 e0       	ldi	r23, 0x00	; 0
    216c:	ce 01       	movw	r24, r28
    216e:	01 96       	adiw	r24, 0x01	; 1
    2170:	fe de       	rcall	.-516    	; 0x1f6e <_ZL8rcvr_mmcPhj>
	while ((d & 0x80) && --n);
    2172:	89 81       	ldd	r24, Y+1	; 0x01
    2174:	88 23       	and	r24, r24
    2176:	24 f4       	brge	.+8      	; 0x2180 <_ZL8send_cmdhm+0x96>
    2178:	11 50       	subi	r17, 0x01	; 1
    217a:	21 f0       	breq	.+8      	; 0x2184 <_ZL8send_cmdhm+0x9a>
    217c:	91 e0       	ldi	r25, 0x01	; 1
    217e:	03 c0       	rjmp	.+6      	; 0x2186 <_ZL8send_cmdhm+0x9c>
    2180:	90 e0       	ldi	r25, 0x00	; 0
    2182:	01 c0       	rjmp	.+2      	; 0x2186 <_ZL8send_cmdhm+0x9c>
    2184:	90 e0       	ldi	r25, 0x00	; 0
	xmit_mmc(buf, 6);

	/* Receive command response */
	if (cmd == CMD12) rcvr_mmc(&d, 1);	/* Skip a stuff byte when stop reading */
	n = 10;								/* Wait for a valid response in timeout of 10 attempts */
	do
    2186:	91 11       	cpse	r25, r1
    2188:	ef cf       	rjmp	.-34     	; 0x2168 <_ZL8send_cmdhm+0x7e>
    218a:	01 c0       	rjmp	.+2      	; 0x218e <_ZL8send_cmdhm+0xa4>
		if (n > 1) return n;
	}

	/* Select the card and wait for ready */
	deselect();
	if (!select()) return 0xFF;
    218c:	8f ef       	ldi	r24, 0xFF	; 255
	do
		rcvr_mmc(&d, 1);
	while ((d & 0x80) && --n);

	return d;			/* Return with the response value */
}
    218e:	27 96       	adiw	r28, 0x07	; 7
    2190:	0f b6       	in	r0, 0x3f	; 63
    2192:	f8 94       	cli
    2194:	de bf       	out	0x3e, r29	; 62
    2196:	0f be       	out	0x3f, r0	; 63
    2198:	cd bf       	out	0x3d, r28	; 61
    219a:	df 91       	pop	r29
    219c:	cf 91       	pop	r28
    219e:	1f 91       	pop	r17
    21a0:	0f 91       	pop	r16
    21a2:	ff 90       	pop	r15
    21a4:	ef 90       	pop	r14
    21a6:	df 90       	pop	r13
    21a8:	08 95       	ret

000021aa <_Z15spi_master_initv>:
/* Transmit bytes to the card                               */
/*-----------------------------------------------------------------------*/

void spi_master_init(){
	// Pin Configuration
	SPI_DDR |= (1<<SPI_PIN_SS);
    21aa:	84 b1       	in	r24, 0x04	; 4
    21ac:	82 60       	ori	r24, 0x02	; 2
    21ae:	84 b9       	out	0x04, r24	; 4
	SPI_PORT|= (1<<SPI_PIN_SS);
    21b0:	85 b1       	in	r24, 0x05	; 5
    21b2:	82 60       	ori	r24, 0x02	; 2
    21b4:	85 b9       	out	0x05, r24	; 5
	
	// Set MOSI and SCK output, all others input
	SPI_DDR |= (1<<SPI_PIN_MOSI)|(1<<SPI_PIN_SCK);
    21b6:	84 b1       	in	r24, 0x04	; 4
    21b8:	80 6a       	ori	r24, 0xA0	; 160
    21ba:	84 b9       	out	0x04, r24	; 4
	// Enable SPI, Master, set clock rate
	SPCR = (1<<SPIE)|(1<<SPE)|(1<<MSTR)|(0<<CPOL)|(0<<CPHA)|(0x01<<SPR0);
    21bc:	81 ed       	ldi	r24, 0xD1	; 209
    21be:	8c bd       	out	0x2c, r24	; 44
	
	//-------------------------
	PORTB&= ~(1<<2);
    21c0:	85 b1       	in	r24, 0x05	; 5
    21c2:	8b 7f       	andi	r24, 0xFB	; 251
    21c4:	85 b9       	out	0x05, r24	; 5
	SPDR = 0x84;
    21c6:	84 e8       	ldi	r24, 0x84	; 132
    21c8:	8e bd       	out	0x2e, r24	; 46

	//Wait until transmission complete
	while(!(SPSR & (1<<SPIF) ));
    21ca:	0d b4       	in	r0, 0x2d	; 45
    21cc:	07 fe       	sbrs	r0, 7
    21ce:	fd cf       	rjmp	.-6      	; 0x21ca <_Z15spi_master_initv+0x20>

	SPDR = 0x97;
    21d0:	87 e9       	ldi	r24, 0x97	; 151
    21d2:	8e bd       	out	0x2e, r24	; 46

	//Wait until transmission complete
	while(!(SPSR & (1<<SPIF) ));
    21d4:	0d b4       	in	r0, 0x2d	; 45
    21d6:	07 fe       	sbrs	r0, 7
    21d8:	fd cf       	rjmp	.-6      	; 0x21d4 <_Z15spi_master_initv+0x2a>

	PORTB|= (1<<2);
    21da:	85 b1       	in	r24, 0x05	; 5
    21dc:	84 60       	ori	r24, 0x04	; 4
    21de:	85 b9       	out	0x05, r24	; 5
	
	//----------------------------
	// Send the register address
	PORTB&= ~(1<<2);
    21e0:	85 b1       	in	r24, 0x05	; 5
    21e2:	8b 7f       	andi	r24, 0xFB	; 251
    21e4:	85 b9       	out	0x05, r24	; 5
	SPDR = 0x00;
    21e6:	1e bc       	out	0x2e, r1	; 46

	//Wait until transmission complete
	while(!(SPSR & (1<<SPIF) ));
    21e8:	0d b4       	in	r0, 0x2d	; 45
    21ea:	07 fe       	sbrs	r0, 7
    21ec:	fd cf       	rjmp	.-6      	; 0x21e8 <_Z15spi_master_initv+0x3e>

	// Receive the value from the ArduCAM
	SPDR = 0x00; //Command
    21ee:	1e bc       	out	0x2e, r1	; 46

	//Wait until transmission complete
	while(!(SPSR & (1<<SPIF) ));
    21f0:	0d b4       	in	r0, 0x2d	; 45
    21f2:	07 fe       	sbrs	r0, 7
    21f4:	fd cf       	rjmp	.-6      	; 0x21f0 <_Z15spi_master_initv+0x46>
	uint8_t data = SPDR;
    21f6:	9e b5       	in	r25, 0x2e	; 46

	PORTB|= (1<<2);
    21f8:	85 b1       	in	r24, 0x05	; 5
    21fa:	84 60       	ori	r24, 0x04	; 4
    21fc:	85 b9       	out	0x05, r24	; 5
	
	if (data==0x97) {
    21fe:	97 39       	cpi	r25, 0x97	; 151
    2200:	19 f4       	brne	.+6      	; 0x2208 <_Z15spi_master_initv+0x5e>
		PORTD|= (1 << 4);
    2202:	8b b1       	in	r24, 0x0b	; 11
    2204:	80 61       	ori	r24, 0x10	; 16
    2206:	8b b9       	out	0x0b, r24	; 11
    2208:	08 95       	ret

0000220a <disk_status>:

DSTATUS disk_status (
	BYTE drv			/* Drive number (always 0) */
)
{
	if (drv) return STA_NOINIT;
    220a:	81 11       	cpse	r24, r1
    220c:	03 c0       	rjmp	.+6      	; 0x2214 <disk_status+0xa>

	return Stat;
    220e:	80 91 06 01 	lds	r24, 0x0106	; 0x800106 <_ZL4Stat>
    2212:	08 95       	ret

DSTATUS disk_status (
	BYTE drv			/* Drive number (always 0) */
)
{
	if (drv) return STA_NOINIT;
    2214:	81 e0       	ldi	r24, 0x01	; 1

	return Stat;
}
    2216:	08 95       	ret

00002218 <disk_initialize>:
/*-----------------------------------------------------------------------*/

DSTATUS disk_initialize (
	BYTE drv		/* Physical drive number (0) */
)
{
    2218:	ef 92       	push	r14
    221a:	ff 92       	push	r15
    221c:	0f 93       	push	r16
    221e:	1f 93       	push	r17
    2220:	cf 93       	push	r28
    2222:	df 93       	push	r29
    2224:	00 d0       	rcall	.+0      	; 0x2226 <disk_initialize+0xe>
    2226:	00 d0       	rcall	.+0      	; 0x2228 <disk_initialize+0x10>
    2228:	cd b7       	in	r28, 0x3d	; 61
    222a:	de b7       	in	r29, 0x3e	; 62
	BYTE n, ty, cmd, buf[4];
	UINT tmr;
	DSTATUS s;


	if (drv) return RES_NOTRDY;
    222c:	81 11       	cpse	r24, r1
    222e:	aa c0       	rjmp	.+340    	; 0x2384 <disk_initialize+0x16c>

	dly_us(10000);			/* 10ms */
    2230:	80 e1       	ldi	r24, 0x10	; 16
    2232:	97 e2       	ldi	r25, 0x27	; 39
    2234:	8b de       	rcall	.-746    	; 0x1f4c <_ZL6dly_usj>
	
	spi_master_init();
    2236:	b9 df       	rcall	.-142    	; 0x21aa <_Z15spi_master_initv>
    2238:	1a e0       	ldi	r17, 0x0A	; 10

	for (n = 10; n; n--) rcvr_mmc(buf, 1);	/* Apply 80 dummy clocks and the card gets ready to receive command */
    223a:	11 23       	and	r17, r17
    223c:	39 f0       	breq	.+14     	; 0x224c <disk_initialize+0x34>
    223e:	61 e0       	ldi	r22, 0x01	; 1
    2240:	70 e0       	ldi	r23, 0x00	; 0
    2242:	ce 01       	movw	r24, r28
    2244:	01 96       	adiw	r24, 0x01	; 1
    2246:	93 de       	rcall	.-730    	; 0x1f6e <_ZL8rcvr_mmcPhj>
    2248:	11 50       	subi	r17, 0x01	; 1
    224a:	f7 cf       	rjmp	.-18     	; 0x223a <disk_initialize+0x22>
    224c:	40 e0       	ldi	r20, 0x00	; 0

	ty = 0;
	if (send_cmd(CMD0, 0) == 1) {			/* Enter Idle state */
    224e:	50 e0       	ldi	r21, 0x00	; 0
    2250:	ba 01       	movw	r22, r20
    2252:	80 e0       	ldi	r24, 0x00	; 0
    2254:	4a df       	rcall	.-364    	; 0x20ea <_ZL8send_cmdhm>
    2256:	81 30       	cpi	r24, 0x01	; 1
    2258:	09 f0       	breq	.+2      	; 0x225c <disk_initialize+0x44>
    225a:	7d c0       	rjmp	.+250    	; 0x2356 <disk_initialize+0x13e>
    225c:	4a ea       	ldi	r20, 0xAA	; 170
		if (send_cmd(CMD8, 0x1AA) == 1) {	/* SDv2? */
    225e:	51 e0       	ldi	r21, 0x01	; 1
    2260:	60 e0       	ldi	r22, 0x00	; 0
    2262:	70 e0       	ldi	r23, 0x00	; 0
    2264:	88 e0       	ldi	r24, 0x08	; 8
    2266:	41 df       	rcall	.-382    	; 0x20ea <_ZL8send_cmdhm>
    2268:	81 30       	cpi	r24, 0x01	; 1
    226a:	09 f0       	breq	.+2      	; 0x226e <disk_initialize+0x56>
    226c:	3e c0       	rjmp	.+124    	; 0x22ea <disk_initialize+0xd2>
    226e:	64 e0       	ldi	r22, 0x04	; 4
			rcvr_mmc(buf, 4);							/* Get trailing return value of R7 resp */
    2270:	70 e0       	ldi	r23, 0x00	; 0
    2272:	ce 01       	movw	r24, r28
    2274:	01 96       	adiw	r24, 0x01	; 1
    2276:	7b de       	rcall	.-778    	; 0x1f6e <_ZL8rcvr_mmcPhj>
    2278:	8b 81       	ldd	r24, Y+3	; 0x03
    227a:	81 30       	cpi	r24, 0x01	; 1
			if (buf[2] == 0x01 && buf[3] == 0xAA) {		/* The card can work at vdd range of 2.7-3.6V */
    227c:	09 f0       	breq	.+2      	; 0x2280 <disk_initialize+0x68>
    227e:	6d c0       	rjmp	.+218    	; 0x235a <disk_initialize+0x142>
    2280:	8c 81       	ldd	r24, Y+4	; 0x04
    2282:	8a 3a       	cpi	r24, 0xAA	; 170
    2284:	09 f0       	breq	.+2      	; 0x2288 <disk_initialize+0x70>
    2286:	6b c0       	rjmp	.+214    	; 0x235e <disk_initialize+0x146>
    2288:	08 ee       	ldi	r16, 0xE8	; 232
    228a:	13 e0       	ldi	r17, 0x03	; 3
    228c:	01 15       	cp	r16, r1
    228e:	11 05       	cpc	r17, r1
				for (tmr = 1000; tmr; tmr--) {			/* Wait for leaving idle state (ACMD41 with HCS bit) */
    2290:	71 f0       	breq	.+28     	; 0x22ae <disk_initialize+0x96>
    2292:	40 e0       	ldi	r20, 0x00	; 0
					if (send_cmd(ACMD41, 1UL << 30) == 0) break;
    2294:	50 e0       	ldi	r21, 0x00	; 0
    2296:	60 e0       	ldi	r22, 0x00	; 0
    2298:	70 e4       	ldi	r23, 0x40	; 64
    229a:	89 ea       	ldi	r24, 0xA9	; 169
    229c:	26 df       	rcall	.-436    	; 0x20ea <_ZL8send_cmdhm>
    229e:	88 23       	and	r24, r24
    22a0:	31 f0       	breq	.+12     	; 0x22ae <disk_initialize+0x96>
    22a2:	88 ee       	ldi	r24, 0xE8	; 232
					dly_us(1000);
    22a4:	93 e0       	ldi	r25, 0x03	; 3
    22a6:	52 de       	rcall	.-860    	; 0x1f4c <_ZL6dly_usj>
    22a8:	01 50       	subi	r16, 0x01	; 1
    22aa:	11 09       	sbc	r17, r1
	ty = 0;
	if (send_cmd(CMD0, 0) == 1) {			/* Enter Idle state */
		if (send_cmd(CMD8, 0x1AA) == 1) {	/* SDv2? */
			rcvr_mmc(buf, 4);							/* Get trailing return value of R7 resp */
			if (buf[2] == 0x01 && buf[3] == 0xAA) {		/* The card can work at vdd range of 2.7-3.6V */
				for (tmr = 1000; tmr; tmr--) {			/* Wait for leaving idle state (ACMD41 with HCS bit) */
    22ac:	ef cf       	rjmp	.-34     	; 0x228c <disk_initialize+0x74>
    22ae:	01 2b       	or	r16, r17
					if (send_cmd(ACMD41, 1UL << 30) == 0) break;
					dly_us(1000);
				}
				if (tmr && send_cmd(CMD58, 0) == 0) {	/* Check CCS bit in the OCR */
    22b0:	49 f0       	breq	.+18     	; 0x22c4 <disk_initialize+0xac>
    22b2:	40 e0       	ldi	r20, 0x00	; 0
    22b4:	50 e0       	ldi	r21, 0x00	; 0
    22b6:	ba 01       	movw	r22, r20
    22b8:	8a e3       	ldi	r24, 0x3A	; 58
    22ba:	17 df       	rcall	.-466    	; 0x20ea <_ZL8send_cmdhm>
    22bc:	81 11       	cpse	r24, r1
    22be:	04 c0       	rjmp	.+8      	; 0x22c8 <disk_initialize+0xb0>
    22c0:	81 e0       	ldi	r24, 0x01	; 1
    22c2:	03 c0       	rjmp	.+6      	; 0x22ca <disk_initialize+0xb2>
    22c4:	80 e0       	ldi	r24, 0x00	; 0
    22c6:	01 c0       	rjmp	.+2      	; 0x22ca <disk_initialize+0xb2>
    22c8:	80 e0       	ldi	r24, 0x00	; 0
    22ca:	88 23       	and	r24, r24
    22cc:	09 f4       	brne	.+2      	; 0x22d0 <disk_initialize+0xb8>
    22ce:	49 c0       	rjmp	.+146    	; 0x2362 <disk_initialize+0x14a>
    22d0:	64 e0       	ldi	r22, 0x04	; 4
					rcvr_mmc(buf, 4);
    22d2:	70 e0       	ldi	r23, 0x00	; 0
    22d4:	ce 01       	movw	r24, r28
    22d6:	01 96       	adiw	r24, 0x01	; 1
    22d8:	4a de       	rcall	.-876    	; 0x1f6e <_ZL8rcvr_mmcPhj>
    22da:	89 81       	ldd	r24, Y+1	; 0x01
    22dc:	86 ff       	sbrs	r24, 6
					ty = (buf[0] & 0x40) ? CT_SD2 | CT_BLOCK : CT_SD2;	/* SDv2 */
    22de:	43 c0       	rjmp	.+134    	; 0x2366 <disk_initialize+0x14e>
    22e0:	0f 2e       	mov	r0, r31
    22e2:	fc e0       	ldi	r31, 0x0C	; 12
    22e4:	ff 2e       	mov	r15, r31
    22e6:	f0 2d       	mov	r31, r0
    22e8:	43 c0       	rjmp	.+134    	; 0x2370 <disk_initialize+0x158>
    22ea:	40 e0       	ldi	r20, 0x00	; 0
				}
			}
		} else {							/* SDv1 or MMCv3 */
			if (send_cmd(ACMD41, 0) <= 1) 	{
    22ec:	50 e0       	ldi	r21, 0x00	; 0
    22ee:	ba 01       	movw	r22, r20
    22f0:	89 ea       	ldi	r24, 0xA9	; 169
    22f2:	fb de       	rcall	.-522    	; 0x20ea <_ZL8send_cmdhm>
    22f4:	82 30       	cpi	r24, 0x02	; 2
    22f6:	40 f4       	brcc	.+16     	; 0x2308 <disk_initialize+0xf0>
    22f8:	0f 2e       	mov	r0, r31
    22fa:	f9 ea       	ldi	r31, 0xA9	; 169
				ty = CT_SD1; cmd = ACMD41;	/* SDv1 */
    22fc:	ef 2e       	mov	r14, r31
    22fe:	f0 2d       	mov	r31, r0
    2300:	68 94       	set
    2302:	ff 24       	eor	r15, r15
    2304:	f1 f8       	bld	r15, 1
    2306:	04 c0       	rjmp	.+8      	; 0x2310 <disk_initialize+0xf8>
    2308:	ee 24       	eor	r14, r14
    230a:	e3 94       	inc	r14
			} else {
				ty = CT_MMC; cmd = CMD1;	/* MMCv3 */
    230c:	ff 24       	eor	r15, r15
    230e:	f3 94       	inc	r15
    2310:	08 ee       	ldi	r16, 0xE8	; 232
			}
			for (tmr = 1000; tmr; tmr--) {			/* Wait for leaving idle state */
    2312:	13 e0       	ldi	r17, 0x03	; 3
    2314:	01 15       	cp	r16, r1
    2316:	11 05       	cpc	r17, r1
    2318:	69 f0       	breq	.+26     	; 0x2334 <disk_initialize+0x11c>
				if (send_cmd(cmd, 0) == 0) break;
    231a:	40 e0       	ldi	r20, 0x00	; 0
    231c:	50 e0       	ldi	r21, 0x00	; 0
    231e:	ba 01       	movw	r22, r20
    2320:	8e 2d       	mov	r24, r14
    2322:	e3 de       	rcall	.-570    	; 0x20ea <_ZL8send_cmdhm>
    2324:	88 23       	and	r24, r24
    2326:	31 f0       	breq	.+12     	; 0x2334 <disk_initialize+0x11c>
    2328:	88 ee       	ldi	r24, 0xE8	; 232
				dly_us(1000);
    232a:	93 e0       	ldi	r25, 0x03	; 3
    232c:	0f de       	rcall	.-994    	; 0x1f4c <_ZL6dly_usj>
    232e:	01 50       	subi	r16, 0x01	; 1
			if (send_cmd(ACMD41, 0) <= 1) 	{
				ty = CT_SD1; cmd = ACMD41;	/* SDv1 */
			} else {
				ty = CT_MMC; cmd = CMD1;	/* MMCv3 */
			}
			for (tmr = 1000; tmr; tmr--) {			/* Wait for leaving idle state */
    2330:	11 09       	sbc	r17, r1
    2332:	f0 cf       	rjmp	.-32     	; 0x2314 <disk_initialize+0xfc>
    2334:	01 2b       	or	r16, r17
				if (send_cmd(cmd, 0) == 0) break;
				dly_us(1000);
			}
			if (!tmr || send_cmd(CMD16, 512) != 0)	/* Set R/W block length to 512 */
    2336:	49 f0       	breq	.+18     	; 0x234a <disk_initialize+0x132>
    2338:	40 e0       	ldi	r20, 0x00	; 0
    233a:	52 e0       	ldi	r21, 0x02	; 2
    233c:	60 e0       	ldi	r22, 0x00	; 0
    233e:	70 e0       	ldi	r23, 0x00	; 0
    2340:	80 e1       	ldi	r24, 0x10	; 16
    2342:	d3 de       	rcall	.-602    	; 0x20ea <_ZL8send_cmdhm>
    2344:	81 11       	cpse	r24, r1
    2346:	03 c0       	rjmp	.+6      	; 0x234e <disk_initialize+0x136>
    2348:	03 c0       	rjmp	.+6      	; 0x2350 <disk_initialize+0x138>
    234a:	81 e0       	ldi	r24, 0x01	; 1
    234c:	01 c0       	rjmp	.+2      	; 0x2350 <disk_initialize+0x138>
    234e:	81 e0       	ldi	r24, 0x01	; 1
    2350:	81 11       	cpse	r24, r1
    2352:	0d c0       	rjmp	.+26     	; 0x236e <disk_initialize+0x156>
    2354:	0d c0       	rjmp	.+26     	; 0x2370 <disk_initialize+0x158>
    2356:	f1 2c       	mov	r15, r1
    2358:	0b c0       	rjmp	.+22     	; 0x2370 <disk_initialize+0x158>
	
	spi_master_init();

	for (n = 10; n; n--) rcvr_mmc(buf, 1);	/* Apply 80 dummy clocks and the card gets ready to receive command */

	ty = 0;
    235a:	f1 2c       	mov	r15, r1
    235c:	09 c0       	rjmp	.+18     	; 0x2370 <disk_initialize+0x158>
    235e:	f1 2c       	mov	r15, r1
    2360:	07 c0       	rjmp	.+14     	; 0x2370 <disk_initialize+0x158>
    2362:	f1 2c       	mov	r15, r1
    2364:	05 c0       	rjmp	.+10     	; 0x2370 <disk_initialize+0x158>
    2366:	68 94       	set
					if (send_cmd(ACMD41, 1UL << 30) == 0) break;
					dly_us(1000);
				}
				if (tmr && send_cmd(CMD58, 0) == 0) {	/* Check CCS bit in the OCR */
					rcvr_mmc(buf, 4);
					ty = (buf[0] & 0x40) ? CT_SD2 | CT_BLOCK : CT_SD2;	/* SDv2 */
    2368:	ff 24       	eor	r15, r15
    236a:	f2 f8       	bld	r15, 2
    236c:	01 c0       	rjmp	.+2      	; 0x2370 <disk_initialize+0x158>
    236e:	f1 2c       	mov	r15, r1
			for (tmr = 1000; tmr; tmr--) {			/* Wait for leaving idle state */
				if (send_cmd(cmd, 0) == 0) break;
				dly_us(1000);
			}
			if (!tmr || send_cmd(CMD16, 512) != 0)	/* Set R/W block length to 512 */
				ty = 0;
    2370:	f0 92 f0 10 	sts	0x10F0, r15	; 0x8010f0 <_ZL8CardType>
		}
	}
	CardType = ty;
    2374:	11 e0       	ldi	r17, 0x01	; 1
	s = ty ? 0 : STA_NOINIT;
    2376:	f1 10       	cpse	r15, r1
    2378:	10 e0       	ldi	r17, 0x00	; 0
    237a:	10 93 06 01 	sts	0x0106, r17	; 0x800106 <_ZL4Stat>
	Stat = s;
    237e:	2e de       	rcall	.-932    	; 0x1fdc <_ZL8deselectv>

	deselect();
    2380:	81 2f       	mov	r24, r17
    2382:	01 c0       	rjmp	.+2      	; 0x2386 <disk_initialize+0x16e>

	return s;
    2384:	83 e0       	ldi	r24, 0x03	; 3
    2386:	0f 90       	pop	r0
	BYTE n, ty, cmd, buf[4];
	UINT tmr;
	DSTATUS s;


	if (drv) return RES_NOTRDY;
    2388:	0f 90       	pop	r0
	Stat = s;

	deselect();

	return s;
}
    238a:	0f 90       	pop	r0
    238c:	0f 90       	pop	r0
    238e:	df 91       	pop	r29
    2390:	cf 91       	pop	r28
    2392:	1f 91       	pop	r17
    2394:	0f 91       	pop	r16
    2396:	ff 90       	pop	r15
    2398:	ef 90       	pop	r14
    239a:	08 95       	ret

0000239c <disk_read>:
    239c:	cf 92       	push	r12
    239e:	df 92       	push	r13
	BYTE drv,			/* Physical drive nmuber (0) */
	BYTE *buff,			/* Pointer to the data buffer to store read data */
	DWORD sector,		/* Start sector number (LBA) */
	BYTE count			/* Sector count (1..256(0)) */
)
{
    23a0:	ef 92       	push	r14
    23a2:	ff 92       	push	r15
    23a4:	0f 93       	push	r16
    23a6:	cf 93       	push	r28
    23a8:	df 93       	push	r29
    23aa:	eb 01       	movw	r28, r22
    23ac:	69 01       	movw	r12, r18
    23ae:	7a 01       	movw	r14, r20
	if (disk_status(drv) & STA_NOINIT) return RES_NOTRDY;
    23b0:	2c df       	rcall	.-424    	; 0x220a <disk_status>
    23b2:	80 fd       	sbrc	r24, 0
    23b4:	3e c0       	rjmp	.+124    	; 0x2432 <disk_read+0x96>
	if (!(CardType & CT_BLOCK)) sector *= 512;	/* Convert LBA to byte address if needed */
    23b6:	80 91 f0 10 	lds	r24, 0x10F0	; 0x8010f0 <_ZL8CardType>
    23ba:	83 fd       	sbrc	r24, 3
    23bc:	09 c0       	rjmp	.+18     	; 0x23d0 <disk_read+0x34>
    23be:	0b 2e       	mov	r0, r27
    23c0:	b9 e0       	ldi	r27, 0x09	; 9
    23c2:	cc 0c       	add	r12, r12
    23c4:	dd 1c       	adc	r13, r13
    23c6:	ee 1c       	adc	r14, r14
    23c8:	ff 1c       	adc	r15, r15
    23ca:	ba 95       	dec	r27
    23cc:	d1 f7       	brne	.-12     	; 0x23c2 <disk_read+0x26>
    23ce:	b0 2d       	mov	r27, r0

	if (count == 1) {	/* Single block read */
    23d0:	01 30       	cpi	r16, 0x01	; 1
    23d2:	a1 f4       	brne	.+40     	; 0x23fc <disk_read+0x60>
		if ((send_cmd(CMD17, sector) == 0)	/* READ_SINGLE_BLOCK */
    23d4:	b7 01       	movw	r22, r14
    23d6:	a6 01       	movw	r20, r12
    23d8:	81 e1       	ldi	r24, 0x11	; 17
    23da:	87 de       	rcall	.-754    	; 0x20ea <_ZL8send_cmdhm>
			&& rcvr_datablock(buff, 512))
    23dc:	81 11       	cpse	r24, r1
    23de:	08 c0       	rjmp	.+16     	; 0x23f0 <disk_read+0x54>
    23e0:	60 e0       	ldi	r22, 0x00	; 0
    23e2:	72 e0       	ldi	r23, 0x02	; 2
    23e4:	ce 01       	movw	r24, r28
    23e6:	0f de       	rcall	.-994    	; 0x2006 <_ZL14rcvr_datablockPhj>
    23e8:	89 2b       	or	r24, r25
    23ea:	21 f0       	breq	.+8      	; 0x23f4 <disk_read+0x58>
    23ec:	81 e0       	ldi	r24, 0x01	; 1
    23ee:	03 c0       	rjmp	.+6      	; 0x23f6 <disk_read+0x5a>
    23f0:	80 e0       	ldi	r24, 0x00	; 0
    23f2:	01 c0       	rjmp	.+2      	; 0x23f6 <disk_read+0x5a>
    23f4:	80 e0       	ldi	r24, 0x00	; 0
{
	if (disk_status(drv) & STA_NOINIT) return RES_NOTRDY;
	if (!(CardType & CT_BLOCK)) sector *= 512;	/* Convert LBA to byte address if needed */

	if (count == 1) {	/* Single block read */
		if ((send_cmd(CMD17, sector) == 0)	/* READ_SINGLE_BLOCK */
    23f6:	81 11       	cpse	r24, r1
    23f8:	16 c0       	rjmp	.+44     	; 0x2426 <disk_read+0x8a>
    23fa:	16 c0       	rjmp	.+44     	; 0x2428 <disk_read+0x8c>
			&& rcvr_datablock(buff, 512))
			count = 0;
	}
	else {				/* Multiple block read */
		if (send_cmd(CMD18, sector) == 0) {	/* READ_MULTIPLE_BLOCK */
    23fc:	b7 01       	movw	r22, r14
    23fe:	a6 01       	movw	r20, r12
    2400:	82 e1       	ldi	r24, 0x12	; 18
    2402:	73 de       	rcall	.-794    	; 0x20ea <_ZL8send_cmdhm>
    2404:	81 11       	cpse	r24, r1
    2406:	10 c0       	rjmp	.+32     	; 0x2428 <disk_read+0x8c>
			do {
				if (!rcvr_datablock(buff, 512)) break;
    2408:	60 e0       	ldi	r22, 0x00	; 0
    240a:	72 e0       	ldi	r23, 0x02	; 2
    240c:	ce 01       	movw	r24, r28
    240e:	fb dd       	rcall	.-1034   	; 0x2006 <_ZL14rcvr_datablockPhj>
    2410:	89 2b       	or	r24, r25
    2412:	19 f0       	breq	.+6      	; 0x241a <disk_read+0x7e>
    2414:	de 5f       	subi	r29, 0xFE	; 254
				buff += 512;
    2416:	01 50       	subi	r16, 0x01	; 1
			&& rcvr_datablock(buff, 512))
			count = 0;
	}
	else {				/* Multiple block read */
		if (send_cmd(CMD18, sector) == 0) {	/* READ_MULTIPLE_BLOCK */
			do {
    2418:	b9 f7       	brne	.-18     	; 0x2408 <disk_read+0x6c>
				if (!rcvr_datablock(buff, 512)) break;
				buff += 512;
			} while (--count);
			send_cmd(CMD12, 0);				/* STOP_TRANSMISSION */
    241a:	40 e0       	ldi	r20, 0x00	; 0
    241c:	50 e0       	ldi	r21, 0x00	; 0
    241e:	ba 01       	movw	r22, r20
    2420:	8c e0       	ldi	r24, 0x0C	; 12
    2422:	63 de       	rcall	.-826    	; 0x20ea <_ZL8send_cmdhm>
    2424:	01 c0       	rjmp	.+2      	; 0x2428 <disk_read+0x8c>
	if (!(CardType & CT_BLOCK)) sector *= 512;	/* Convert LBA to byte address if needed */

	if (count == 1) {	/* Single block read */
		if ((send_cmd(CMD17, sector) == 0)	/* READ_SINGLE_BLOCK */
			&& rcvr_datablock(buff, 512))
			count = 0;
    2426:	00 e0       	ldi	r16, 0x00	; 0
				buff += 512;
			} while (--count);
			send_cmd(CMD12, 0);				/* STOP_TRANSMISSION */
		}
	}
	deselect();
    2428:	d9 dd       	rcall	.-1102   	; 0x1fdc <_ZL8deselectv>
    242a:	00 23       	and	r16, r16

	return count ? RES_ERROR : RES_OK;
    242c:	21 f0       	breq	.+8      	; 0x2436 <disk_read+0x9a>
    242e:	81 e0       	ldi	r24, 0x01	; 1
    2430:	03 c0       	rjmp	.+6      	; 0x2438 <disk_read+0x9c>
    2432:	83 e0       	ldi	r24, 0x03	; 3
	BYTE *buff,			/* Pointer to the data buffer to store read data */
	DWORD sector,		/* Start sector number (LBA) */
	BYTE count			/* Sector count (1..256(0)) */
)
{
	if (disk_status(drv) & STA_NOINIT) return RES_NOTRDY;
    2434:	01 c0       	rjmp	.+2      	; 0x2438 <disk_read+0x9c>
    2436:	80 e0       	ldi	r24, 0x00	; 0
			send_cmd(CMD12, 0);				/* STOP_TRANSMISSION */
		}
	}
	deselect();

	return count ? RES_ERROR : RES_OK;
    2438:	df 91       	pop	r29
}
    243a:	cf 91       	pop	r28
    243c:	0f 91       	pop	r16
    243e:	ff 90       	pop	r15
    2440:	ef 90       	pop	r14
    2442:	df 90       	pop	r13
    2444:	cf 90       	pop	r12
    2446:	08 95       	ret

00002448 <disk_write>:
    2448:	cf 92       	push	r12
	BYTE drv,			/* Physical drive nmuber (0) */
	const BYTE *buff,	/* Pointer to the data to be written */
	DWORD sector,		/* Start sector number (LBA) */
	BYTE count			/* Sector count (1..256(0)) */
)
{
    244a:	df 92       	push	r13
    244c:	ef 92       	push	r14
    244e:	ff 92       	push	r15
    2450:	0f 93       	push	r16
    2452:	cf 93       	push	r28
    2454:	df 93       	push	r29
    2456:	eb 01       	movw	r28, r22
    2458:	69 01       	movw	r12, r18
    245a:	7a 01       	movw	r14, r20
	if (disk_status(drv) & STA_NOINIT) return RES_NOTRDY;
    245c:	d6 de       	rcall	.-596    	; 0x220a <disk_status>
    245e:	80 fd       	sbrc	r24, 0
    2460:	47 c0       	rjmp	.+142    	; 0x24f0 <disk_write+0xa8>
	if (!(CardType & CT_BLOCK)) sector *= 512;	/* Convert LBA to byte address if needed */
    2462:	80 91 f0 10 	lds	r24, 0x10F0	; 0x8010f0 <_ZL8CardType>
    2466:	83 fd       	sbrc	r24, 3
    2468:	09 c0       	rjmp	.+18     	; 0x247c <disk_write+0x34>
    246a:	0b 2e       	mov	r0, r27
    246c:	b9 e0       	ldi	r27, 0x09	; 9
    246e:	cc 0c       	add	r12, r12
    2470:	dd 1c       	adc	r13, r13
    2472:	ee 1c       	adc	r14, r14
    2474:	ff 1c       	adc	r15, r15
    2476:	ba 95       	dec	r27
    2478:	d1 f7       	brne	.-12     	; 0x246e <disk_write+0x26>
    247a:	b0 2d       	mov	r27, r0

	if (count == 1) {	/* Single block write */
    247c:	01 30       	cpi	r16, 0x01	; 1
    247e:	99 f4       	brne	.+38     	; 0x24a6 <disk_write+0x5e>
		if ((send_cmd(CMD24, sector) == 0)	/* WRITE_BLOCK */
    2480:	b7 01       	movw	r22, r14
    2482:	a6 01       	movw	r20, r12
    2484:	88 e1       	ldi	r24, 0x18	; 24
    2486:	31 de       	rcall	.-926    	; 0x20ea <_ZL8send_cmdhm>
			&& xmit_datablock(buff, 0xFE))
    2488:	81 11       	cpse	r24, r1
    248a:	07 c0       	rjmp	.+14     	; 0x249a <disk_write+0x52>
    248c:	6e ef       	ldi	r22, 0xFE	; 254
    248e:	ce 01       	movw	r24, r28
    2490:	f5 dd       	rcall	.-1046   	; 0x207c <_ZL14xmit_datablockPKhh>
    2492:	89 2b       	or	r24, r25
    2494:	21 f0       	breq	.+8      	; 0x249e <disk_write+0x56>
    2496:	81 e0       	ldi	r24, 0x01	; 1
    2498:	03 c0       	rjmp	.+6      	; 0x24a0 <disk_write+0x58>
    249a:	80 e0       	ldi	r24, 0x00	; 0
    249c:	01 c0       	rjmp	.+2      	; 0x24a0 <disk_write+0x58>
    249e:	80 e0       	ldi	r24, 0x00	; 0
{
	if (disk_status(drv) & STA_NOINIT) return RES_NOTRDY;
	if (!(CardType & CT_BLOCK)) sector *= 512;	/* Convert LBA to byte address if needed */

	if (count == 1) {	/* Single block write */
		if ((send_cmd(CMD24, sector) == 0)	/* WRITE_BLOCK */
    24a0:	81 11       	cpse	r24, r1
    24a2:	1e c0       	rjmp	.+60     	; 0x24e0 <disk_write+0x98>
    24a4:	20 c0       	rjmp	.+64     	; 0x24e6 <disk_write+0x9e>
			&& xmit_datablock(buff, 0xFE))
			count = 0;
	}
	else {				/* Multiple block write */
		if (CardType & CT_SDC) send_cmd(ACMD23, count);
    24a6:	86 70       	andi	r24, 0x06	; 6
    24a8:	31 f0       	breq	.+12     	; 0x24b6 <disk_write+0x6e>
    24aa:	40 2f       	mov	r20, r16
    24ac:	50 e0       	ldi	r21, 0x00	; 0
    24ae:	60 e0       	ldi	r22, 0x00	; 0
    24b0:	70 e0       	ldi	r23, 0x00	; 0
    24b2:	87 e9       	ldi	r24, 0x97	; 151
    24b4:	1a de       	rcall	.-972    	; 0x20ea <_ZL8send_cmdhm>
		if (send_cmd(CMD25, sector) == 0) {	/* WRITE_MULTIPLE_BLOCK */
    24b6:	b7 01       	movw	r22, r14
    24b8:	a6 01       	movw	r20, r12
    24ba:	89 e1       	ldi	r24, 0x19	; 25
    24bc:	16 de       	rcall	.-980    	; 0x20ea <_ZL8send_cmdhm>
    24be:	81 11       	cpse	r24, r1
    24c0:	12 c0       	rjmp	.+36     	; 0x24e6 <disk_write+0x9e>
			do {
				if (!xmit_datablock(buff, 0xFC)) break;
    24c2:	6c ef       	ldi	r22, 0xFC	; 252
    24c4:	ce 01       	movw	r24, r28
    24c6:	da dd       	rcall	.-1100   	; 0x207c <_ZL14xmit_datablockPKhh>
    24c8:	89 2b       	or	r24, r25
    24ca:	19 f0       	breq	.+6      	; 0x24d2 <disk_write+0x8a>
    24cc:	de 5f       	subi	r29, 0xFE	; 254
			count = 0;
	}
	else {				/* Multiple block write */
		if (CardType & CT_SDC) send_cmd(ACMD23, count);
		if (send_cmd(CMD25, sector) == 0) {	/* WRITE_MULTIPLE_BLOCK */
			do {
    24ce:	01 50       	subi	r16, 0x01	; 1
    24d0:	c1 f7       	brne	.-16     	; 0x24c2 <disk_write+0x7a>
				if (!xmit_datablock(buff, 0xFC)) break;
				buff += 512;
			} while (--count);
			if (!xmit_datablock(0, 0xFD))	/* STOP_TRAN token */
    24d2:	6d ef       	ldi	r22, 0xFD	; 253
    24d4:	80 e0       	ldi	r24, 0x00	; 0
    24d6:	90 e0       	ldi	r25, 0x00	; 0
    24d8:	d1 dd       	rcall	.-1118   	; 0x207c <_ZL14xmit_datablockPKhh>
    24da:	89 2b       	or	r24, r25
    24dc:	19 f0       	breq	.+6      	; 0x24e4 <disk_write+0x9c>
    24de:	03 c0       	rjmp	.+6      	; 0x24e6 <disk_write+0x9e>
	if (!(CardType & CT_BLOCK)) sector *= 512;	/* Convert LBA to byte address if needed */

	if (count == 1) {	/* Single block write */
		if ((send_cmd(CMD24, sector) == 0)	/* WRITE_BLOCK */
			&& xmit_datablock(buff, 0xFE))
			count = 0;
    24e0:	00 e0       	ldi	r16, 0x00	; 0
    24e2:	01 c0       	rjmp	.+2      	; 0x24e6 <disk_write+0x9e>
			do {
				if (!xmit_datablock(buff, 0xFC)) break;
				buff += 512;
			} while (--count);
			if (!xmit_datablock(0, 0xFD))	/* STOP_TRAN token */
				count = 1;
    24e4:	01 e0       	ldi	r16, 0x01	; 1
		}
	}
	deselect();
    24e6:	7a dd       	rcall	.-1292   	; 0x1fdc <_ZL8deselectv>
    24e8:	00 23       	and	r16, r16

	return count ? RES_ERROR : RES_OK;
    24ea:	21 f0       	breq	.+8      	; 0x24f4 <disk_write+0xac>
    24ec:	81 e0       	ldi	r24, 0x01	; 1
    24ee:	03 c0       	rjmp	.+6      	; 0x24f6 <disk_write+0xae>
    24f0:	83 e0       	ldi	r24, 0x03	; 3
	const BYTE *buff,	/* Pointer to the data to be written */
	DWORD sector,		/* Start sector number (LBA) */
	BYTE count			/* Sector count (1..256(0)) */
)
{
	if (disk_status(drv) & STA_NOINIT) return RES_NOTRDY;
    24f2:	01 c0       	rjmp	.+2      	; 0x24f6 <disk_write+0xae>
    24f4:	80 e0       	ldi	r24, 0x00	; 0
				count = 1;
		}
	}
	deselect();

	return count ? RES_ERROR : RES_OK;
    24f6:	df 91       	pop	r29
}
    24f8:	cf 91       	pop	r28
    24fa:	0f 91       	pop	r16
    24fc:	ff 90       	pop	r15
    24fe:	ef 90       	pop	r14
    2500:	df 90       	pop	r13
    2502:	cf 90       	pop	r12
    2504:	08 95       	ret

00002506 <disk_ioctl>:
    2506:	ef 92       	push	r14
DRESULT disk_ioctl (
	BYTE drv,		/* Physical drive nmuber (0) */
	BYTE ctrl,		/* Control code */
	void *buff		/* Buffer to send/receive control data */
)
{
    2508:	ff 92       	push	r15
    250a:	1f 93       	push	r17
    250c:	cf 93       	push	r28
    250e:	df 93       	push	r29
    2510:	cd b7       	in	r28, 0x3d	; 61
    2512:	de b7       	in	r29, 0x3e	; 62
    2514:	60 97       	sbiw	r28, 0x10	; 16
    2516:	0f b6       	in	r0, 0x3f	; 63
    2518:	f8 94       	cli
    251a:	de bf       	out	0x3e, r29	; 62
    251c:	0f be       	out	0x3f, r0	; 63
    251e:	cd bf       	out	0x3d, r28	; 61
    2520:	16 2f       	mov	r17, r22
    2522:	7a 01       	movw	r14, r20
	DRESULT res;
	BYTE n, csd[16];
	DWORD cs;


	if (disk_status(drv) & STA_NOINIT) return RES_NOTRDY;	/* Check if card is in the socket */
    2524:	72 de       	rcall	.-796    	; 0x220a <disk_status>
    2526:	80 fd       	sbrc	r24, 0
    2528:	a9 c0       	rjmp	.+338    	; 0x267c <disk_ioctl+0x176>

	res = RES_ERROR;
	switch (ctrl) {
    252a:	11 30       	cpi	r17, 0x01	; 1
    252c:	59 f0       	breq	.+22     	; 0x2544 <disk_ioctl+0x3e>
    252e:	20 f0       	brcs	.+8      	; 0x2538 <disk_ioctl+0x32>
    2530:	13 30       	cpi	r17, 0x03	; 3
    2532:	09 f4       	brne	.+2      	; 0x2536 <disk_ioctl+0x30>
    2534:	90 c0       	rjmp	.+288    	; 0x2656 <disk_ioctl+0x150>
		case CTRL_SYNC :		/* Make sure that no pending write process */
			if (select()) res = RES_OK;
    2536:	9a c0       	rjmp	.+308    	; 0x266c <disk_ioctl+0x166>
    2538:	55 dd       	rcall	.-1366   	; 0x1fe4 <_ZL6selectv>
    253a:	89 2b       	or	r24, r25
    253c:	09 f0       	breq	.+2      	; 0x2540 <disk_ioctl+0x3a>
    253e:	98 c0       	rjmp	.+304    	; 0x2670 <disk_ioctl+0x16a>
	DWORD cs;


	if (disk_status(drv) & STA_NOINIT) return RES_NOTRDY;	/* Check if card is in the socket */

	res = RES_ERROR;
    2540:	11 e0       	ldi	r17, 0x01	; 1
    2542:	99 c0       	rjmp	.+306    	; 0x2676 <disk_ioctl+0x170>
		case CTRL_SYNC :		/* Make sure that no pending write process */
			if (select()) res = RES_OK;
			break;

		case GET_SECTOR_COUNT :	/* Get number of sectors on the disk (DWORD) */
			if ((send_cmd(CMD9, 0) == 0) && rcvr_datablock(csd, 16)) {
    2544:	40 e0       	ldi	r20, 0x00	; 0
    2546:	50 e0       	ldi	r21, 0x00	; 0
    2548:	ba 01       	movw	r22, r20
    254a:	89 e0       	ldi	r24, 0x09	; 9
    254c:	ce dd       	rcall	.-1124   	; 0x20ea <_ZL8send_cmdhm>
    254e:	81 11       	cpse	r24, r1
    2550:	09 c0       	rjmp	.+18     	; 0x2564 <disk_ioctl+0x5e>
    2552:	60 e1       	ldi	r22, 0x10	; 16
    2554:	70 e0       	ldi	r23, 0x00	; 0
    2556:	ce 01       	movw	r24, r28
    2558:	01 96       	adiw	r24, 0x01	; 1
    255a:	55 dd       	rcall	.-1366   	; 0x2006 <_ZL14rcvr_datablockPhj>
    255c:	89 2b       	or	r24, r25
    255e:	21 f0       	breq	.+8      	; 0x2568 <disk_ioctl+0x62>
    2560:	81 e0       	ldi	r24, 0x01	; 1
    2562:	03 c0       	rjmp	.+6      	; 0x256a <disk_ioctl+0x64>
    2564:	80 e0       	ldi	r24, 0x00	; 0
    2566:	01 c0       	rjmp	.+2      	; 0x256a <disk_ioctl+0x64>
    2568:	80 e0       	ldi	r24, 0x00	; 0
    256a:	88 23       	and	r24, r24
    256c:	09 f4       	brne	.+2      	; 0x2570 <disk_ioctl+0x6a>
    256e:	82 c0       	rjmp	.+260    	; 0x2674 <disk_ioctl+0x16e>
				if ((csd[0] >> 6) == 1) {	/* SDC ver 2.00 */
    2570:	89 81       	ldd	r24, Y+1	; 0x01
    2572:	90 e0       	ldi	r25, 0x00	; 0
    2574:	08 2e       	mov	r0, r24
    2576:	89 2f       	mov	r24, r25
    2578:	00 0c       	add	r0, r0
    257a:	88 1f       	adc	r24, r24
    257c:	99 0b       	sbc	r25, r25
    257e:	00 0c       	add	r0, r0
    2580:	88 1f       	adc	r24, r24
    2582:	99 1f       	adc	r25, r25
    2584:	01 97       	sbiw	r24, 0x01	; 1
    2586:	31 f5       	brne	.+76     	; 0x25d4 <disk_ioctl+0xce>
					cs = csd[9] + ((WORD)csd[8] << 8) + ((DWORD)(csd[7] & 63) << 16) + 1;
    2588:	8a 85       	ldd	r24, Y+10	; 0x0a
    258a:	29 85       	ldd	r18, Y+9	; 0x09
    258c:	30 e0       	ldi	r19, 0x00	; 0
    258e:	32 2f       	mov	r19, r18
    2590:	22 27       	eor	r18, r18
    2592:	28 0f       	add	r18, r24
    2594:	31 1d       	adc	r19, r1
    2596:	88 85       	ldd	r24, Y+8	; 0x08
    2598:	8f 73       	andi	r24, 0x3F	; 63
    259a:	90 e0       	ldi	r25, 0x00	; 0
    259c:	a0 e0       	ldi	r26, 0x00	; 0
    259e:	b0 e0       	ldi	r27, 0x00	; 0
    25a0:	dc 01       	movw	r26, r24
    25a2:	99 27       	eor	r25, r25
    25a4:	88 27       	eor	r24, r24
    25a6:	82 0f       	add	r24, r18
    25a8:	93 1f       	adc	r25, r19
    25aa:	a1 1d       	adc	r26, r1
    25ac:	b1 1d       	adc	r27, r1
    25ae:	01 96       	adiw	r24, 0x01	; 1
    25b0:	a1 1d       	adc	r26, r1
    25b2:	b1 1d       	adc	r27, r1
					*(DWORD*)buff = cs << 10;
    25b4:	07 2e       	mov	r0, r23
    25b6:	7a e0       	ldi	r23, 0x0A	; 10
    25b8:	88 0f       	add	r24, r24
    25ba:	99 1f       	adc	r25, r25
    25bc:	aa 1f       	adc	r26, r26
    25be:	bb 1f       	adc	r27, r27
    25c0:	7a 95       	dec	r23
    25c2:	d1 f7       	brne	.-12     	; 0x25b8 <disk_ioctl+0xb2>
    25c4:	70 2d       	mov	r23, r0
    25c6:	f7 01       	movw	r30, r14
    25c8:	80 83       	st	Z, r24
    25ca:	91 83       	std	Z+1, r25	; 0x01
    25cc:	a2 83       	std	Z+2, r26	; 0x02
    25ce:	b3 83       	std	Z+3, r27	; 0x03
				} else {					/* SDC ver 1.XX or MMC */
					n = (csd[5] & 15) + ((csd[10] & 128) >> 7) + ((csd[9] & 3) << 1) + 2;
					cs = (csd[8] >> 6) + ((WORD)csd[7] << 2) + ((WORD)(csd[6] & 3) << 10) + 1;
					*(DWORD*)buff = cs << (n - 9);
				}
				res = RES_OK;
    25d0:	10 e0       	ldi	r17, 0x00	; 0
    25d2:	51 c0       	rjmp	.+162    	; 0x2676 <disk_ioctl+0x170>
			if ((send_cmd(CMD9, 0) == 0) && rcvr_datablock(csd, 16)) {
				if ((csd[0] >> 6) == 1) {	/* SDC ver 2.00 */
					cs = csd[9] + ((WORD)csd[8] << 8) + ((DWORD)(csd[7] & 63) << 16) + 1;
					*(DWORD*)buff = cs << 10;
				} else {					/* SDC ver 1.XX or MMC */
					n = (csd[5] & 15) + ((csd[10] & 128) >> 7) + ((csd[9] & 3) << 1) + 2;
    25d4:	8e 81       	ldd	r24, Y+6	; 0x06
    25d6:	2b 85       	ldd	r18, Y+11	; 0x0b
    25d8:	9a 85       	ldd	r25, Y+10	; 0x0a
    25da:	38 2f       	mov	r19, r24
    25dc:	3f 70       	andi	r19, 0x0F	; 15
    25de:	82 2f       	mov	r24, r18
    25e0:	88 1f       	adc	r24, r24
    25e2:	88 27       	eor	r24, r24
    25e4:	88 1f       	adc	r24, r24
    25e6:	83 0f       	add	r24, r19
    25e8:	93 70       	andi	r25, 0x03	; 3
    25ea:	99 0f       	add	r25, r25
    25ec:	89 0f       	add	r24, r25
    25ee:	42 e0       	ldi	r20, 0x02	; 2
    25f0:	48 0f       	add	r20, r24
					cs = (csd[8] >> 6) + ((WORD)csd[7] << 2) + ((WORD)(csd[6] & 3) << 10) + 1;
    25f2:	89 85       	ldd	r24, Y+9	; 0x09
    25f4:	90 e0       	ldi	r25, 0x00	; 0
    25f6:	bc 01       	movw	r22, r24
    25f8:	06 2e       	mov	r0, r22
    25fa:	67 2f       	mov	r22, r23
    25fc:	00 0c       	add	r0, r0
    25fe:	66 1f       	adc	r22, r22
    2600:	77 0b       	sbc	r23, r23
    2602:	00 0c       	add	r0, r0
    2604:	66 1f       	adc	r22, r22
    2606:	77 1f       	adc	r23, r23
    2608:	28 85       	ldd	r18, Y+8	; 0x08
    260a:	30 e0       	ldi	r19, 0x00	; 0
    260c:	c9 01       	movw	r24, r18
    260e:	88 0f       	add	r24, r24
    2610:	99 1f       	adc	r25, r25
    2612:	88 0f       	add	r24, r24
    2614:	99 1f       	adc	r25, r25
    2616:	86 0f       	add	r24, r22
    2618:	97 1f       	adc	r25, r23
    261a:	2f 81       	ldd	r18, Y+7	; 0x07
    261c:	23 70       	andi	r18, 0x03	; 3
    261e:	30 e0       	ldi	r19, 0x00	; 0
    2620:	32 2f       	mov	r19, r18
    2622:	22 27       	eor	r18, r18
    2624:	33 0f       	add	r19, r19
    2626:	33 0f       	add	r19, r19
    2628:	82 0f       	add	r24, r18
    262a:	93 1f       	adc	r25, r19
    262c:	01 96       	adiw	r24, 0x01	; 1
    262e:	a0 e0       	ldi	r26, 0x00	; 0
    2630:	b0 e0       	ldi	r27, 0x00	; 0
					*(DWORD*)buff = cs << (n - 9);
    2632:	24 2f       	mov	r18, r20
    2634:	30 e0       	ldi	r19, 0x00	; 0
    2636:	29 50       	subi	r18, 0x09	; 9
    2638:	31 09       	sbc	r19, r1
    263a:	04 c0       	rjmp	.+8      	; 0x2644 <disk_ioctl+0x13e>
    263c:	88 0f       	add	r24, r24
    263e:	99 1f       	adc	r25, r25
    2640:	aa 1f       	adc	r26, r26
    2642:	bb 1f       	adc	r27, r27
    2644:	2a 95       	dec	r18
    2646:	d2 f7       	brpl	.-12     	; 0x263c <disk_ioctl+0x136>
    2648:	f7 01       	movw	r30, r14
    264a:	80 83       	st	Z, r24
    264c:	91 83       	std	Z+1, r25	; 0x01
    264e:	a2 83       	std	Z+2, r26	; 0x02
    2650:	b3 83       	std	Z+3, r27	; 0x03
				}
				res = RES_OK;
    2652:	10 e0       	ldi	r17, 0x00	; 0
    2654:	10 c0       	rjmp	.+32     	; 0x2676 <disk_ioctl+0x170>
			}
			break;

		case GET_BLOCK_SIZE :	/* Get erase block size in unit of sector (DWORD) */
			*(DWORD*)buff = 128;
    2656:	80 e8       	ldi	r24, 0x80	; 128
    2658:	90 e0       	ldi	r25, 0x00	; 0
    265a:	a0 e0       	ldi	r26, 0x00	; 0
    265c:	b0 e0       	ldi	r27, 0x00	; 0
    265e:	f7 01       	movw	r30, r14
    2660:	80 83       	st	Z, r24
    2662:	91 83       	std	Z+1, r25	; 0x01
    2664:	a2 83       	std	Z+2, r26	; 0x02
    2666:	b3 83       	std	Z+3, r27	; 0x03
			res = RES_OK;
    2668:	10 e0       	ldi	r17, 0x00	; 0
			break;
    266a:	05 c0       	rjmp	.+10     	; 0x2676 <disk_ioctl+0x170>

		default:
			res = RES_PARERR;
    266c:	14 e0       	ldi	r17, 0x04	; 4
	if (disk_status(drv) & STA_NOINIT) return RES_NOTRDY;	/* Check if card is in the socket */

	res = RES_ERROR;
	switch (ctrl) {
		case CTRL_SYNC :		/* Make sure that no pending write process */
			if (select()) res = RES_OK;
    266e:	03 c0       	rjmp	.+6      	; 0x2676 <disk_ioctl+0x170>
    2670:	10 e0       	ldi	r17, 0x00	; 0
	DWORD cs;


	if (disk_status(drv) & STA_NOINIT) return RES_NOTRDY;	/* Check if card is in the socket */

	res = RES_ERROR;
    2672:	01 c0       	rjmp	.+2      	; 0x2676 <disk_ioctl+0x170>

		default:
			res = RES_PARERR;
	}

	deselect();
    2674:	11 e0       	ldi	r17, 0x01	; 1
    2676:	b2 dc       	rcall	.-1692   	; 0x1fdc <_ZL8deselectv>

	return res;
    2678:	81 2f       	mov	r24, r17
    267a:	01 c0       	rjmp	.+2      	; 0x267e <disk_ioctl+0x178>
	DRESULT res;
	BYTE n, csd[16];
	DWORD cs;


	if (disk_status(drv) & STA_NOINIT) return RES_NOTRDY;	/* Check if card is in the socket */
    267c:	83 e0       	ldi	r24, 0x03	; 3
	}

	deselect();

	return res;
}
    267e:	60 96       	adiw	r28, 0x10	; 16
    2680:	0f b6       	in	r0, 0x3f	; 63
    2682:	f8 94       	cli
    2684:	de bf       	out	0x3e, r29	; 62
    2686:	0f be       	out	0x3f, r0	; 63
    2688:	cd bf       	out	0x3d, r28	; 61
    268a:	df 91       	pop	r29
    268c:	cf 91       	pop	r28
    268e:	1f 91       	pop	r17
    2690:	ff 90       	pop	r15
    2692:	ef 90       	pop	r14
    2694:	08 95       	ret

00002696 <__udivmodsi4>:
    2696:	a1 e2       	ldi	r26, 0x21	; 33
    2698:	1a 2e       	mov	r1, r26
    269a:	aa 1b       	sub	r26, r26
    269c:	bb 1b       	sub	r27, r27
    269e:	fd 01       	movw	r30, r26
    26a0:	0d c0       	rjmp	.+26     	; 0x26bc <__udivmodsi4_ep>

000026a2 <__udivmodsi4_loop>:
    26a2:	aa 1f       	adc	r26, r26
    26a4:	bb 1f       	adc	r27, r27
    26a6:	ee 1f       	adc	r30, r30
    26a8:	ff 1f       	adc	r31, r31
    26aa:	a2 17       	cp	r26, r18
    26ac:	b3 07       	cpc	r27, r19
    26ae:	e4 07       	cpc	r30, r20
    26b0:	f5 07       	cpc	r31, r21
    26b2:	20 f0       	brcs	.+8      	; 0x26bc <__udivmodsi4_ep>
    26b4:	a2 1b       	sub	r26, r18
    26b6:	b3 0b       	sbc	r27, r19
    26b8:	e4 0b       	sbc	r30, r20
    26ba:	f5 0b       	sbc	r31, r21

000026bc <__udivmodsi4_ep>:
    26bc:	66 1f       	adc	r22, r22
    26be:	77 1f       	adc	r23, r23
    26c0:	88 1f       	adc	r24, r24
    26c2:	99 1f       	adc	r25, r25
    26c4:	1a 94       	dec	r1
    26c6:	69 f7       	brne	.-38     	; 0x26a2 <__udivmodsi4_loop>
    26c8:	60 95       	com	r22
    26ca:	70 95       	com	r23
    26cc:	80 95       	com	r24
    26ce:	90 95       	com	r25
    26d0:	9b 01       	movw	r18, r22
    26d2:	ac 01       	movw	r20, r24
    26d4:	bd 01       	movw	r22, r26
    26d6:	cf 01       	movw	r24, r30
    26d8:	08 95       	ret

000026da <__muluhisi3>:
    26da:	09 d0       	rcall	.+18     	; 0x26ee <__umulhisi3>
    26dc:	a5 9f       	mul	r26, r21
    26de:	90 0d       	add	r25, r0
    26e0:	b4 9f       	mul	r27, r20
    26e2:	90 0d       	add	r25, r0
    26e4:	a4 9f       	mul	r26, r20
    26e6:	80 0d       	add	r24, r0
    26e8:	91 1d       	adc	r25, r1
    26ea:	11 24       	eor	r1, r1
    26ec:	08 95       	ret

000026ee <__umulhisi3>:
    26ee:	a2 9f       	mul	r26, r18
    26f0:	b0 01       	movw	r22, r0
    26f2:	b3 9f       	mul	r27, r19
    26f4:	c0 01       	movw	r24, r0
    26f6:	a3 9f       	mul	r26, r19
    26f8:	70 0d       	add	r23, r0
    26fa:	81 1d       	adc	r24, r1
    26fc:	11 24       	eor	r1, r1
    26fe:	91 1d       	adc	r25, r1
    2700:	b2 9f       	mul	r27, r18
    2702:	70 0d       	add	r23, r0
    2704:	81 1d       	adc	r24, r1
    2706:	11 24       	eor	r1, r1
    2708:	91 1d       	adc	r25, r1
    270a:	08 95       	ret

0000270c <malloc>:
    270c:	0f 93       	push	r16
    270e:	1f 93       	push	r17
    2710:	cf 93       	push	r28
    2712:	df 93       	push	r29
    2714:	82 30       	cpi	r24, 0x02	; 2
    2716:	91 05       	cpc	r25, r1
    2718:	10 f4       	brcc	.+4      	; 0x271e <malloc+0x12>
    271a:	82 e0       	ldi	r24, 0x02	; 2
    271c:	90 e0       	ldi	r25, 0x00	; 0
    271e:	e0 91 f3 10 	lds	r30, 0x10F3	; 0x8010f3 <__flp>
    2722:	f0 91 f4 10 	lds	r31, 0x10F4	; 0x8010f4 <__flp+0x1>
    2726:	20 e0       	ldi	r18, 0x00	; 0
    2728:	30 e0       	ldi	r19, 0x00	; 0
    272a:	a0 e0       	ldi	r26, 0x00	; 0
    272c:	b0 e0       	ldi	r27, 0x00	; 0
    272e:	30 97       	sbiw	r30, 0x00	; 0
    2730:	19 f1       	breq	.+70     	; 0x2778 <malloc+0x6c>
    2732:	40 81       	ld	r20, Z
    2734:	51 81       	ldd	r21, Z+1	; 0x01
    2736:	02 81       	ldd	r16, Z+2	; 0x02
    2738:	13 81       	ldd	r17, Z+3	; 0x03
    273a:	48 17       	cp	r20, r24
    273c:	59 07       	cpc	r21, r25
    273e:	c8 f0       	brcs	.+50     	; 0x2772 <malloc+0x66>
    2740:	84 17       	cp	r24, r20
    2742:	95 07       	cpc	r25, r21
    2744:	69 f4       	brne	.+26     	; 0x2760 <malloc+0x54>
    2746:	10 97       	sbiw	r26, 0x00	; 0
    2748:	31 f0       	breq	.+12     	; 0x2756 <malloc+0x4a>
    274a:	12 96       	adiw	r26, 0x02	; 2
    274c:	0c 93       	st	X, r16
    274e:	12 97       	sbiw	r26, 0x02	; 2
    2750:	13 96       	adiw	r26, 0x03	; 3
    2752:	1c 93       	st	X, r17
    2754:	27 c0       	rjmp	.+78     	; 0x27a4 <malloc+0x98>
    2756:	00 93 f3 10 	sts	0x10F3, r16	; 0x8010f3 <__flp>
    275a:	10 93 f4 10 	sts	0x10F4, r17	; 0x8010f4 <__flp+0x1>
    275e:	22 c0       	rjmp	.+68     	; 0x27a4 <malloc+0x98>
    2760:	21 15       	cp	r18, r1
    2762:	31 05       	cpc	r19, r1
    2764:	19 f0       	breq	.+6      	; 0x276c <malloc+0x60>
    2766:	42 17       	cp	r20, r18
    2768:	53 07       	cpc	r21, r19
    276a:	18 f4       	brcc	.+6      	; 0x2772 <malloc+0x66>
    276c:	9a 01       	movw	r18, r20
    276e:	bd 01       	movw	r22, r26
    2770:	ef 01       	movw	r28, r30
    2772:	df 01       	movw	r26, r30
    2774:	f8 01       	movw	r30, r16
    2776:	db cf       	rjmp	.-74     	; 0x272e <malloc+0x22>
    2778:	21 15       	cp	r18, r1
    277a:	31 05       	cpc	r19, r1
    277c:	f9 f0       	breq	.+62     	; 0x27bc <malloc+0xb0>
    277e:	28 1b       	sub	r18, r24
    2780:	39 0b       	sbc	r19, r25
    2782:	24 30       	cpi	r18, 0x04	; 4
    2784:	31 05       	cpc	r19, r1
    2786:	80 f4       	brcc	.+32     	; 0x27a8 <malloc+0x9c>
    2788:	8a 81       	ldd	r24, Y+2	; 0x02
    278a:	9b 81       	ldd	r25, Y+3	; 0x03
    278c:	61 15       	cp	r22, r1
    278e:	71 05       	cpc	r23, r1
    2790:	21 f0       	breq	.+8      	; 0x279a <malloc+0x8e>
    2792:	fb 01       	movw	r30, r22
    2794:	93 83       	std	Z+3, r25	; 0x03
    2796:	82 83       	std	Z+2, r24	; 0x02
    2798:	04 c0       	rjmp	.+8      	; 0x27a2 <malloc+0x96>
    279a:	90 93 f4 10 	sts	0x10F4, r25	; 0x8010f4 <__flp+0x1>
    279e:	80 93 f3 10 	sts	0x10F3, r24	; 0x8010f3 <__flp>
    27a2:	fe 01       	movw	r30, r28
    27a4:	32 96       	adiw	r30, 0x02	; 2
    27a6:	44 c0       	rjmp	.+136    	; 0x2830 <malloc+0x124>
    27a8:	fe 01       	movw	r30, r28
    27aa:	e2 0f       	add	r30, r18
    27ac:	f3 1f       	adc	r31, r19
    27ae:	81 93       	st	Z+, r24
    27b0:	91 93       	st	Z+, r25
    27b2:	22 50       	subi	r18, 0x02	; 2
    27b4:	31 09       	sbc	r19, r1
    27b6:	39 83       	std	Y+1, r19	; 0x01
    27b8:	28 83       	st	Y, r18
    27ba:	3a c0       	rjmp	.+116    	; 0x2830 <malloc+0x124>
    27bc:	20 91 f1 10 	lds	r18, 0x10F1	; 0x8010f1 <__brkval>
    27c0:	30 91 f2 10 	lds	r19, 0x10F2	; 0x8010f2 <__brkval+0x1>
    27c4:	23 2b       	or	r18, r19
    27c6:	41 f4       	brne	.+16     	; 0x27d8 <malloc+0xcc>
    27c8:	20 91 02 01 	lds	r18, 0x0102	; 0x800102 <__malloc_heap_start>
    27cc:	30 91 03 01 	lds	r19, 0x0103	; 0x800103 <__malloc_heap_start+0x1>
    27d0:	30 93 f2 10 	sts	0x10F2, r19	; 0x8010f2 <__brkval+0x1>
    27d4:	20 93 f1 10 	sts	0x10F1, r18	; 0x8010f1 <__brkval>
    27d8:	20 91 00 01 	lds	r18, 0x0100	; 0x800100 <__DATA_REGION_ORIGIN__>
    27dc:	30 91 01 01 	lds	r19, 0x0101	; 0x800101 <__DATA_REGION_ORIGIN__+0x1>
    27e0:	21 15       	cp	r18, r1
    27e2:	31 05       	cpc	r19, r1
    27e4:	41 f4       	brne	.+16     	; 0x27f6 <malloc+0xea>
    27e6:	2d b7       	in	r18, 0x3d	; 61
    27e8:	3e b7       	in	r19, 0x3e	; 62
    27ea:	40 91 04 01 	lds	r20, 0x0104	; 0x800104 <__malloc_margin>
    27ee:	50 91 05 01 	lds	r21, 0x0105	; 0x800105 <__malloc_margin+0x1>
    27f2:	24 1b       	sub	r18, r20
    27f4:	35 0b       	sbc	r19, r21
    27f6:	e0 91 f1 10 	lds	r30, 0x10F1	; 0x8010f1 <__brkval>
    27fa:	f0 91 f2 10 	lds	r31, 0x10F2	; 0x8010f2 <__brkval+0x1>
    27fe:	e2 17       	cp	r30, r18
    2800:	f3 07       	cpc	r31, r19
    2802:	a0 f4       	brcc	.+40     	; 0x282c <malloc+0x120>
    2804:	2e 1b       	sub	r18, r30
    2806:	3f 0b       	sbc	r19, r31
    2808:	28 17       	cp	r18, r24
    280a:	39 07       	cpc	r19, r25
    280c:	78 f0       	brcs	.+30     	; 0x282c <malloc+0x120>
    280e:	ac 01       	movw	r20, r24
    2810:	4e 5f       	subi	r20, 0xFE	; 254
    2812:	5f 4f       	sbci	r21, 0xFF	; 255
    2814:	24 17       	cp	r18, r20
    2816:	35 07       	cpc	r19, r21
    2818:	48 f0       	brcs	.+18     	; 0x282c <malloc+0x120>
    281a:	4e 0f       	add	r20, r30
    281c:	5f 1f       	adc	r21, r31
    281e:	50 93 f2 10 	sts	0x10F2, r21	; 0x8010f2 <__brkval+0x1>
    2822:	40 93 f1 10 	sts	0x10F1, r20	; 0x8010f1 <__brkval>
    2826:	81 93       	st	Z+, r24
    2828:	91 93       	st	Z+, r25
    282a:	02 c0       	rjmp	.+4      	; 0x2830 <malloc+0x124>
    282c:	e0 e0       	ldi	r30, 0x00	; 0
    282e:	f0 e0       	ldi	r31, 0x00	; 0
    2830:	cf 01       	movw	r24, r30
    2832:	df 91       	pop	r29
    2834:	cf 91       	pop	r28
    2836:	1f 91       	pop	r17
    2838:	0f 91       	pop	r16
    283a:	08 95       	ret

0000283c <free>:
    283c:	cf 93       	push	r28
    283e:	df 93       	push	r29
    2840:	00 97       	sbiw	r24, 0x00	; 0
    2842:	09 f4       	brne	.+2      	; 0x2846 <free+0xa>
    2844:	81 c0       	rjmp	.+258    	; 0x2948 <free+0x10c>
    2846:	fc 01       	movw	r30, r24
    2848:	32 97       	sbiw	r30, 0x02	; 2
    284a:	13 82       	std	Z+3, r1	; 0x03
    284c:	12 82       	std	Z+2, r1	; 0x02
    284e:	a0 91 f3 10 	lds	r26, 0x10F3	; 0x8010f3 <__flp>
    2852:	b0 91 f4 10 	lds	r27, 0x10F4	; 0x8010f4 <__flp+0x1>
    2856:	10 97       	sbiw	r26, 0x00	; 0
    2858:	81 f4       	brne	.+32     	; 0x287a <free+0x3e>
    285a:	20 81       	ld	r18, Z
    285c:	31 81       	ldd	r19, Z+1	; 0x01
    285e:	82 0f       	add	r24, r18
    2860:	93 1f       	adc	r25, r19
    2862:	20 91 f1 10 	lds	r18, 0x10F1	; 0x8010f1 <__brkval>
    2866:	30 91 f2 10 	lds	r19, 0x10F2	; 0x8010f2 <__brkval+0x1>
    286a:	28 17       	cp	r18, r24
    286c:	39 07       	cpc	r19, r25
    286e:	51 f5       	brne	.+84     	; 0x28c4 <free+0x88>
    2870:	f0 93 f2 10 	sts	0x10F2, r31	; 0x8010f2 <__brkval+0x1>
    2874:	e0 93 f1 10 	sts	0x10F1, r30	; 0x8010f1 <__brkval>
    2878:	67 c0       	rjmp	.+206    	; 0x2948 <free+0x10c>
    287a:	ed 01       	movw	r28, r26
    287c:	20 e0       	ldi	r18, 0x00	; 0
    287e:	30 e0       	ldi	r19, 0x00	; 0
    2880:	ce 17       	cp	r28, r30
    2882:	df 07       	cpc	r29, r31
    2884:	40 f4       	brcc	.+16     	; 0x2896 <free+0x5a>
    2886:	4a 81       	ldd	r20, Y+2	; 0x02
    2888:	5b 81       	ldd	r21, Y+3	; 0x03
    288a:	9e 01       	movw	r18, r28
    288c:	41 15       	cp	r20, r1
    288e:	51 05       	cpc	r21, r1
    2890:	f1 f0       	breq	.+60     	; 0x28ce <free+0x92>
    2892:	ea 01       	movw	r28, r20
    2894:	f5 cf       	rjmp	.-22     	; 0x2880 <free+0x44>
    2896:	d3 83       	std	Z+3, r29	; 0x03
    2898:	c2 83       	std	Z+2, r28	; 0x02
    289a:	40 81       	ld	r20, Z
    289c:	51 81       	ldd	r21, Z+1	; 0x01
    289e:	84 0f       	add	r24, r20
    28a0:	95 1f       	adc	r25, r21
    28a2:	c8 17       	cp	r28, r24
    28a4:	d9 07       	cpc	r29, r25
    28a6:	59 f4       	brne	.+22     	; 0x28be <free+0x82>
    28a8:	88 81       	ld	r24, Y
    28aa:	99 81       	ldd	r25, Y+1	; 0x01
    28ac:	84 0f       	add	r24, r20
    28ae:	95 1f       	adc	r25, r21
    28b0:	02 96       	adiw	r24, 0x02	; 2
    28b2:	91 83       	std	Z+1, r25	; 0x01
    28b4:	80 83       	st	Z, r24
    28b6:	8a 81       	ldd	r24, Y+2	; 0x02
    28b8:	9b 81       	ldd	r25, Y+3	; 0x03
    28ba:	93 83       	std	Z+3, r25	; 0x03
    28bc:	82 83       	std	Z+2, r24	; 0x02
    28be:	21 15       	cp	r18, r1
    28c0:	31 05       	cpc	r19, r1
    28c2:	29 f4       	brne	.+10     	; 0x28ce <free+0x92>
    28c4:	f0 93 f4 10 	sts	0x10F4, r31	; 0x8010f4 <__flp+0x1>
    28c8:	e0 93 f3 10 	sts	0x10F3, r30	; 0x8010f3 <__flp>
    28cc:	3d c0       	rjmp	.+122    	; 0x2948 <free+0x10c>
    28ce:	e9 01       	movw	r28, r18
    28d0:	fb 83       	std	Y+3, r31	; 0x03
    28d2:	ea 83       	std	Y+2, r30	; 0x02
    28d4:	49 91       	ld	r20, Y+
    28d6:	59 91       	ld	r21, Y+
    28d8:	c4 0f       	add	r28, r20
    28da:	d5 1f       	adc	r29, r21
    28dc:	ec 17       	cp	r30, r28
    28de:	fd 07       	cpc	r31, r29
    28e0:	61 f4       	brne	.+24     	; 0x28fa <free+0xbe>
    28e2:	80 81       	ld	r24, Z
    28e4:	91 81       	ldd	r25, Z+1	; 0x01
    28e6:	84 0f       	add	r24, r20
    28e8:	95 1f       	adc	r25, r21
    28ea:	02 96       	adiw	r24, 0x02	; 2
    28ec:	e9 01       	movw	r28, r18
    28ee:	99 83       	std	Y+1, r25	; 0x01
    28f0:	88 83       	st	Y, r24
    28f2:	82 81       	ldd	r24, Z+2	; 0x02
    28f4:	93 81       	ldd	r25, Z+3	; 0x03
    28f6:	9b 83       	std	Y+3, r25	; 0x03
    28f8:	8a 83       	std	Y+2, r24	; 0x02
    28fa:	e0 e0       	ldi	r30, 0x00	; 0
    28fc:	f0 e0       	ldi	r31, 0x00	; 0
    28fe:	12 96       	adiw	r26, 0x02	; 2
    2900:	8d 91       	ld	r24, X+
    2902:	9c 91       	ld	r25, X
    2904:	13 97       	sbiw	r26, 0x03	; 3
    2906:	00 97       	sbiw	r24, 0x00	; 0
    2908:	19 f0       	breq	.+6      	; 0x2910 <free+0xd4>
    290a:	fd 01       	movw	r30, r26
    290c:	dc 01       	movw	r26, r24
    290e:	f7 cf       	rjmp	.-18     	; 0x28fe <free+0xc2>
    2910:	8d 91       	ld	r24, X+
    2912:	9c 91       	ld	r25, X
    2914:	11 97       	sbiw	r26, 0x01	; 1
    2916:	9d 01       	movw	r18, r26
    2918:	2e 5f       	subi	r18, 0xFE	; 254
    291a:	3f 4f       	sbci	r19, 0xFF	; 255
    291c:	82 0f       	add	r24, r18
    291e:	93 1f       	adc	r25, r19
    2920:	20 91 f1 10 	lds	r18, 0x10F1	; 0x8010f1 <__brkval>
    2924:	30 91 f2 10 	lds	r19, 0x10F2	; 0x8010f2 <__brkval+0x1>
    2928:	28 17       	cp	r18, r24
    292a:	39 07       	cpc	r19, r25
    292c:	69 f4       	brne	.+26     	; 0x2948 <free+0x10c>
    292e:	30 97       	sbiw	r30, 0x00	; 0
    2930:	29 f4       	brne	.+10     	; 0x293c <free+0x100>
    2932:	10 92 f4 10 	sts	0x10F4, r1	; 0x8010f4 <__flp+0x1>
    2936:	10 92 f3 10 	sts	0x10F3, r1	; 0x8010f3 <__flp>
    293a:	02 c0       	rjmp	.+4      	; 0x2940 <free+0x104>
    293c:	13 82       	std	Z+3, r1	; 0x03
    293e:	12 82       	std	Z+2, r1	; 0x02
    2940:	b0 93 f2 10 	sts	0x10F2, r27	; 0x8010f2 <__brkval+0x1>
    2944:	a0 93 f1 10 	sts	0x10F1, r26	; 0x8010f1 <__brkval>
    2948:	df 91       	pop	r29
    294a:	cf 91       	pop	r28
    294c:	08 95       	ret

0000294e <_exit>:
    294e:	f8 94       	cli

00002950 <__stop_program>:
    2950:	ff cf       	rjmp	.-2      	; 0x2950 <__stop_program>
