
ImageCapture_cpp.elf:     file format elf32-avr

Sections:
Idx Name          Size      VMA       LMA       File off  Algn
  0 .data         000000c2  00800100  00005112  000051a6  2**0
                  CONTENTS, ALLOC, LOAD, DATA
  1 .text         00005112  00000000  00000000  00000094  2**1
                  CONTENTS, ALLOC, LOAD, READONLY, CODE
  2 .bss          0000023d  008001c2  008001c2  00005268  2**0
                  ALLOC
  3 .comment      0000005c  00000000  00000000  00005268  2**0
                  CONTENTS, READONLY
  4 .note.gnu.avr.deviceinfo 00000040  00000000  00000000  000052c4  2**2
                  CONTENTS, READONLY
  5 .debug_aranges 000002c8  00000000  00000000  00005304  2**0
                  CONTENTS, READONLY, DEBUGGING
  6 .debug_info   0000afe8  00000000  00000000  000055cc  2**0
                  CONTENTS, READONLY, DEBUGGING
  7 .debug_abbrev 00000f3b  00000000  00000000  000105b4  2**0
                  CONTENTS, READONLY, DEBUGGING
  8 .debug_line   00004177  00000000  00000000  000114ef  2**0
                  CONTENTS, READONLY, DEBUGGING
  9 .debug_frame  00000c98  00000000  00000000  00015668  2**2
                  CONTENTS, READONLY, DEBUGGING
 10 .debug_str    00000de4  00000000  00000000  00016300  2**0
                  CONTENTS, READONLY, DEBUGGING
 11 .debug_loc    000054d3  00000000  00000000  000170e4  2**0
                  CONTENTS, READONLY, DEBUGGING
 12 .debug_ranges 000002e0  00000000  00000000  0001c5b7  2**0
                  CONTENTS, READONLY, DEBUGGING

Disassembly of section .text:

00000000 <__vectors>:
       0:	45 c0       	rjmp	.+138    	; 0x8c <__ctors_end>
       2:	00 00       	nop
       4:	62 c0       	rjmp	.+196    	; 0xca <__bad_interrupt>
       6:	00 00       	nop
       8:	60 c0       	rjmp	.+192    	; 0xca <__bad_interrupt>
       a:	00 00       	nop
       c:	5e c0       	rjmp	.+188    	; 0xca <__bad_interrupt>
       e:	00 00       	nop
      10:	5c c0       	rjmp	.+184    	; 0xca <__bad_interrupt>
      12:	00 00       	nop
      14:	5a c0       	rjmp	.+180    	; 0xca <__bad_interrupt>
      16:	00 00       	nop
      18:	58 c0       	rjmp	.+176    	; 0xca <__bad_interrupt>
      1a:	00 00       	nop
      1c:	56 c0       	rjmp	.+172    	; 0xca <__bad_interrupt>
      1e:	00 00       	nop
      20:	54 c0       	rjmp	.+168    	; 0xca <__bad_interrupt>
      22:	00 00       	nop
      24:	52 c0       	rjmp	.+164    	; 0xca <__bad_interrupt>
      26:	00 00       	nop
      28:	50 c0       	rjmp	.+160    	; 0xca <__bad_interrupt>
      2a:	00 00       	nop
      2c:	4e c0       	rjmp	.+156    	; 0xca <__bad_interrupt>
      2e:	00 00       	nop
      30:	4c c0       	rjmp	.+152    	; 0xca <__bad_interrupt>
      32:	00 00       	nop
      34:	4a c0       	rjmp	.+148    	; 0xca <__bad_interrupt>
      36:	00 00       	nop
      38:	48 c0       	rjmp	.+144    	; 0xca <__bad_interrupt>
      3a:	00 00       	nop
      3c:	46 c0       	rjmp	.+140    	; 0xca <__bad_interrupt>
      3e:	00 00       	nop
      40:	44 c0       	rjmp	.+136    	; 0xca <__bad_interrupt>
      42:	00 00       	nop
      44:	42 c0       	rjmp	.+132    	; 0xca <__bad_interrupt>
      46:	00 00       	nop
      48:	40 c0       	rjmp	.+128    	; 0xca <__bad_interrupt>
      4a:	00 00       	nop
      4c:	3e c0       	rjmp	.+124    	; 0xca <__bad_interrupt>
      4e:	00 00       	nop
      50:	3c c0       	rjmp	.+120    	; 0xca <__bad_interrupt>
      52:	00 00       	nop
      54:	3a c0       	rjmp	.+116    	; 0xca <__bad_interrupt>
      56:	00 00       	nop
      58:	38 c0       	rjmp	.+112    	; 0xca <__bad_interrupt>
      5a:	00 00       	nop
      5c:	36 c0       	rjmp	.+108    	; 0xca <__bad_interrupt>
      5e:	00 00       	nop
      60:	34 c0       	rjmp	.+104    	; 0xca <__bad_interrupt>
      62:	00 00       	nop
      64:	32 c0       	rjmp	.+100    	; 0xca <__bad_interrupt>
      66:	00 00       	nop
      68:	30 c0       	rjmp	.+96     	; 0xca <__bad_interrupt>
      6a:	00 00       	nop
      6c:	2e c0       	rjmp	.+92     	; 0xca <__bad_interrupt>
      6e:	00 00       	nop
      70:	2c c0       	rjmp	.+88     	; 0xca <__bad_interrupt>
      72:	00 00       	nop
      74:	2a c0       	rjmp	.+84     	; 0xca <__bad_interrupt>
      76:	00 00       	nop
      78:	28 c0       	rjmp	.+80     	; 0xca <__bad_interrupt>
      7a:	00 00       	nop
      7c:	26 c0       	rjmp	.+76     	; 0xca <__bad_interrupt>
      7e:	00 00       	nop
      80:	24 c0       	rjmp	.+72     	; 0xca <__bad_interrupt>
      82:	00 00       	nop
      84:	22 c0       	rjmp	.+68     	; 0xca <__bad_interrupt>
      86:	00 00       	nop
      88:	20 c0       	rjmp	.+64     	; 0xca <__bad_interrupt>
	...

0000008c <__ctors_end>:
      8c:	11 24       	eor	r1, r1
      8e:	1f be       	out	0x3f, r1	; 63
      90:	cf ef       	ldi	r28, 0xFF	; 255
      92:	d0 e4       	ldi	r29, 0x40	; 64
      94:	de bf       	out	0x3e, r29	; 62
      96:	cd bf       	out	0x3d, r28	; 61

00000098 <__do_copy_data>:
      98:	11 e0       	ldi	r17, 0x01	; 1
      9a:	a0 e0       	ldi	r26, 0x00	; 0
      9c:	b1 e0       	ldi	r27, 0x01	; 1
      9e:	e2 e1       	ldi	r30, 0x12	; 18
      a0:	f1 e5       	ldi	r31, 0x51	; 81
      a2:	00 e0       	ldi	r16, 0x00	; 0
      a4:	0b bf       	out	0x3b, r16	; 59
      a6:	02 c0       	rjmp	.+4      	; 0xac <__do_copy_data+0x14>
      a8:	07 90       	elpm	r0, Z+
      aa:	0d 92       	st	X+, r0
      ac:	a2 3c       	cpi	r26, 0xC2	; 194
      ae:	b1 07       	cpc	r27, r17
      b0:	d9 f7       	brne	.-10     	; 0xa8 <__do_copy_data+0x10>

000000b2 <__do_clear_bss>:
      b2:	23 e0       	ldi	r18, 0x03	; 3
      b4:	a2 ec       	ldi	r26, 0xC2	; 194
      b6:	b1 e0       	ldi	r27, 0x01	; 1
      b8:	01 c0       	rjmp	.+2      	; 0xbc <.do_clear_bss_start>

000000ba <.do_clear_bss_loop>:
      ba:	1d 92       	st	X+, r1

000000bc <.do_clear_bss_start>:
      bc:	af 3f       	cpi	r26, 0xFF	; 255
      be:	b2 07       	cpc	r27, r18
      c0:	e1 f7       	brne	.-8      	; 0xba <.do_clear_bss_loop>
      c2:	0e 94 c6 0e 	call	0x1d8c	; 0x1d8c <main>
      c6:	0c 94 87 28 	jmp	0x510e	; 0x510e <_exit>

000000ca <__bad_interrupt>:
      ca:	9a cf       	rjmp	.-204    	; 0x0 <__vectors>

000000cc <_ZL8xmit_mmcPKhj>:
	_delay_ms(1);
	
	// Test - Read WHO_AM_I = 0xAF
	unsigned char testReg = imu_read(0x75);
	if (testReg == 0xAF){
		PORTD&= ~ (1 << PD0);
      cc:	fc 01       	movw	r30, r24
      ce:	9f 01       	movw	r18, r30
      d0:	2f 5f       	subi	r18, 0xFF	; 255
      d2:	3f 4f       	sbci	r19, 0xFF	; 255
      d4:	80 81       	ld	r24, Z
      d6:	88 23       	and	r24, r24
      d8:	24 f4       	brge	.+8      	; 0xe2 <_ZL8xmit_mmcPKhj+0x16>
      da:	95 b1       	in	r25, 0x05	; 5
      dc:	90 62       	ori	r25, 0x20	; 32
      de:	95 b9       	out	0x05, r25	; 5
      e0:	03 c0       	rjmp	.+6      	; 0xe8 <_ZL8xmit_mmcPKhj+0x1c>
      e2:	95 b1       	in	r25, 0x05	; 5
      e4:	9f 7d       	andi	r25, 0xDF	; 223
      e6:	95 b9       	out	0x05, r25	; 5
      e8:	95 b1       	in	r25, 0x05	; 5
      ea:	90 68       	ori	r25, 0x80	; 128
      ec:	95 b9       	out	0x05, r25	; 5
      ee:	95 b1       	in	r25, 0x05	; 5
      f0:	9f 77       	andi	r25, 0x7F	; 127
      f2:	95 b9       	out	0x05, r25	; 5
      f4:	86 ff       	sbrs	r24, 6
      f6:	04 c0       	rjmp	.+8      	; 0x100 <_ZL8xmit_mmcPKhj+0x34>
      f8:	95 b1       	in	r25, 0x05	; 5
      fa:	90 62       	ori	r25, 0x20	; 32
      fc:	95 b9       	out	0x05, r25	; 5
      fe:	03 c0       	rjmp	.+6      	; 0x106 <_ZL8xmit_mmcPKhj+0x3a>
     100:	95 b1       	in	r25, 0x05	; 5
     102:	9f 7d       	andi	r25, 0xDF	; 223
     104:	95 b9       	out	0x05, r25	; 5
     106:	95 b1       	in	r25, 0x05	; 5
     108:	90 68       	ori	r25, 0x80	; 128
     10a:	95 b9       	out	0x05, r25	; 5
     10c:	95 b1       	in	r25, 0x05	; 5
     10e:	9f 77       	andi	r25, 0x7F	; 127
     110:	95 b9       	out	0x05, r25	; 5
     112:	85 ff       	sbrs	r24, 5
     114:	04 c0       	rjmp	.+8      	; 0x11e <_ZL8xmit_mmcPKhj+0x52>
     116:	95 b1       	in	r25, 0x05	; 5
     118:	90 62       	ori	r25, 0x20	; 32
     11a:	95 b9       	out	0x05, r25	; 5
     11c:	03 c0       	rjmp	.+6      	; 0x124 <_ZL8xmit_mmcPKhj+0x58>
     11e:	95 b1       	in	r25, 0x05	; 5
     120:	9f 7d       	andi	r25, 0xDF	; 223
     122:	95 b9       	out	0x05, r25	; 5
     124:	95 b1       	in	r25, 0x05	; 5
     126:	90 68       	ori	r25, 0x80	; 128
     128:	95 b9       	out	0x05, r25	; 5
     12a:	95 b1       	in	r25, 0x05	; 5
     12c:	9f 77       	andi	r25, 0x7F	; 127
     12e:	95 b9       	out	0x05, r25	; 5
     130:	84 ff       	sbrs	r24, 4
     132:	04 c0       	rjmp	.+8      	; 0x13c <_ZL8xmit_mmcPKhj+0x70>
     134:	95 b1       	in	r25, 0x05	; 5
     136:	90 62       	ori	r25, 0x20	; 32
     138:	95 b9       	out	0x05, r25	; 5
     13a:	03 c0       	rjmp	.+6      	; 0x142 <_ZL8xmit_mmcPKhj+0x76>
     13c:	95 b1       	in	r25, 0x05	; 5
     13e:	9f 7d       	andi	r25, 0xDF	; 223
     140:	95 b9       	out	0x05, r25	; 5
     142:	95 b1       	in	r25, 0x05	; 5
     144:	90 68       	ori	r25, 0x80	; 128
     146:	95 b9       	out	0x05, r25	; 5
     148:	95 b1       	in	r25, 0x05	; 5
     14a:	9f 77       	andi	r25, 0x7F	; 127
     14c:	95 b9       	out	0x05, r25	; 5
     14e:	83 ff       	sbrs	r24, 3
     150:	04 c0       	rjmp	.+8      	; 0x15a <_ZL8xmit_mmcPKhj+0x8e>
     152:	95 b1       	in	r25, 0x05	; 5
     154:	90 62       	ori	r25, 0x20	; 32
     156:	95 b9       	out	0x05, r25	; 5
     158:	03 c0       	rjmp	.+6      	; 0x160 <_ZL8xmit_mmcPKhj+0x94>
     15a:	95 b1       	in	r25, 0x05	; 5
     15c:	9f 7d       	andi	r25, 0xDF	; 223
     15e:	95 b9       	out	0x05, r25	; 5
     160:	95 b1       	in	r25, 0x05	; 5
     162:	90 68       	ori	r25, 0x80	; 128
     164:	95 b9       	out	0x05, r25	; 5
     166:	95 b1       	in	r25, 0x05	; 5
     168:	9f 77       	andi	r25, 0x7F	; 127
     16a:	95 b9       	out	0x05, r25	; 5
     16c:	82 ff       	sbrs	r24, 2
     16e:	04 c0       	rjmp	.+8      	; 0x178 <_ZL8xmit_mmcPKhj+0xac>
     170:	95 b1       	in	r25, 0x05	; 5
     172:	90 62       	ori	r25, 0x20	; 32
     174:	95 b9       	out	0x05, r25	; 5
     176:	03 c0       	rjmp	.+6      	; 0x17e <_ZL8xmit_mmcPKhj+0xb2>
     178:	95 b1       	in	r25, 0x05	; 5
     17a:	9f 7d       	andi	r25, 0xDF	; 223
     17c:	95 b9       	out	0x05, r25	; 5
     17e:	95 b1       	in	r25, 0x05	; 5
     180:	90 68       	ori	r25, 0x80	; 128
     182:	95 b9       	out	0x05, r25	; 5
     184:	95 b1       	in	r25, 0x05	; 5
     186:	9f 77       	andi	r25, 0x7F	; 127
     188:	95 b9       	out	0x05, r25	; 5
     18a:	81 ff       	sbrs	r24, 1
     18c:	04 c0       	rjmp	.+8      	; 0x196 <_ZL8xmit_mmcPKhj+0xca>
     18e:	95 b1       	in	r25, 0x05	; 5
     190:	90 62       	ori	r25, 0x20	; 32
     192:	95 b9       	out	0x05, r25	; 5
     194:	03 c0       	rjmp	.+6      	; 0x19c <_ZL8xmit_mmcPKhj+0xd0>
     196:	95 b1       	in	r25, 0x05	; 5
     198:	9f 7d       	andi	r25, 0xDF	; 223
     19a:	95 b9       	out	0x05, r25	; 5
     19c:	95 b1       	in	r25, 0x05	; 5
     19e:	90 68       	ori	r25, 0x80	; 128
     1a0:	95 b9       	out	0x05, r25	; 5
     1a2:	95 b1       	in	r25, 0x05	; 5
     1a4:	9f 77       	andi	r25, 0x7F	; 127
     1a6:	95 b9       	out	0x05, r25	; 5
     1a8:	80 ff       	sbrs	r24, 0
     1aa:	04 c0       	rjmp	.+8      	; 0x1b4 <_ZL8xmit_mmcPKhj+0xe8>
     1ac:	85 b1       	in	r24, 0x05	; 5
     1ae:	80 62       	ori	r24, 0x20	; 32
     1b0:	85 b9       	out	0x05, r24	; 5
     1b2:	03 c0       	rjmp	.+6      	; 0x1ba <_ZL8xmit_mmcPKhj+0xee>
     1b4:	85 b1       	in	r24, 0x05	; 5
     1b6:	8f 7d       	andi	r24, 0xDF	; 223
     1b8:	85 b9       	out	0x05, r24	; 5
     1ba:	85 b1       	in	r24, 0x05	; 5
     1bc:	80 68       	ori	r24, 0x80	; 128
     1be:	85 b9       	out	0x05, r24	; 5
     1c0:	85 b1       	in	r24, 0x05	; 5
     1c2:	8f 77       	andi	r24, 0x7F	; 127
     1c4:	85 b9       	out	0x05, r24	; 5
     1c6:	61 50       	subi	r22, 0x01	; 1
     1c8:	71 09       	sbc	r23, r1
     1ca:	f9 01       	movw	r30, r18
     1cc:	09 f0       	breq	.+2      	; 0x1d0 <_ZL8xmit_mmcPKhj+0x104>
     1ce:	7f cf       	rjmp	.-258    	; 0xce <_ZL8xmit_mmcPKhj+0x2>
     1d0:	08 95       	ret

000001d2 <_ZL8rcvr_mmcPhj>:
     1d2:	fc 01       	movw	r30, r24
     1d4:	85 b1       	in	r24, 0x05	; 5
     1d6:	80 62       	ori	r24, 0x20	; 32
     1d8:	85 b9       	out	0x05, r24	; 5
     1da:	01 c0       	rjmp	.+2      	; 0x1de <_ZL8rcvr_mmcPhj+0xc>
     1dc:	f9 01       	movw	r30, r18
     1de:	1e 99       	sbic	0x03, 6	; 3
     1e0:	02 c0       	rjmp	.+4      	; 0x1e6 <_ZL8rcvr_mmcPhj+0x14>
     1e2:	90 e0       	ldi	r25, 0x00	; 0
     1e4:	01 c0       	rjmp	.+2      	; 0x1e8 <_ZL8rcvr_mmcPhj+0x16>
     1e6:	91 e0       	ldi	r25, 0x01	; 1
     1e8:	85 b1       	in	r24, 0x05	; 5
     1ea:	80 68       	ori	r24, 0x80	; 128
     1ec:	85 b9       	out	0x05, r24	; 5
     1ee:	85 b1       	in	r24, 0x05	; 5
     1f0:	8f 77       	andi	r24, 0x7F	; 127
     1f2:	85 b9       	out	0x05, r24	; 5
     1f4:	99 0f       	add	r25, r25
     1f6:	1e 99       	sbic	0x03, 6	; 3
     1f8:	9f 5f       	subi	r25, 0xFF	; 255
     1fa:	85 b1       	in	r24, 0x05	; 5
     1fc:	80 68       	ori	r24, 0x80	; 128
     1fe:	85 b9       	out	0x05, r24	; 5
     200:	85 b1       	in	r24, 0x05	; 5
     202:	8f 77       	andi	r24, 0x7F	; 127
     204:	85 b9       	out	0x05, r24	; 5
     206:	99 0f       	add	r25, r25
     208:	1e 99       	sbic	0x03, 6	; 3
     20a:	9f 5f       	subi	r25, 0xFF	; 255
     20c:	85 b1       	in	r24, 0x05	; 5
     20e:	80 68       	ori	r24, 0x80	; 128
     210:	85 b9       	out	0x05, r24	; 5
     212:	85 b1       	in	r24, 0x05	; 5
     214:	8f 77       	andi	r24, 0x7F	; 127
     216:	85 b9       	out	0x05, r24	; 5
     218:	99 0f       	add	r25, r25
     21a:	1e 99       	sbic	0x03, 6	; 3
     21c:	9f 5f       	subi	r25, 0xFF	; 255
     21e:	85 b1       	in	r24, 0x05	; 5
     220:	80 68       	ori	r24, 0x80	; 128
     222:	85 b9       	out	0x05, r24	; 5
     224:	85 b1       	in	r24, 0x05	; 5
     226:	8f 77       	andi	r24, 0x7F	; 127
     228:	85 b9       	out	0x05, r24	; 5
     22a:	99 0f       	add	r25, r25
     22c:	1e 99       	sbic	0x03, 6	; 3
     22e:	9f 5f       	subi	r25, 0xFF	; 255
     230:	85 b1       	in	r24, 0x05	; 5
     232:	80 68       	ori	r24, 0x80	; 128
     234:	85 b9       	out	0x05, r24	; 5
     236:	85 b1       	in	r24, 0x05	; 5
     238:	8f 77       	andi	r24, 0x7F	; 127
     23a:	85 b9       	out	0x05, r24	; 5
     23c:	99 0f       	add	r25, r25
     23e:	1e 99       	sbic	0x03, 6	; 3
     240:	9f 5f       	subi	r25, 0xFF	; 255
     242:	85 b1       	in	r24, 0x05	; 5
     244:	80 68       	ori	r24, 0x80	; 128
     246:	85 b9       	out	0x05, r24	; 5
     248:	85 b1       	in	r24, 0x05	; 5
     24a:	8f 77       	andi	r24, 0x7F	; 127
     24c:	85 b9       	out	0x05, r24	; 5
     24e:	99 0f       	add	r25, r25
     250:	1e 99       	sbic	0x03, 6	; 3
     252:	9f 5f       	subi	r25, 0xFF	; 255
     254:	85 b1       	in	r24, 0x05	; 5
     256:	80 68       	ori	r24, 0x80	; 128
     258:	85 b9       	out	0x05, r24	; 5
     25a:	85 b1       	in	r24, 0x05	; 5
     25c:	8f 77       	andi	r24, 0x7F	; 127
     25e:	85 b9       	out	0x05, r24	; 5
     260:	99 0f       	add	r25, r25
     262:	1e 99       	sbic	0x03, 6	; 3
     264:	9f 5f       	subi	r25, 0xFF	; 255
     266:	25 b1       	in	r18, 0x05	; 5
     268:	20 68       	ori	r18, 0x80	; 128
     26a:	25 b9       	out	0x05, r18	; 5
     26c:	25 b1       	in	r18, 0x05	; 5
     26e:	2f 77       	andi	r18, 0x7F	; 127
     270:	25 b9       	out	0x05, r18	; 5
     272:	9f 01       	movw	r18, r30
     274:	2f 5f       	subi	r18, 0xFF	; 255
     276:	3f 4f       	sbci	r19, 0xFF	; 255
     278:	90 83       	st	Z, r25
     27a:	61 50       	subi	r22, 0x01	; 1
     27c:	71 09       	sbc	r23, r1
     27e:	09 f0       	breq	.+2      	; 0x282 <_ZL8rcvr_mmcPhj+0xb0>
     280:	ad cf       	rjmp	.-166    	; 0x1dc <_ZL8rcvr_mmcPhj+0xa>
     282:	08 95       	ret

00000284 <get_fattime>:
     284:	60 ec       	ldi	r22, 0xC0	; 192
     286:	73 ea       	ldi	r23, 0xA3	; 163
     288:	82 e0       	ldi	r24, 0x02	; 2
     28a:	93 e4       	ldi	r25, 0x43	; 67
     28c:	08 95       	ret

0000028e <_Z15spi_master_inithh>:
     28e:	84 b1       	in	r24, 0x04	; 4
     290:	84 60       	ori	r24, 0x04	; 4
     292:	84 b9       	out	0x04, r24	; 4
     294:	85 b1       	in	r24, 0x05	; 5
     296:	84 60       	ori	r24, 0x04	; 4
     298:	85 b9       	out	0x05, r24	; 5
     29a:	84 b1       	in	r24, 0x04	; 4
     29c:	88 60       	ori	r24, 0x08	; 8
     29e:	84 b9       	out	0x04, r24	; 4
     2a0:	85 b1       	in	r24, 0x05	; 5
     2a2:	88 60       	ori	r24, 0x08	; 8
     2a4:	85 b9       	out	0x05, r24	; 5
     2a6:	84 b1       	in	r24, 0x04	; 4
     2a8:	80 6a       	ori	r24, 0xA0	; 160
     2aa:	84 b9       	out	0x04, r24	; 4
     2ac:	08 95       	ret

000002ae <_Z8writeSPIhhh>:
     2ae:	0f 93       	push	r16
     2b0:	1f 93       	push	r17
     2b2:	cf 93       	push	r28
     2b4:	df 93       	push	r29
     2b6:	00 d0       	rcall	.+0      	; 0x2b8 <_Z8writeSPIhhh+0xa>
     2b8:	cd b7       	in	r28, 0x3d	; 61
     2ba:	de b7       	in	r29, 0x3e	; 62
     2bc:	89 83       	std	Y+1, r24	; 0x01
     2be:	6a 83       	std	Y+2, r22	; 0x02
     2c0:	85 b1       	in	r24, 0x05	; 5
     2c2:	01 e0       	ldi	r16, 0x01	; 1
     2c4:	10 e0       	ldi	r17, 0x00	; 0
     2c6:	02 c0       	rjmp	.+4      	; 0x2cc <_Z8writeSPIhhh+0x1e>
     2c8:	00 0f       	add	r16, r16
     2ca:	11 1f       	adc	r17, r17
     2cc:	4a 95       	dec	r20
     2ce:	e2 f7       	brpl	.-8      	; 0x2c8 <_Z8writeSPIhhh+0x1a>
     2d0:	90 2f       	mov	r25, r16
     2d2:	90 95       	com	r25
     2d4:	89 23       	and	r24, r25
     2d6:	85 b9       	out	0x05, r24	; 5
     2d8:	62 e0       	ldi	r22, 0x02	; 2
     2da:	70 e0       	ldi	r23, 0x00	; 0
     2dc:	ce 01       	movw	r24, r28
     2de:	01 96       	adiw	r24, 0x01	; 1
     2e0:	f5 de       	rcall	.-534    	; 0xcc <_ZL8xmit_mmcPKhj>
     2e2:	85 b1       	in	r24, 0x05	; 5
     2e4:	08 2b       	or	r16, r24
     2e6:	05 b9       	out	0x05, r16	; 5
     2e8:	0f 90       	pop	r0
     2ea:	0f 90       	pop	r0
     2ec:	df 91       	pop	r29
     2ee:	cf 91       	pop	r28
     2f0:	1f 91       	pop	r17
     2f2:	0f 91       	pop	r16
     2f4:	08 95       	ret

000002f6 <_Z7readSPIhh>:
     2f6:	0f 93       	push	r16
     2f8:	1f 93       	push	r17
     2fa:	cf 93       	push	r28
     2fc:	df 93       	push	r29
     2fe:	1f 92       	push	r1
     300:	cd b7       	in	r28, 0x3d	; 61
     302:	de b7       	in	r29, 0x3e	; 62
     304:	89 83       	std	Y+1, r24	; 0x01
     306:	85 b1       	in	r24, 0x05	; 5
     308:	01 e0       	ldi	r16, 0x01	; 1
     30a:	10 e0       	ldi	r17, 0x00	; 0
     30c:	02 c0       	rjmp	.+4      	; 0x312 <_Z7readSPIhh+0x1c>
     30e:	00 0f       	add	r16, r16
     310:	11 1f       	adc	r17, r17
     312:	6a 95       	dec	r22
     314:	e2 f7       	brpl	.-8      	; 0x30e <_Z7readSPIhh+0x18>
     316:	90 2f       	mov	r25, r16
     318:	90 95       	com	r25
     31a:	89 23       	and	r24, r25
     31c:	85 b9       	out	0x05, r24	; 5
     31e:	61 e0       	ldi	r22, 0x01	; 1
     320:	70 e0       	ldi	r23, 0x00	; 0
     322:	ce 01       	movw	r24, r28
     324:	01 96       	adiw	r24, 0x01	; 1
     326:	d2 de       	rcall	.-604    	; 0xcc <_ZL8xmit_mmcPKhj>
     328:	61 e0       	ldi	r22, 0x01	; 1
     32a:	70 e0       	ldi	r23, 0x00	; 0
     32c:	ce 01       	movw	r24, r28
     32e:	01 96       	adiw	r24, 0x01	; 1
     330:	50 df       	rcall	.-352    	; 0x1d2 <_ZL8rcvr_mmcPhj>
     332:	85 b1       	in	r24, 0x05	; 5
     334:	08 2b       	or	r16, r24
     336:	05 b9       	out	0x05, r16	; 5
     338:	89 81       	ldd	r24, Y+1	; 0x01
     33a:	0f 90       	pop	r0
     33c:	df 91       	pop	r29
     33e:	cf 91       	pop	r28
     340:	1f 91       	pop	r17
     342:	0f 91       	pop	r16
     344:	08 95       	ret

00000346 <_Z12startCaptureh>:
     346:	cf 93       	push	r28
     348:	c8 2f       	mov	r28, r24
     34a:	48 2f       	mov	r20, r24
     34c:	61 e0       	ldi	r22, 0x01	; 1
     34e:	84 e8       	ldi	r24, 0x84	; 132
     350:	ae df       	rcall	.-164    	; 0x2ae <_Z8writeSPIhhh>
     352:	4c 2f       	mov	r20, r28
     354:	61 e0       	ldi	r22, 0x01	; 1
     356:	84 e8       	ldi	r24, 0x84	; 132
     358:	aa df       	rcall	.-172    	; 0x2ae <_Z8writeSPIhhh>
     35a:	4c 2f       	mov	r20, r28
     35c:	60 e1       	ldi	r22, 0x10	; 16
     35e:	84 e8       	ldi	r24, 0x84	; 132
     360:	a6 df       	rcall	.-180    	; 0x2ae <_Z8writeSPIhhh>
     362:	4c 2f       	mov	r20, r28
     364:	60 e2       	ldi	r22, 0x20	; 32
     366:	84 e8       	ldi	r24, 0x84	; 132
     368:	a2 df       	rcall	.-188    	; 0x2ae <_Z8writeSPIhhh>
     36a:	4c 2f       	mov	r20, r28
     36c:	62 e0       	ldi	r22, 0x02	; 2
     36e:	84 e8       	ldi	r24, 0x84	; 132
     370:	9e df       	rcall	.-196    	; 0x2ae <_Z8writeSPIhhh>
     372:	6c 2f       	mov	r22, r28
     374:	81 e4       	ldi	r24, 0x41	; 65
     376:	bf df       	rcall	.-130    	; 0x2f6 <_Z7readSPIhh>
     378:	83 ff       	sbrs	r24, 3
     37a:	fb cf       	rjmp	.-10     	; 0x372 <_Z12startCaptureh+0x2c>
     37c:	cf 91       	pop	r28
     37e:	08 95       	ret

00000380 <_Z8i2c_initv>:
     380:	10 92 b9 00 	sts	0x00B9, r1	; 0x8000b9 <__TEXT_REGION_LENGTH__+0x7e00b9>
     384:	8c e0       	ldi	r24, 0x0C	; 12
     386:	80 93 b8 00 	sts	0x00B8, r24	; 0x8000b8 <__TEXT_REGION_LENGTH__+0x7e00b8>
     38a:	81 b1       	in	r24, 0x01	; 1
     38c:	80 6c       	ori	r24, 0xC0	; 192
     38e:	81 b9       	out	0x01, r24	; 1
     390:	82 b1       	in	r24, 0x02	; 2
     392:	8f 7b       	andi	r24, 0xBF	; 191
     394:	82 b9       	out	0x02, r24	; 2
     396:	82 b1       	in	r24, 0x02	; 2
     398:	8f 77       	andi	r24, 0x7F	; 127
     39a:	82 b9       	out	0x02, r24	; 2
     39c:	08 95       	ret

0000039e <_Z9i2c_starth>:
     39e:	94 ea       	ldi	r25, 0xA4	; 164
     3a0:	90 93 bc 00 	sts	0x00BC, r25	; 0x8000bc <__TEXT_REGION_LENGTH__+0x7e00bc>
     3a4:	90 91 bc 00 	lds	r25, 0x00BC	; 0x8000bc <__TEXT_REGION_LENGTH__+0x7e00bc>
     3a8:	99 23       	and	r25, r25
     3aa:	e4 f7       	brge	.-8      	; 0x3a4 <_Z9i2c_starth+0x6>
     3ac:	90 91 b9 00 	lds	r25, 0x00B9	; 0x8000b9 <__TEXT_REGION_LENGTH__+0x7e00b9>
     3b0:	98 7f       	andi	r25, 0xF8	; 248
     3b2:	98 30       	cpi	r25, 0x08	; 8
     3b4:	11 f0       	breq	.+4      	; 0x3ba <_Z9i2c_starth+0x1c>
     3b6:	90 31       	cpi	r25, 0x10	; 16
     3b8:	91 f4       	brne	.+36     	; 0x3de <_Z9i2c_starth+0x40>
     3ba:	80 93 bb 00 	sts	0x00BB, r24	; 0x8000bb <__TEXT_REGION_LENGTH__+0x7e00bb>
     3be:	84 e8       	ldi	r24, 0x84	; 132
     3c0:	80 93 bc 00 	sts	0x00BC, r24	; 0x8000bc <__TEXT_REGION_LENGTH__+0x7e00bc>
     3c4:	80 91 bc 00 	lds	r24, 0x00BC	; 0x8000bc <__TEXT_REGION_LENGTH__+0x7e00bc>
     3c8:	88 23       	and	r24, r24
     3ca:	e4 f7       	brge	.-8      	; 0x3c4 <_Z9i2c_starth+0x26>
     3cc:	80 91 b9 00 	lds	r24, 0x00B9	; 0x8000b9 <__TEXT_REGION_LENGTH__+0x7e00b9>
     3d0:	88 7f       	andi	r24, 0xF8	; 248
     3d2:	88 31       	cpi	r24, 0x18	; 24
     3d4:	31 f0       	breq	.+12     	; 0x3e2 <_Z9i2c_starth+0x44>
     3d6:	80 34       	cpi	r24, 0x40	; 64
     3d8:	31 f4       	brne	.+12     	; 0x3e6 <_Z9i2c_starth+0x48>
     3da:	80 e0       	ldi	r24, 0x00	; 0
     3dc:	08 95       	ret
     3de:	81 e0       	ldi	r24, 0x01	; 1
     3e0:	08 95       	ret
     3e2:	80 e0       	ldi	r24, 0x00	; 0
     3e4:	08 95       	ret
     3e6:	81 e0       	ldi	r24, 0x01	; 1
     3e8:	08 95       	ret

000003ea <_Z9i2c_writeh>:
     3ea:	80 93 bb 00 	sts	0x00BB, r24	; 0x8000bb <__TEXT_REGION_LENGTH__+0x7e00bb>
     3ee:	84 e8       	ldi	r24, 0x84	; 132
     3f0:	80 93 bc 00 	sts	0x00BC, r24	; 0x8000bc <__TEXT_REGION_LENGTH__+0x7e00bc>
     3f4:	80 91 bc 00 	lds	r24, 0x00BC	; 0x8000bc <__TEXT_REGION_LENGTH__+0x7e00bc>
     3f8:	88 23       	and	r24, r24
     3fa:	e4 f7       	brge	.-8      	; 0x3f4 <_Z9i2c_writeh+0xa>
     3fc:	80 91 b9 00 	lds	r24, 0x00B9	; 0x8000b9 <__TEXT_REGION_LENGTH__+0x7e00b9>
     400:	88 7f       	andi	r24, 0xF8	; 248
     402:	88 32       	cpi	r24, 0x28	; 40
     404:	11 f0       	breq	.+4      	; 0x40a <__LOCK_REGION_LENGTH__+0xa>
     406:	81 e0       	ldi	r24, 0x01	; 1
     408:	08 95       	ret
     40a:	80 e0       	ldi	r24, 0x00	; 0
     40c:	08 95       	ret

0000040e <_Z10sensor_sethhh>:
     40e:	1f 93       	push	r17
     410:	cf 93       	push	r28
     412:	df 93       	push	r29
     414:	18 2f       	mov	r17, r24
     416:	d6 2f       	mov	r29, r22
     418:	c4 2f       	mov	r28, r20
     41a:	88 e7       	ldi	r24, 0x78	; 120
     41c:	c0 df       	rcall	.-128    	; 0x39e <_Z9i2c_starth>
     41e:	81 2f       	mov	r24, r17
     420:	e4 df       	rcall	.-56     	; 0x3ea <_Z9i2c_writeh>
     422:	8d 2f       	mov	r24, r29
     424:	e2 df       	rcall	.-60     	; 0x3ea <_Z9i2c_writeh>
     426:	8c 2f       	mov	r24, r28
     428:	e0 df       	rcall	.-64     	; 0x3ea <_Z9i2c_writeh>
     42a:	df 91       	pop	r29
     42c:	cf 91       	pop	r28
     42e:	1f 91       	pop	r17
     430:	08 95       	ret

00000432 <_Z7set_bithhh>:
     432:	1f 93       	push	r17
     434:	cf 93       	push	r28
     436:	df 93       	push	r29
     438:	d8 2f       	mov	r29, r24
     43a:	c6 2f       	mov	r28, r22
     43c:	14 2f       	mov	r17, r20
     43e:	64 2f       	mov	r22, r20
     440:	5a df       	rcall	.-332    	; 0x2f6 <_Z7readSPIhh>
     442:	68 2f       	mov	r22, r24
     444:	6c 2b       	or	r22, r28
     446:	41 2f       	mov	r20, r17
     448:	8d 2f       	mov	r24, r29
     44a:	80 68       	ori	r24, 0x80	; 128
     44c:	30 df       	rcall	.-416    	; 0x2ae <_Z8writeSPIhhh>
     44e:	df 91       	pop	r29
     450:	cf 91       	pop	r28
     452:	1f 91       	pop	r17
     454:	08 95       	ret

00000456 <_Z12reg_set_jpegv>:
     456:	43 e9       	ldi	r20, 0x93	; 147
     458:	63 e0       	ldi	r22, 0x03	; 3
     45a:	81 e3       	ldi	r24, 0x31	; 49
     45c:	d8 df       	rcall	.-80     	; 0x40e <_Z10sensor_sethhh>
     45e:	42 e8       	ldi	r20, 0x82	; 130
     460:	68 e0       	ldi	r22, 0x08	; 8
     462:	80 e3       	ldi	r24, 0x30	; 48
     464:	d4 df       	rcall	.-88     	; 0x40e <_Z10sensor_sethhh>
     466:	4f e7       	ldi	r20, 0x7F	; 127
     468:	67 e1       	ldi	r22, 0x17	; 23
     46a:	80 e3       	ldi	r24, 0x30	; 48
     46c:	d0 df       	rcall	.-96     	; 0x40e <_Z10sensor_sethhh>
     46e:	4c ef       	ldi	r20, 0xFC	; 252
     470:	68 e1       	ldi	r22, 0x18	; 24
     472:	80 e3       	ldi	r24, 0x30	; 48
     474:	cc df       	rcall	.-104    	; 0x40e <_Z10sensor_sethhh>
     476:	42 ec       	ldi	r20, 0xC2	; 194
     478:	60 e1       	ldi	r22, 0x10	; 16
     47a:	88 e3       	ldi	r24, 0x38	; 56
     47c:	c8 df       	rcall	.-112    	; 0x40e <_Z10sensor_sethhh>
     47e:	40 ef       	ldi	r20, 0xF0	; 240
     480:	65 e1       	ldi	r22, 0x15	; 21
     482:	86 e3       	ldi	r24, 0x36	; 54
     484:	c4 df       	rcall	.-120    	; 0x40e <_Z10sensor_sethhh>
     486:	40 e0       	ldi	r20, 0x00	; 0
     488:	60 e0       	ldi	r22, 0x00	; 0
     48a:	80 e3       	ldi	r24, 0x30	; 48
     48c:	c0 df       	rcall	.-128    	; 0x40e <_Z10sensor_sethhh>
     48e:	40 e0       	ldi	r20, 0x00	; 0
     490:	61 e0       	ldi	r22, 0x01	; 1
     492:	80 e3       	ldi	r24, 0x30	; 48
     494:	bc df       	rcall	.-136    	; 0x40e <_Z10sensor_sethhh>
     496:	4c e5       	ldi	r20, 0x5C	; 92
     498:	62 e0       	ldi	r22, 0x02	; 2
     49a:	80 e3       	ldi	r24, 0x30	; 48
     49c:	b8 df       	rcall	.-144    	; 0x40e <_Z10sensor_sethhh>
     49e:	40 e0       	ldi	r20, 0x00	; 0
     4a0:	63 e0       	ldi	r22, 0x03	; 3
     4a2:	80 e3       	ldi	r24, 0x30	; 48
     4a4:	b4 df       	rcall	.-152    	; 0x40e <_Z10sensor_sethhh>
     4a6:	4f ef       	ldi	r20, 0xFF	; 255
     4a8:	64 e0       	ldi	r22, 0x04	; 4
     4aa:	80 e3       	ldi	r24, 0x30	; 48
     4ac:	b0 df       	rcall	.-160    	; 0x40e <_Z10sensor_sethhh>
     4ae:	4f ef       	ldi	r20, 0xFF	; 255
     4b0:	65 e0       	ldi	r22, 0x05	; 5
     4b2:	80 e3       	ldi	r24, 0x30	; 48
     4b4:	ac df       	rcall	.-168    	; 0x40e <_Z10sensor_sethhh>
     4b6:	43 e4       	ldi	r20, 0x43	; 67
     4b8:	66 e0       	ldi	r22, 0x06	; 6
     4ba:	80 e3       	ldi	r24, 0x30	; 48
     4bc:	a8 df       	rcall	.-176    	; 0x40e <_Z10sensor_sethhh>
     4be:	47 e3       	ldi	r20, 0x37	; 55
     4c0:	67 e0       	ldi	r22, 0x07	; 7
     4c2:	80 e3       	ldi	r24, 0x30	; 48
     4c4:	a4 df       	rcall	.-184    	; 0x40e <_Z10sensor_sethhh>
     4c6:	48 e0       	ldi	r20, 0x08	; 8
     4c8:	61 e1       	ldi	r22, 0x11	; 17
     4ca:	80 e3       	ldi	r24, 0x30	; 48
     4cc:	a0 df       	rcall	.-192    	; 0x40e <_Z10sensor_sethhh>
     4ce:	40 e1       	ldi	r20, 0x10	; 16
     4d0:	60 e1       	ldi	r22, 0x10	; 16
     4d2:	80 e3       	ldi	r24, 0x30	; 48
     4d4:	9c df       	rcall	.-200    	; 0x40e <_Z10sensor_sethhh>
     4d6:	42 e2       	ldi	r20, 0x22	; 34
     4d8:	6c e0       	ldi	r22, 0x0C	; 12
     4da:	86 e4       	ldi	r24, 0x46	; 70
     4dc:	98 df       	rcall	.-208    	; 0x40e <_Z10sensor_sethhh>
     4de:	44 e0       	ldi	r20, 0x04	; 4
     4e0:	65 e1       	ldi	r22, 0x15	; 21
     4e2:	88 e3       	ldi	r24, 0x38	; 56
     4e4:	94 df       	rcall	.-216    	; 0x40e <_Z10sensor_sethhh>
     4e6:	40 ea       	ldi	r20, 0xA0	; 160
     4e8:	6c e0       	ldi	r22, 0x0C	; 12
     4ea:	87 e3       	ldi	r24, 0x37	; 55
     4ec:	90 df       	rcall	.-224    	; 0x40e <_Z10sensor_sethhh>
     4ee:	4c ef       	ldi	r20, 0xFC	; 252
     4f0:	62 e0       	ldi	r22, 0x02	; 2
     4f2:	86 e3       	ldi	r24, 0x36	; 54
     4f4:	8c df       	rcall	.-232    	; 0x40e <_Z10sensor_sethhh>
     4f6:	4f ef       	ldi	r20, 0xFF	; 255
     4f8:	62 e1       	ldi	r22, 0x12	; 18
     4fa:	86 e3       	ldi	r24, 0x36	; 54
     4fc:	88 df       	rcall	.-240    	; 0x40e <_Z10sensor_sethhh>
     4fe:	40 ec       	ldi	r20, 0xC0	; 192
     500:	64 e3       	ldi	r22, 0x34	; 52
     502:	86 e3       	ldi	r24, 0x36	; 54
     504:	84 df       	rcall	.-248    	; 0x40e <_Z10sensor_sethhh>
     506:	40 e0       	ldi	r20, 0x00	; 0
     508:	63 e1       	ldi	r22, 0x13	; 19
     50a:	86 e3       	ldi	r24, 0x36	; 54
     50c:	80 df       	rcall	.-256    	; 0x40e <_Z10sensor_sethhh>
     50e:	4c e7       	ldi	r20, 0x7C	; 124
     510:	65 e0       	ldi	r22, 0x05	; 5
     512:	86 e3       	ldi	r24, 0x36	; 54
     514:	7c df       	rcall	.-264    	; 0x40e <_Z10sensor_sethhh>
     516:	49 e0       	ldi	r20, 0x09	; 9
     518:	61 e2       	ldi	r22, 0x21	; 33
     51a:	86 e3       	ldi	r24, 0x36	; 54
     51c:	78 df       	rcall	.-272    	; 0x40e <_Z10sensor_sethhh>
     51e:	40 e6       	ldi	r20, 0x60	; 96
     520:	62 e2       	ldi	r22, 0x22	; 34
     522:	86 e3       	ldi	r24, 0x36	; 54
     524:	74 df       	rcall	.-280    	; 0x40e <_Z10sensor_sethhh>
     526:	40 e4       	ldi	r20, 0x40	; 64
     528:	64 e0       	ldi	r22, 0x04	; 4
     52a:	86 e3       	ldi	r24, 0x36	; 54
     52c:	70 df       	rcall	.-288    	; 0x40e <_Z10sensor_sethhh>
     52e:	47 ea       	ldi	r20, 0xA7	; 167
     530:	63 e0       	ldi	r22, 0x03	; 3
     532:	86 e3       	ldi	r24, 0x36	; 54
     534:	6c df       	rcall	.-296    	; 0x40e <_Z10sensor_sethhh>
     536:	47 e2       	ldi	r20, 0x27	; 39
     538:	63 e0       	ldi	r22, 0x03	; 3
     53a:	86 e3       	ldi	r24, 0x36	; 54
     53c:	68 df       	rcall	.-304    	; 0x40e <_Z10sensor_sethhh>
     53e:	41 e2       	ldi	r20, 0x21	; 33
     540:	60 e0       	ldi	r22, 0x00	; 0
     542:	80 e4       	ldi	r24, 0x40	; 64
     544:	64 df       	rcall	.-312    	; 0x40e <_Z10sensor_sethhh>
     546:	42 e2       	ldi	r20, 0x22	; 34
     548:	6d e1       	ldi	r22, 0x1D	; 29
     54a:	80 e4       	ldi	r24, 0x40	; 64
     54c:	60 df       	rcall	.-320    	; 0x40e <_Z10sensor_sethhh>
     54e:	44 e5       	ldi	r20, 0x54	; 84
     550:	60 e0       	ldi	r22, 0x00	; 0
     552:	86 e3       	ldi	r24, 0x36	; 54
     554:	5c df       	rcall	.-328    	; 0x40e <_Z10sensor_sethhh>
     556:	44 e0       	ldi	r20, 0x04	; 4
     558:	65 e0       	ldi	r22, 0x05	; 5
     55a:	86 e3       	ldi	r24, 0x36	; 54
     55c:	58 df       	rcall	.-336    	; 0x40e <_Z10sensor_sethhh>
     55e:	4f e3       	ldi	r20, 0x3F	; 63
     560:	66 e0       	ldi	r22, 0x06	; 6
     562:	86 e3       	ldi	r24, 0x36	; 54
     564:	54 df       	rcall	.-344    	; 0x40e <_Z10sensor_sethhh>
     566:	40 e8       	ldi	r20, 0x80	; 128
     568:	61 e0       	ldi	r22, 0x01	; 1
     56a:	8c e3       	ldi	r24, 0x3C	; 60
     56c:	50 df       	rcall	.-352    	; 0x40e <_Z10sensor_sethhh>
     56e:	4f e4       	ldi	r20, 0x4F	; 79
     570:	60 e0       	ldi	r22, 0x00	; 0
     572:	80 e5       	ldi	r24, 0x50	; 80
     574:	4c df       	rcall	.-360    	; 0x40e <_Z10sensor_sethhh>
     576:	44 e0       	ldi	r20, 0x04	; 4
     578:	60 e2       	ldi	r22, 0x20	; 32
     57a:	80 e5       	ldi	r24, 0x50	; 80
     57c:	48 df       	rcall	.-368    	; 0x40e <_Z10sensor_sethhh>
     57e:	49 e7       	ldi	r20, 0x79	; 121
     580:	61 e8       	ldi	r22, 0x81	; 129
     582:	81 e5       	ldi	r24, 0x51	; 81
     584:	44 df       	rcall	.-376    	; 0x40e <_Z10sensor_sethhh>
     586:	40 e0       	ldi	r20, 0x00	; 0
     588:	62 e8       	ldi	r22, 0x82	; 130
     58a:	81 e5       	ldi	r24, 0x51	; 81
     58c:	40 df       	rcall	.-384    	; 0x40e <_Z10sensor_sethhh>
     58e:	42 e2       	ldi	r20, 0x22	; 34
     590:	65 e8       	ldi	r22, 0x85	; 133
     592:	81 e5       	ldi	r24, 0x51	; 81
     594:	3c df       	rcall	.-392    	; 0x40e <_Z10sensor_sethhh>
     596:	41 e0       	ldi	r20, 0x01	; 1
     598:	67 e9       	ldi	r22, 0x97	; 151
     59a:	81 e5       	ldi	r24, 0x51	; 81
     59c:	38 df       	rcall	.-400    	; 0x40e <_Z10sensor_sethhh>
     59e:	4f ef       	ldi	r20, 0xFF	; 255
     5a0:	61 e0       	ldi	r22, 0x01	; 1
     5a2:	80 e5       	ldi	r24, 0x50	; 80
     5a4:	34 df       	rcall	.-408    	; 0x40e <_Z10sensor_sethhh>
     5a6:	4a e0       	ldi	r20, 0x0A	; 10
     5a8:	60 e0       	ldi	r22, 0x00	; 0
     5aa:	85 e5       	ldi	r24, 0x55	; 85
     5ac:	30 df       	rcall	.-416    	; 0x40e <_Z10sensor_sethhh>
     5ae:	40 e0       	ldi	r20, 0x00	; 0
     5b0:	64 e0       	ldi	r22, 0x04	; 4
     5b2:	85 e5       	ldi	r24, 0x55	; 85
     5b4:	2c df       	rcall	.-424    	; 0x40e <_Z10sensor_sethhh>
     5b6:	4f e7       	ldi	r20, 0x7F	; 127
     5b8:	65 e0       	ldi	r22, 0x05	; 5
     5ba:	85 e5       	ldi	r24, 0x55	; 85
     5bc:	28 df       	rcall	.-432    	; 0x40e <_Z10sensor_sethhh>
     5be:	48 e0       	ldi	r20, 0x08	; 8
     5c0:	60 e8       	ldi	r22, 0x80	; 128
     5c2:	80 e5       	ldi	r24, 0x50	; 80
     5c4:	24 df       	rcall	.-440    	; 0x40e <_Z10sensor_sethhh>
     5c6:	48 e1       	ldi	r20, 0x18	; 24
     5c8:	6e e0       	ldi	r22, 0x0E	; 14
     5ca:	80 e3       	ldi	r24, 0x30	; 48
     5cc:	20 df       	rcall	.-448    	; 0x40e <_Z10sensor_sethhh>
     5ce:	40 e0       	ldi	r20, 0x00	; 0
     5d0:	60 e1       	ldi	r22, 0x10	; 16
     5d2:	86 e4       	ldi	r24, 0x46	; 70
     5d4:	1c df       	rcall	.-456    	; 0x40e <_Z10sensor_sethhh>
     5d6:	45 e0       	ldi	r20, 0x05	; 5
     5d8:	6d e1       	ldi	r22, 0x1D	; 29
     5da:	87 e4       	ldi	r24, 0x47	; 71
     5dc:	18 df       	rcall	.-464    	; 0x40e <_Z10sensor_sethhh>
     5de:	46 e0       	ldi	r20, 0x06	; 6
     5e0:	68 e0       	ldi	r22, 0x08	; 8
     5e2:	87 e4       	ldi	r24, 0x47	; 71
     5e4:	14 df       	rcall	.-472    	; 0x40e <_Z10sensor_sethhh>
     5e6:	42 e0       	ldi	r20, 0x02	; 2
     5e8:	68 e0       	ldi	r22, 0x08	; 8
     5ea:	88 e3       	ldi	r24, 0x38	; 56
     5ec:	10 df       	rcall	.-480    	; 0x40e <_Z10sensor_sethhh>
     5ee:	40 e8       	ldi	r20, 0x80	; 128
     5f0:	69 e0       	ldi	r22, 0x09	; 9
     5f2:	88 e3       	ldi	r24, 0x38	; 56
     5f4:	0c df       	rcall	.-488    	; 0x40e <_Z10sensor_sethhh>
     5f6:	41 e0       	ldi	r20, 0x01	; 1
     5f8:	6a e0       	ldi	r22, 0x0A	; 10
     5fa:	88 e3       	ldi	r24, 0x38	; 56
     5fc:	08 df       	rcall	.-496    	; 0x40e <_Z10sensor_sethhh>
     5fe:	40 ee       	ldi	r20, 0xE0	; 224
     600:	6b e0       	ldi	r22, 0x0B	; 11
     602:	88 e3       	ldi	r24, 0x38	; 56
     604:	04 df       	rcall	.-504    	; 0x40e <_Z10sensor_sethhh>
     606:	47 e0       	ldi	r20, 0x07	; 7
     608:	6e e0       	ldi	r22, 0x0E	; 14
     60a:	88 e3       	ldi	r24, 0x38	; 56
     60c:	00 df       	rcall	.-512    	; 0x40e <_Z10sensor_sethhh>
     60e:	40 ed       	ldi	r20, 0xD0	; 208
     610:	6f e0       	ldi	r22, 0x0F	; 15
     612:	88 e3       	ldi	r24, 0x38	; 56
     614:	fc de       	rcall	.-520    	; 0x40e <_Z10sensor_sethhh>
     616:	40 e0       	ldi	r20, 0x00	; 0
     618:	6f e1       	ldi	r22, 0x1F	; 31
     61a:	80 e5       	ldi	r24, 0x50	; 80
     61c:	f8 de       	rcall	.-528    	; 0x40e <_Z10sensor_sethhh>
     61e:	4f e4       	ldi	r20, 0x4F	; 79
     620:	60 e0       	ldi	r22, 0x00	; 0
     622:	80 e5       	ldi	r24, 0x50	; 80
     624:	f4 de       	rcall	.-536    	; 0x40e <_Z10sensor_sethhh>
     626:	40 e3       	ldi	r20, 0x30	; 48
     628:	60 e0       	ldi	r22, 0x00	; 0
     62a:	83 e4       	ldi	r24, 0x43	; 67
     62c:	f0 de       	rcall	.-544    	; 0x40e <_Z10sensor_sethhh>
     62e:	47 e0       	ldi	r20, 0x07	; 7
     630:	63 e0       	ldi	r22, 0x03	; 3
     632:	85 e3       	ldi	r24, 0x35	; 53
     634:	ec de       	rcall	.-552    	; 0x40e <_Z10sensor_sethhh>
     636:	43 e7       	ldi	r20, 0x73	; 115
     638:	61 e0       	ldi	r22, 0x01	; 1
     63a:	85 e3       	ldi	r24, 0x35	; 53
     63c:	e8 de       	rcall	.-560    	; 0x40e <_Z10sensor_sethhh>
     63e:	40 e8       	ldi	r20, 0x80	; 128
     640:	62 e0       	ldi	r22, 0x02	; 2
     642:	85 e3       	ldi	r24, 0x35	; 53
     644:	e4 de       	rcall	.-568    	; 0x40e <_Z10sensor_sethhh>
     646:	40 e0       	ldi	r20, 0x00	; 0
     648:	6b e0       	ldi	r22, 0x0B	; 11
     64a:	85 e3       	ldi	r24, 0x35	; 53
     64c:	e0 de       	rcall	.-576    	; 0x40e <_Z10sensor_sethhh>
     64e:	47 e0       	ldi	r20, 0x07	; 7
     650:	63 e0       	ldi	r22, 0x03	; 3
     652:	85 e3       	ldi	r24, 0x35	; 53
     654:	dc de       	rcall	.-584    	; 0x40e <_Z10sensor_sethhh>
     656:	41 e1       	ldi	r20, 0x11	; 17
     658:	64 e2       	ldi	r22, 0x24	; 36
     65a:	88 e3       	ldi	r24, 0x38	; 56
     65c:	d8 de       	rcall	.-592    	; 0x40e <_Z10sensor_sethhh>
     65e:	4e e1       	ldi	r20, 0x1E	; 30
     660:	61 e0       	ldi	r22, 0x01	; 1
     662:	85 e3       	ldi	r24, 0x35	; 53
     664:	d4 de       	rcall	.-600    	; 0x40e <_Z10sensor_sethhh>
     666:	40 e8       	ldi	r20, 0x80	; 128
     668:	62 e0       	ldi	r22, 0x02	; 2
     66a:	85 e3       	ldi	r24, 0x35	; 53
     66c:	d0 de       	rcall	.-608    	; 0x40e <_Z10sensor_sethhh>
     66e:	4f e7       	ldi	r20, 0x7F	; 127
     670:	6b e0       	ldi	r22, 0x0B	; 11
     672:	85 e3       	ldi	r24, 0x35	; 53
     674:	cc de       	rcall	.-616    	; 0x40e <_Z10sensor_sethhh>
     676:	4c e0       	ldi	r20, 0x0C	; 12
     678:	6c e0       	ldi	r22, 0x0C	; 12
     67a:	88 e3       	ldi	r24, 0x38	; 56
     67c:	c8 de       	rcall	.-624    	; 0x40e <_Z10sensor_sethhh>
     67e:	40 e8       	ldi	r20, 0x80	; 128
     680:	6d e0       	ldi	r22, 0x0D	; 13
     682:	88 e3       	ldi	r24, 0x38	; 56
     684:	c4 de       	rcall	.-632    	; 0x40e <_Z10sensor_sethhh>
     686:	43 e0       	ldi	r20, 0x03	; 3
     688:	6e e0       	ldi	r22, 0x0E	; 14
     68a:	88 e3       	ldi	r24, 0x38	; 56
     68c:	c0 de       	rcall	.-640    	; 0x40e <_Z10sensor_sethhh>
     68e:	48 ee       	ldi	r20, 0xE8	; 232
     690:	6f e0       	ldi	r22, 0x0F	; 15
     692:	88 e3       	ldi	r24, 0x38	; 56
     694:	bc de       	rcall	.-648    	; 0x40e <_Z10sensor_sethhh>
     696:	44 e0       	ldi	r20, 0x04	; 4
     698:	6d e0       	ldi	r22, 0x0D	; 13
     69a:	8a e3       	ldi	r24, 0x3A	; 58
     69c:	b8 de       	rcall	.-656    	; 0x40e <_Z10sensor_sethhh>
     69e:	43 e0       	ldi	r20, 0x03	; 3
     6a0:	6e e0       	ldi	r22, 0x0E	; 14
     6a2:	8a e3       	ldi	r24, 0x3A	; 58
     6a4:	b4 de       	rcall	.-664    	; 0x40e <_Z10sensor_sethhh>
     6a6:	41 ec       	ldi	r20, 0xC1	; 193
     6a8:	68 e1       	ldi	r22, 0x18	; 24
     6aa:	88 e3       	ldi	r24, 0x38	; 56
     6ac:	b0 de       	rcall	.-672    	; 0x40e <_Z10sensor_sethhh>
     6ae:	4b ed       	ldi	r20, 0xDB	; 219
     6b0:	65 e0       	ldi	r22, 0x05	; 5
     6b2:	87 e3       	ldi	r24, 0x37	; 55
     6b4:	ac de       	rcall	.-680    	; 0x40e <_Z10sensor_sethhh>
     6b6:	41 e8       	ldi	r20, 0x81	; 129
     6b8:	6a e0       	ldi	r22, 0x0A	; 10
     6ba:	87 e3       	ldi	r24, 0x37	; 55
     6bc:	a8 de       	rcall	.-688    	; 0x40e <_Z10sensor_sethhh>
     6be:	40 e8       	ldi	r20, 0x80	; 128
     6c0:	61 e0       	ldi	r22, 0x01	; 1
     6c2:	88 e3       	ldi	r24, 0x38	; 56
     6c4:	a4 de       	rcall	.-696    	; 0x40e <_Z10sensor_sethhh>
     6c6:	47 e8       	ldi	r20, 0x87	; 135
     6c8:	61 e2       	ldi	r22, 0x21	; 33
     6ca:	86 e3       	ldi	r24, 0x36	; 54
     6cc:	a0 de       	rcall	.-704    	; 0x40e <_Z10sensor_sethhh>
     6ce:	40 e5       	ldi	r20, 0x50	; 80
     6d0:	61 e0       	ldi	r22, 0x01	; 1
     6d2:	88 e3       	ldi	r24, 0x38	; 56
     6d4:	9c de       	rcall	.-712    	; 0x40e <_Z10sensor_sethhh>
     6d6:	48 e0       	ldi	r20, 0x08	; 8
     6d8:	63 e0       	ldi	r22, 0x03	; 3
     6da:	88 e3       	ldi	r24, 0x38	; 56
     6dc:	98 de       	rcall	.-720    	; 0x40e <_Z10sensor_sethhh>
     6de:	48 e0       	ldi	r20, 0x08	; 8
     6e0:	67 e2       	ldi	r22, 0x27	; 39
     6e2:	88 e3       	ldi	r24, 0x38	; 56
     6e4:	94 de       	rcall	.-728    	; 0x40e <_Z10sensor_sethhh>
     6e6:	40 e4       	ldi	r20, 0x40	; 64
     6e8:	60 e1       	ldi	r22, 0x10	; 16
     6ea:	88 e3       	ldi	r24, 0x38	; 56
     6ec:	90 de       	rcall	.-736    	; 0x40e <_Z10sensor_sethhh>
     6ee:	45 e0       	ldi	r20, 0x05	; 5
     6f0:	64 e0       	ldi	r22, 0x04	; 4
     6f2:	88 e3       	ldi	r24, 0x38	; 56
     6f4:	8c de       	rcall	.-744    	; 0x40e <_Z10sensor_sethhh>
     6f6:	40 e0       	ldi	r20, 0x00	; 0
     6f8:	65 e0       	ldi	r22, 0x05	; 5
     6fa:	88 e3       	ldi	r24, 0x38	; 56
     6fc:	88 de       	rcall	.-752    	; 0x40e <_Z10sensor_sethhh>
     6fe:	45 e0       	ldi	r20, 0x05	; 5
     700:	62 e8       	ldi	r22, 0x82	; 130
     702:	86 e5       	ldi	r24, 0x56	; 86
     704:	84 de       	rcall	.-760    	; 0x40e <_Z10sensor_sethhh>
     706:	40 e0       	ldi	r20, 0x00	; 0
     708:	63 e8       	ldi	r22, 0x83	; 131
     70a:	86 e5       	ldi	r24, 0x56	; 86
     70c:	80 de       	rcall	.-768    	; 0x40e <_Z10sensor_sethhh>
     70e:	43 e0       	ldi	r20, 0x03	; 3
     710:	66 e0       	ldi	r22, 0x06	; 6
     712:	88 e3       	ldi	r24, 0x38	; 56
     714:	7c de       	rcall	.-776    	; 0x40e <_Z10sensor_sethhh>
     716:	40 ec       	ldi	r20, 0xC0	; 192
     718:	67 e0       	ldi	r22, 0x07	; 7
     71a:	88 e3       	ldi	r24, 0x38	; 56
     71c:	78 de       	rcall	.-784    	; 0x40e <_Z10sensor_sethhh>
     71e:	43 e0       	ldi	r20, 0x03	; 3
     720:	66 e8       	ldi	r22, 0x86	; 134
     722:	86 e5       	ldi	r24, 0x56	; 86
     724:	74 de       	rcall	.-792    	; 0x40e <_Z10sensor_sethhh>
     726:	4c eb       	ldi	r20, 0xBC	; 188
     728:	67 e8       	ldi	r22, 0x87	; 135
     72a:	86 e5       	ldi	r24, 0x56	; 86
     72c:	70 de       	rcall	.-800    	; 0x40e <_Z10sensor_sethhh>
     72e:	48 e7       	ldi	r20, 0x78	; 120
     730:	60 e0       	ldi	r22, 0x00	; 0
     732:	8a e3       	ldi	r24, 0x3A	; 58
     734:	6c de       	rcall	.-808    	; 0x40e <_Z10sensor_sethhh>
     736:	45 e0       	ldi	r20, 0x05	; 5
     738:	6a e1       	ldi	r22, 0x1A	; 26
     73a:	8a e3       	ldi	r24, 0x3A	; 58
     73c:	68 de       	rcall	.-816    	; 0x40e <_Z10sensor_sethhh>
     73e:	40 e3       	ldi	r20, 0x30	; 48
     740:	63 e1       	ldi	r22, 0x13	; 19
     742:	8a e3       	ldi	r24, 0x3A	; 58
     744:	64 de       	rcall	.-824    	; 0x40e <_Z10sensor_sethhh>
     746:	40 e0       	ldi	r20, 0x00	; 0
     748:	68 e1       	ldi	r22, 0x18	; 24
     74a:	8a e3       	ldi	r24, 0x3A	; 58
     74c:	60 de       	rcall	.-832    	; 0x40e <_Z10sensor_sethhh>
     74e:	4c e7       	ldi	r20, 0x7C	; 124
     750:	69 e1       	ldi	r22, 0x19	; 25
     752:	8a e3       	ldi	r24, 0x3A	; 58
     754:	5c de       	rcall	.-840    	; 0x40e <_Z10sensor_sethhh>
     756:	42 e1       	ldi	r20, 0x12	; 18
     758:	68 e0       	ldi	r22, 0x08	; 8
     75a:	8a e3       	ldi	r24, 0x3A	; 58
     75c:	58 de       	rcall	.-848    	; 0x40e <_Z10sensor_sethhh>
     75e:	40 ec       	ldi	r20, 0xC0	; 192
     760:	69 e0       	ldi	r22, 0x09	; 9
     762:	8a e3       	ldi	r24, 0x3A	; 58
     764:	54 de       	rcall	.-856    	; 0x40e <_Z10sensor_sethhh>
     766:	4f e0       	ldi	r20, 0x0F	; 15
     768:	6a e0       	ldi	r22, 0x0A	; 10
     76a:	8a e3       	ldi	r24, 0x3A	; 58
     76c:	50 de       	rcall	.-864    	; 0x40e <_Z10sensor_sethhh>
     76e:	40 ea       	ldi	r20, 0xA0	; 160
     770:	6b e0       	ldi	r22, 0x0B	; 11
     772:	8a e3       	ldi	r24, 0x3A	; 58
     774:	4c de       	rcall	.-872    	; 0x40e <_Z10sensor_sethhh>
     776:	47 e0       	ldi	r20, 0x07	; 7
     778:	6c e0       	ldi	r22, 0x0C	; 12
     77a:	85 e3       	ldi	r24, 0x35	; 53
     77c:	48 de       	rcall	.-880    	; 0x40e <_Z10sensor_sethhh>
     77e:	40 ed       	ldi	r20, 0xD0	; 208
     780:	6d e0       	ldi	r22, 0x0D	; 13
     782:	85 e3       	ldi	r24, 0x35	; 53
     784:	44 de       	rcall	.-888    	; 0x40e <_Z10sensor_sethhh>
     786:	40 e0       	ldi	r20, 0x00	; 0
     788:	60 e0       	ldi	r22, 0x00	; 0
     78a:	85 e3       	ldi	r24, 0x35	; 53
     78c:	40 de       	rcall	.-896    	; 0x40e <_Z10sensor_sethhh>
     78e:	40 e0       	ldi	r20, 0x00	; 0
     790:	61 e0       	ldi	r22, 0x01	; 1
     792:	85 e3       	ldi	r24, 0x35	; 53
     794:	3c de       	rcall	.-904    	; 0x40e <_Z10sensor_sethhh>
     796:	40 e0       	ldi	r20, 0x00	; 0
     798:	62 e0       	ldi	r22, 0x02	; 2
     79a:	85 e3       	ldi	r24, 0x35	; 53
     79c:	38 de       	rcall	.-912    	; 0x40e <_Z10sensor_sethhh>
     79e:	40 e0       	ldi	r20, 0x00	; 0
     7a0:	6a e0       	ldi	r22, 0x0A	; 10
     7a2:	85 e3       	ldi	r24, 0x35	; 53
     7a4:	34 de       	rcall	.-920    	; 0x40e <_Z10sensor_sethhh>
     7a6:	40 e0       	ldi	r20, 0x00	; 0
     7a8:	6b e0       	ldi	r22, 0x0B	; 11
     7aa:	85 e3       	ldi	r24, 0x35	; 53
     7ac:	30 de       	rcall	.-928    	; 0x40e <_Z10sensor_sethhh>
     7ae:	40 e0       	ldi	r20, 0x00	; 0
     7b0:	63 e0       	ldi	r22, 0x03	; 3
     7b2:	85 e3       	ldi	r24, 0x35	; 53
     7b4:	2c de       	rcall	.-936    	; 0x40e <_Z10sensor_sethhh>
     7b6:	42 e0       	ldi	r20, 0x02	; 2
     7b8:	6a e8       	ldi	r22, 0x8A	; 138
     7ba:	82 e5       	ldi	r24, 0x52	; 82
     7bc:	28 de       	rcall	.-944    	; 0x40e <_Z10sensor_sethhh>
     7be:	44 e0       	ldi	r20, 0x04	; 4
     7c0:	6b e8       	ldi	r22, 0x8B	; 139
     7c2:	82 e5       	ldi	r24, 0x52	; 82
     7c4:	24 de       	rcall	.-952    	; 0x40e <_Z10sensor_sethhh>
     7c6:	48 e0       	ldi	r20, 0x08	; 8
     7c8:	6c e8       	ldi	r22, 0x8C	; 140
     7ca:	82 e5       	ldi	r24, 0x52	; 82
     7cc:	20 de       	rcall	.-960    	; 0x40e <_Z10sensor_sethhh>
     7ce:	48 e0       	ldi	r20, 0x08	; 8
     7d0:	6d e8       	ldi	r22, 0x8D	; 141
     7d2:	82 e5       	ldi	r24, 0x52	; 82
     7d4:	1c de       	rcall	.-968    	; 0x40e <_Z10sensor_sethhh>
     7d6:	48 e0       	ldi	r20, 0x08	; 8
     7d8:	6e e8       	ldi	r22, 0x8E	; 142
     7da:	82 e5       	ldi	r24, 0x52	; 82
     7dc:	18 de       	rcall	.-976    	; 0x40e <_Z10sensor_sethhh>
     7de:	40 e1       	ldi	r20, 0x10	; 16
     7e0:	6f e8       	ldi	r22, 0x8F	; 143
     7e2:	82 e5       	ldi	r24, 0x52	; 82
     7e4:	14 de       	rcall	.-984    	; 0x40e <_Z10sensor_sethhh>
     7e6:	40 e1       	ldi	r20, 0x10	; 16
     7e8:	60 e9       	ldi	r22, 0x90	; 144
     7ea:	82 e5       	ldi	r24, 0x52	; 82
     7ec:	10 de       	rcall	.-992    	; 0x40e <_Z10sensor_sethhh>
     7ee:	40 e0       	ldi	r20, 0x00	; 0
     7f0:	62 e9       	ldi	r22, 0x92	; 146
     7f2:	82 e5       	ldi	r24, 0x52	; 82
     7f4:	0c de       	rcall	.-1000   	; 0x40e <_Z10sensor_sethhh>
     7f6:	42 e0       	ldi	r20, 0x02	; 2
     7f8:	63 e9       	ldi	r22, 0x93	; 147
     7fa:	82 e5       	ldi	r24, 0x52	; 82
     7fc:	08 de       	rcall	.-1008   	; 0x40e <_Z10sensor_sethhh>
     7fe:	40 e0       	ldi	r20, 0x00	; 0
     800:	64 e9       	ldi	r22, 0x94	; 148
     802:	82 e5       	ldi	r24, 0x52	; 82
     804:	04 de       	rcall	.-1016   	; 0x40e <_Z10sensor_sethhh>
     806:	42 e0       	ldi	r20, 0x02	; 2
     808:	65 e9       	ldi	r22, 0x95	; 149
     80a:	82 e5       	ldi	r24, 0x52	; 82
     80c:	00 de       	rcall	.-1024   	; 0x40e <_Z10sensor_sethhh>
     80e:	40 e0       	ldi	r20, 0x00	; 0
     810:	66 e9       	ldi	r22, 0x96	; 150
     812:	82 e5       	ldi	r24, 0x52	; 82
     814:	fc dd       	rcall	.-1032   	; 0x40e <_Z10sensor_sethhh>
     816:	42 e0       	ldi	r20, 0x02	; 2
     818:	67 e9       	ldi	r22, 0x97	; 151
     81a:	82 e5       	ldi	r24, 0x52	; 82
     81c:	f8 dd       	rcall	.-1040   	; 0x40e <_Z10sensor_sethhh>
     81e:	40 e0       	ldi	r20, 0x00	; 0
     820:	68 e9       	ldi	r22, 0x98	; 152
     822:	82 e5       	ldi	r24, 0x52	; 82
     824:	f4 dd       	rcall	.-1048   	; 0x40e <_Z10sensor_sethhh>
     826:	42 e0       	ldi	r20, 0x02	; 2
     828:	69 e9       	ldi	r22, 0x99	; 153
     82a:	82 e5       	ldi	r24, 0x52	; 82
     82c:	f0 dd       	rcall	.-1056   	; 0x40e <_Z10sensor_sethhh>
     82e:	40 e0       	ldi	r20, 0x00	; 0
     830:	6a e9       	ldi	r22, 0x9A	; 154
     832:	82 e5       	ldi	r24, 0x52	; 82
     834:	ec dd       	rcall	.-1064   	; 0x40e <_Z10sensor_sethhh>
     836:	42 e0       	ldi	r20, 0x02	; 2
     838:	6b e9       	ldi	r22, 0x9B	; 155
     83a:	82 e5       	ldi	r24, 0x52	; 82
     83c:	e8 dd       	rcall	.-1072   	; 0x40e <_Z10sensor_sethhh>
     83e:	40 e0       	ldi	r20, 0x00	; 0
     840:	6c e9       	ldi	r22, 0x9C	; 156
     842:	82 e5       	ldi	r24, 0x52	; 82
     844:	e4 dd       	rcall	.-1080   	; 0x40e <_Z10sensor_sethhh>
     846:	42 e0       	ldi	r20, 0x02	; 2
     848:	6d e9       	ldi	r22, 0x9D	; 157
     84a:	82 e5       	ldi	r24, 0x52	; 82
     84c:	e0 dd       	rcall	.-1088   	; 0x40e <_Z10sensor_sethhh>
     84e:	40 e0       	ldi	r20, 0x00	; 0
     850:	6e e9       	ldi	r22, 0x9E	; 158
     852:	82 e5       	ldi	r24, 0x52	; 82
     854:	dc dd       	rcall	.-1096   	; 0x40e <_Z10sensor_sethhh>
     856:	42 e0       	ldi	r20, 0x02	; 2
     858:	6f e9       	ldi	r22, 0x9F	; 159
     85a:	82 e5       	ldi	r24, 0x52	; 82
     85c:	d8 dd       	rcall	.-1104   	; 0x40e <_Z10sensor_sethhh>
     85e:	4b e0       	ldi	r20, 0x0B	; 11
     860:	60 e3       	ldi	r22, 0x30	; 48
     862:	80 e3       	ldi	r24, 0x30	; 48
     864:	d4 dd       	rcall	.-1112   	; 0x40e <_Z10sensor_sethhh>
     866:	40 e0       	ldi	r20, 0x00	; 0
     868:	62 e0       	ldi	r22, 0x02	; 2
     86a:	8a e3       	ldi	r24, 0x3A	; 58
     86c:	d0 dd       	rcall	.-1120   	; 0x40e <_Z10sensor_sethhh>
     86e:	4d e7       	ldi	r20, 0x7D	; 125
     870:	63 e0       	ldi	r22, 0x03	; 3
     872:	8a e3       	ldi	r24, 0x3A	; 58
     874:	cc dd       	rcall	.-1128   	; 0x40e <_Z10sensor_sethhh>
     876:	40 e0       	ldi	r20, 0x00	; 0
     878:	64 e0       	ldi	r22, 0x04	; 4
     87a:	8a e3       	ldi	r24, 0x3A	; 58
     87c:	c8 dd       	rcall	.-1136   	; 0x40e <_Z10sensor_sethhh>
     87e:	40 e0       	ldi	r20, 0x00	; 0
     880:	64 e1       	ldi	r22, 0x14	; 20
     882:	8a e3       	ldi	r24, 0x3A	; 58
     884:	c4 dd       	rcall	.-1144   	; 0x40e <_Z10sensor_sethhh>
     886:	4d e7       	ldi	r20, 0x7D	; 125
     888:	65 e1       	ldi	r22, 0x15	; 21
     88a:	8a e3       	ldi	r24, 0x3A	; 58
     88c:	c0 dd       	rcall	.-1152   	; 0x40e <_Z10sensor_sethhh>
     88e:	40 e0       	ldi	r20, 0x00	; 0
     890:	66 e1       	ldi	r22, 0x16	; 22
     892:	8a e3       	ldi	r24, 0x3A	; 58
     894:	bc dd       	rcall	.-1160   	; 0x40e <_Z10sensor_sethhh>
     896:	48 e7       	ldi	r20, 0x78	; 120
     898:	60 e0       	ldi	r22, 0x00	; 0
     89a:	8a e3       	ldi	r24, 0x3A	; 58
     89c:	b8 dd       	rcall	.-1168   	; 0x40e <_Z10sensor_sethhh>
     89e:	49 e0       	ldi	r20, 0x09	; 9
     8a0:	68 e0       	ldi	r22, 0x08	; 8
     8a2:	8a e3       	ldi	r24, 0x3A	; 58
     8a4:	b4 dd       	rcall	.-1176   	; 0x40e <_Z10sensor_sethhh>
     8a6:	40 e6       	ldi	r20, 0x60	; 96
     8a8:	69 e0       	ldi	r22, 0x09	; 9
     8aa:	8a e3       	ldi	r24, 0x3A	; 58
     8ac:	b0 dd       	rcall	.-1184   	; 0x40e <_Z10sensor_sethhh>
     8ae:	47 e0       	ldi	r20, 0x07	; 7
     8b0:	6a e0       	ldi	r22, 0x0A	; 10
     8b2:	8a e3       	ldi	r24, 0x3A	; 58
     8b4:	ac dd       	rcall	.-1192   	; 0x40e <_Z10sensor_sethhh>
     8b6:	40 ed       	ldi	r20, 0xD0	; 208
     8b8:	6b e0       	ldi	r22, 0x0B	; 11
     8ba:	8a e3       	ldi	r24, 0x3A	; 58
     8bc:	a8 dd       	rcall	.-1200   	; 0x40e <_Z10sensor_sethhh>
     8be:	48 e0       	ldi	r20, 0x08	; 8
     8c0:	6d e0       	ldi	r22, 0x0D	; 13
     8c2:	8a e3       	ldi	r24, 0x3A	; 58
     8c4:	a4 dd       	rcall	.-1208   	; 0x40e <_Z10sensor_sethhh>
     8c6:	46 e0       	ldi	r20, 0x06	; 6
     8c8:	6e e0       	ldi	r22, 0x0E	; 14
     8ca:	8a e3       	ldi	r24, 0x3A	; 58
     8cc:	a0 dd       	rcall	.-1216   	; 0x40e <_Z10sensor_sethhh>
     8ce:	40 e7       	ldi	r20, 0x70	; 112
     8d0:	63 e9       	ldi	r22, 0x93	; 147
     8d2:	81 e5       	ldi	r24, 0x51	; 81
     8d4:	9c dd       	rcall	.-1224   	; 0x40e <_Z10sensor_sethhh>
     8d6:	44 e0       	ldi	r20, 0x04	; 4
     8d8:	6b e9       	ldi	r22, 0x9B	; 155
     8da:	88 e5       	ldi	r24, 0x58	; 88
     8dc:	98 dd       	rcall	.-1232   	; 0x40e <_Z10sensor_sethhh>
     8de:	45 ec       	ldi	r20, 0xC5	; 197
     8e0:	6a e9       	ldi	r22, 0x9A	; 154
     8e2:	88 e5       	ldi	r24, 0x58	; 88
     8e4:	94 dd       	rcall	.-1240   	; 0x40e <_Z10sensor_sethhh>
     8e6:	40 e2       	ldi	r20, 0x20	; 32
     8e8:	6e e1       	ldi	r22, 0x1E	; 30
     8ea:	80 e4       	ldi	r24, 0x40	; 64
     8ec:	90 dd       	rcall	.-1248   	; 0x40e <_Z10sensor_sethhh>
     8ee:	42 e4       	ldi	r20, 0x42	; 66
     8f0:	61 e0       	ldi	r22, 0x01	; 1
     8f2:	80 e4       	ldi	r24, 0x40	; 64
     8f4:	8c dd       	rcall	.-1256   	; 0x40e <_Z10sensor_sethhh>
     8f6:	44 e0       	ldi	r20, 0x04	; 4
     8f8:	6c e1       	ldi	r22, 0x1C	; 28
     8fa:	80 e4       	ldi	r24, 0x40	; 64
     8fc:	88 dd       	rcall	.-1264   	; 0x40e <_Z10sensor_sethhh>
     8fe:	41 e0       	ldi	r20, 0x01	; 1
     900:	6a e8       	ldi	r22, 0x8A	; 138
     902:	82 e5       	ldi	r24, 0x52	; 82
     904:	84 dd       	rcall	.-1272   	; 0x40e <_Z10sensor_sethhh>
     906:	44 e0       	ldi	r20, 0x04	; 4
     908:	6b e8       	ldi	r22, 0x8B	; 139
     90a:	82 e5       	ldi	r24, 0x52	; 82
     90c:	80 dd       	rcall	.-1280   	; 0x40e <_Z10sensor_sethhh>
     90e:	48 e0       	ldi	r20, 0x08	; 8
     910:	6c e8       	ldi	r22, 0x8C	; 140
     912:	82 e5       	ldi	r24, 0x52	; 82
     914:	7c dd       	rcall	.-1288   	; 0x40e <_Z10sensor_sethhh>
     916:	40 e1       	ldi	r20, 0x10	; 16
     918:	6d e8       	ldi	r22, 0x8D	; 141
     91a:	82 e5       	ldi	r24, 0x52	; 82
     91c:	78 dd       	rcall	.-1296   	; 0x40e <_Z10sensor_sethhh>
     91e:	40 e2       	ldi	r20, 0x20	; 32
     920:	6e e8       	ldi	r22, 0x8E	; 142
     922:	82 e5       	ldi	r24, 0x52	; 82
     924:	74 dd       	rcall	.-1304   	; 0x40e <_Z10sensor_sethhh>
     926:	48 e2       	ldi	r20, 0x28	; 40
     928:	6f e8       	ldi	r22, 0x8F	; 143
     92a:	82 e5       	ldi	r24, 0x52	; 82
     92c:	70 dd       	rcall	.-1312   	; 0x40e <_Z10sensor_sethhh>
     92e:	40 e3       	ldi	r20, 0x30	; 48
     930:	60 e9       	ldi	r22, 0x90	; 144
     932:	82 e5       	ldi	r24, 0x52	; 82
     934:	6c dd       	rcall	.-1320   	; 0x40e <_Z10sensor_sethhh>
     936:	40 e0       	ldi	r20, 0x00	; 0
     938:	62 e9       	ldi	r22, 0x92	; 146
     93a:	82 e5       	ldi	r24, 0x52	; 82
     93c:	68 dd       	rcall	.-1328   	; 0x40e <_Z10sensor_sethhh>
     93e:	41 e0       	ldi	r20, 0x01	; 1
     940:	63 e9       	ldi	r22, 0x93	; 147
     942:	82 e5       	ldi	r24, 0x52	; 82
     944:	64 dd       	rcall	.-1336   	; 0x40e <_Z10sensor_sethhh>
     946:	40 e0       	ldi	r20, 0x00	; 0
     948:	64 e9       	ldi	r22, 0x94	; 148
     94a:	82 e5       	ldi	r24, 0x52	; 82
     94c:	60 dd       	rcall	.-1344   	; 0x40e <_Z10sensor_sethhh>
     94e:	44 e0       	ldi	r20, 0x04	; 4
     950:	65 e9       	ldi	r22, 0x95	; 149
     952:	82 e5       	ldi	r24, 0x52	; 82
     954:	5c dd       	rcall	.-1352   	; 0x40e <_Z10sensor_sethhh>
     956:	40 e0       	ldi	r20, 0x00	; 0
     958:	66 e9       	ldi	r22, 0x96	; 150
     95a:	82 e5       	ldi	r24, 0x52	; 82
     95c:	58 dd       	rcall	.-1360   	; 0x40e <_Z10sensor_sethhh>
     95e:	48 e0       	ldi	r20, 0x08	; 8
     960:	67 e9       	ldi	r22, 0x97	; 151
     962:	82 e5       	ldi	r24, 0x52	; 82
     964:	54 dd       	rcall	.-1368   	; 0x40e <_Z10sensor_sethhh>
     966:	40 e0       	ldi	r20, 0x00	; 0
     968:	68 e9       	ldi	r22, 0x98	; 152
     96a:	82 e5       	ldi	r24, 0x52	; 82
     96c:	50 dd       	rcall	.-1376   	; 0x40e <_Z10sensor_sethhh>
     96e:	40 e1       	ldi	r20, 0x10	; 16
     970:	69 e9       	ldi	r22, 0x99	; 153
     972:	82 e5       	ldi	r24, 0x52	; 82
     974:	4c dd       	rcall	.-1384   	; 0x40e <_Z10sensor_sethhh>
     976:	40 e0       	ldi	r20, 0x00	; 0
     978:	6a e9       	ldi	r22, 0x9A	; 154
     97a:	82 e5       	ldi	r24, 0x52	; 82
     97c:	48 dd       	rcall	.-1392   	; 0x40e <_Z10sensor_sethhh>
     97e:	40 e2       	ldi	r20, 0x20	; 32
     980:	6b e9       	ldi	r22, 0x9B	; 155
     982:	82 e5       	ldi	r24, 0x52	; 82
     984:	44 dd       	rcall	.-1400   	; 0x40e <_Z10sensor_sethhh>
     986:	40 e0       	ldi	r20, 0x00	; 0
     988:	6c e9       	ldi	r22, 0x9C	; 156
     98a:	82 e5       	ldi	r24, 0x52	; 82
     98c:	40 dd       	rcall	.-1408   	; 0x40e <_Z10sensor_sethhh>
     98e:	48 e2       	ldi	r20, 0x28	; 40
     990:	6d e9       	ldi	r22, 0x9D	; 157
     992:	82 e5       	ldi	r24, 0x52	; 82
     994:	3c dd       	rcall	.-1416   	; 0x40e <_Z10sensor_sethhh>
     996:	40 e0       	ldi	r20, 0x00	; 0
     998:	6e e9       	ldi	r22, 0x9E	; 158
     99a:	82 e5       	ldi	r24, 0x52	; 82
     99c:	38 dd       	rcall	.-1424   	; 0x40e <_Z10sensor_sethhh>
     99e:	40 e3       	ldi	r20, 0x30	; 48
     9a0:	6f e9       	ldi	r22, 0x9F	; 159
     9a2:	82 e5       	ldi	r24, 0x52	; 82
     9a4:	34 dd       	rcall	.-1432   	; 0x40e <_Z10sensor_sethhh>
     9a6:	40 e0       	ldi	r20, 0x00	; 0
     9a8:	62 e8       	ldi	r22, 0x82	; 130
     9aa:	82 e5       	ldi	r24, 0x52	; 82
     9ac:	30 dd       	rcall	.-1440   	; 0x40e <_Z10sensor_sethhh>
     9ae:	40 e0       	ldi	r20, 0x00	; 0
     9b0:	60 e0       	ldi	r22, 0x00	; 0
     9b2:	83 e5       	ldi	r24, 0x53	; 83
     9b4:	2c dd       	rcall	.-1448   	; 0x40e <_Z10sensor_sethhh>
     9b6:	40 e2       	ldi	r20, 0x20	; 32
     9b8:	61 e0       	ldi	r22, 0x01	; 1
     9ba:	83 e5       	ldi	r24, 0x53	; 83
     9bc:	28 dd       	rcall	.-1456   	; 0x40e <_Z10sensor_sethhh>
     9be:	40 e0       	ldi	r20, 0x00	; 0
     9c0:	62 e0       	ldi	r22, 0x02	; 2
     9c2:	83 e5       	ldi	r24, 0x53	; 83
     9c4:	24 dd       	rcall	.-1464   	; 0x40e <_Z10sensor_sethhh>
     9c6:	4c e7       	ldi	r20, 0x7C	; 124
     9c8:	63 e0       	ldi	r22, 0x03	; 3
     9ca:	83 e5       	ldi	r24, 0x53	; 83
     9cc:	20 dd       	rcall	.-1472   	; 0x40e <_Z10sensor_sethhh>
     9ce:	40 e0       	ldi	r20, 0x00	; 0
     9d0:	6c e0       	ldi	r22, 0x0C	; 12
     9d2:	83 e5       	ldi	r24, 0x53	; 83
     9d4:	1c dd       	rcall	.-1480   	; 0x40e <_Z10sensor_sethhh>
     9d6:	4c e0       	ldi	r20, 0x0C	; 12
     9d8:	6d e0       	ldi	r22, 0x0D	; 13
     9da:	83 e5       	ldi	r24, 0x53	; 83
     9dc:	18 dd       	rcall	.-1488   	; 0x40e <_Z10sensor_sethhh>
     9de:	40 e2       	ldi	r20, 0x20	; 32
     9e0:	6e e0       	ldi	r22, 0x0E	; 14
     9e2:	83 e5       	ldi	r24, 0x53	; 83
     9e4:	14 dd       	rcall	.-1496   	; 0x40e <_Z10sensor_sethhh>
     9e6:	40 e8       	ldi	r20, 0x80	; 128
     9e8:	6f e0       	ldi	r22, 0x0F	; 15
     9ea:	83 e5       	ldi	r24, 0x53	; 83
     9ec:	10 dd       	rcall	.-1504   	; 0x40e <_Z10sensor_sethhh>
     9ee:	40 e2       	ldi	r20, 0x20	; 32
     9f0:	60 e1       	ldi	r22, 0x10	; 16
     9f2:	83 e5       	ldi	r24, 0x53	; 83
     9f4:	0c dd       	rcall	.-1512   	; 0x40e <_Z10sensor_sethhh>
     9f6:	40 e8       	ldi	r20, 0x80	; 128
     9f8:	61 e1       	ldi	r22, 0x11	; 17
     9fa:	83 e5       	ldi	r24, 0x53	; 83
     9fc:	08 dd       	rcall	.-1520   	; 0x40e <_Z10sensor_sethhh>
     9fe:	40 e2       	ldi	r20, 0x20	; 32
     a00:	68 e0       	ldi	r22, 0x08	; 8
     a02:	83 e5       	ldi	r24, 0x53	; 83
     a04:	04 dd       	rcall	.-1528   	; 0x40e <_Z10sensor_sethhh>
     a06:	40 e4       	ldi	r20, 0x40	; 64
     a08:	69 e0       	ldi	r22, 0x09	; 9
     a0a:	83 e5       	ldi	r24, 0x53	; 83
     a0c:	00 dd       	rcall	.-1536   	; 0x40e <_Z10sensor_sethhh>
     a0e:	40 e0       	ldi	r20, 0x00	; 0
     a10:	64 e0       	ldi	r22, 0x04	; 4
     a12:	83 e5       	ldi	r24, 0x53	; 83
     a14:	fc dc       	rcall	.-1544   	; 0x40e <_Z10sensor_sethhh>
     a16:	40 e3       	ldi	r20, 0x30	; 48
     a18:	65 e0       	ldi	r22, 0x05	; 5
     a1a:	83 e5       	ldi	r24, 0x53	; 83
     a1c:	f8 dc       	rcall	.-1552   	; 0x40e <_Z10sensor_sethhh>
     a1e:	40 e0       	ldi	r20, 0x00	; 0
     a20:	66 e0       	ldi	r22, 0x06	; 6
     a22:	83 e5       	ldi	r24, 0x53	; 83
     a24:	f4 dc       	rcall	.-1560   	; 0x40e <_Z10sensor_sethhh>
     a26:	40 e8       	ldi	r20, 0x80	; 128
     a28:	67 e0       	ldi	r22, 0x07	; 7
     a2a:	83 e5       	ldi	r24, 0x53	; 83
     a2c:	f0 dc       	rcall	.-1568   	; 0x40e <_Z10sensor_sethhh>
     a2e:	48 e0       	ldi	r20, 0x08	; 8
     a30:	64 e1       	ldi	r22, 0x14	; 20
     a32:	83 e5       	ldi	r24, 0x53	; 83
     a34:	ec dc       	rcall	.-1576   	; 0x40e <_Z10sensor_sethhh>
     a36:	40 e2       	ldi	r20, 0x20	; 32
     a38:	65 e1       	ldi	r22, 0x15	; 21
     a3a:	83 e5       	ldi	r24, 0x53	; 83
     a3c:	e8 dc       	rcall	.-1584   	; 0x40e <_Z10sensor_sethhh>
     a3e:	40 e3       	ldi	r20, 0x30	; 48
     a40:	69 e1       	ldi	r22, 0x19	; 25
     a42:	83 e5       	ldi	r24, 0x53	; 83
     a44:	e4 dc       	rcall	.-1592   	; 0x40e <_Z10sensor_sethhh>
     a46:	40 e1       	ldi	r20, 0x10	; 16
     a48:	66 e1       	ldi	r22, 0x16	; 22
     a4a:	83 e5       	ldi	r24, 0x53	; 83
     a4c:	e0 dc       	rcall	.-1600   	; 0x40e <_Z10sensor_sethhh>
     a4e:	40 e0       	ldi	r20, 0x00	; 0
     a50:	67 e1       	ldi	r22, 0x17	; 23
     a52:	83 e5       	ldi	r24, 0x53	; 83
     a54:	dc dc       	rcall	.-1608   	; 0x40e <_Z10sensor_sethhh>
     a56:	42 e0       	ldi	r20, 0x02	; 2
     a58:	68 e1       	ldi	r22, 0x18	; 24
     a5a:	83 e5       	ldi	r24, 0x53	; 83
     a5c:	d8 dc       	rcall	.-1616   	; 0x40e <_Z10sensor_sethhh>
     a5e:	4f e3       	ldi	r20, 0x3F	; 63
     a60:	62 e0       	ldi	r22, 0x02	; 2
     a62:	84 e5       	ldi	r24, 0x54	; 84
     a64:	d4 dc       	rcall	.-1624   	; 0x40e <_Z10sensor_sethhh>
     a66:	40 e0       	ldi	r20, 0x00	; 0
     a68:	63 e0       	ldi	r22, 0x03	; 3
     a6a:	84 e5       	ldi	r24, 0x54	; 84
     a6c:	d0 dc       	rcall	.-1632   	; 0x40e <_Z10sensor_sethhh>
     a6e:	40 e0       	ldi	r20, 0x00	; 0
     a70:	66 e0       	ldi	r22, 0x06	; 6
     a72:	84 e3       	ldi	r24, 0x34	; 52
     a74:	cc dc       	rcall	.-1640   	; 0x40e <_Z10sensor_sethhh>
     a76:	4f ef       	ldi	r20, 0xFF	; 255
     a78:	60 e8       	ldi	r22, 0x80	; 128
     a7a:	81 e5       	ldi	r24, 0x51	; 81
     a7c:	c8 dc       	rcall	.-1648   	; 0x40e <_Z10sensor_sethhh>
     a7e:	42 e5       	ldi	r20, 0x52	; 82
     a80:	61 e8       	ldi	r22, 0x81	; 129
     a82:	81 e5       	ldi	r24, 0x51	; 81
     a84:	c4 dc       	rcall	.-1656   	; 0x40e <_Z10sensor_sethhh>
     a86:	41 e1       	ldi	r20, 0x11	; 17
     a88:	62 e8       	ldi	r22, 0x82	; 130
     a8a:	81 e5       	ldi	r24, 0x51	; 81
     a8c:	c0 dc       	rcall	.-1664   	; 0x40e <_Z10sensor_sethhh>
     a8e:	44 e1       	ldi	r20, 0x14	; 20
     a90:	63 e8       	ldi	r22, 0x83	; 131
     a92:	81 e5       	ldi	r24, 0x51	; 81
     a94:	bc dc       	rcall	.-1672   	; 0x40e <_Z10sensor_sethhh>
     a96:	45 e2       	ldi	r20, 0x25	; 37
     a98:	64 e8       	ldi	r22, 0x84	; 132
     a9a:	81 e5       	ldi	r24, 0x51	; 81
     a9c:	b8 dc       	rcall	.-1680   	; 0x40e <_Z10sensor_sethhh>
     a9e:	44 e2       	ldi	r20, 0x24	; 36
     aa0:	65 e8       	ldi	r22, 0x85	; 133
     aa2:	81 e5       	ldi	r24, 0x51	; 81
     aa4:	b4 dc       	rcall	.-1688   	; 0x40e <_Z10sensor_sethhh>
     aa6:	46 e0       	ldi	r20, 0x06	; 6
     aa8:	66 e8       	ldi	r22, 0x86	; 134
     aaa:	81 e5       	ldi	r24, 0x51	; 81
     aac:	b0 dc       	rcall	.-1696   	; 0x40e <_Z10sensor_sethhh>
     aae:	48 e0       	ldi	r20, 0x08	; 8
     ab0:	67 e8       	ldi	r22, 0x87	; 135
     ab2:	81 e5       	ldi	r24, 0x51	; 81
     ab4:	ac dc       	rcall	.-1704   	; 0x40e <_Z10sensor_sethhh>
     ab6:	48 e0       	ldi	r20, 0x08	; 8
     ab8:	68 e8       	ldi	r22, 0x88	; 136
     aba:	81 e5       	ldi	r24, 0x51	; 81
     abc:	a8 dc       	rcall	.-1712   	; 0x40e <_Z10sensor_sethhh>
     abe:	4c e7       	ldi	r20, 0x7C	; 124
     ac0:	69 e8       	ldi	r22, 0x89	; 137
     ac2:	81 e5       	ldi	r24, 0x51	; 81
     ac4:	a4 dc       	rcall	.-1720   	; 0x40e <_Z10sensor_sethhh>
     ac6:	40 e6       	ldi	r20, 0x60	; 96
     ac8:	6a e8       	ldi	r22, 0x8A	; 138
     aca:	81 e5       	ldi	r24, 0x51	; 81
     acc:	a0 dc       	rcall	.-1728   	; 0x40e <_Z10sensor_sethhh>
     ace:	42 eb       	ldi	r20, 0xB2	; 178
     ad0:	6b e8       	ldi	r22, 0x8B	; 139
     ad2:	81 e5       	ldi	r24, 0x51	; 81
     ad4:	9c dc       	rcall	.-1736   	; 0x40e <_Z10sensor_sethhh>
     ad6:	42 eb       	ldi	r20, 0xB2	; 178
     ad8:	6c e8       	ldi	r22, 0x8C	; 140
     ada:	81 e5       	ldi	r24, 0x51	; 81
     adc:	98 dc       	rcall	.-1744   	; 0x40e <_Z10sensor_sethhh>
     ade:	44 e4       	ldi	r20, 0x44	; 68
     ae0:	6d e8       	ldi	r22, 0x8D	; 141
     ae2:	81 e5       	ldi	r24, 0x51	; 81
     ae4:	94 dc       	rcall	.-1752   	; 0x40e <_Z10sensor_sethhh>
     ae6:	4d e3       	ldi	r20, 0x3D	; 61
     ae8:	6e e8       	ldi	r22, 0x8E	; 142
     aea:	81 e5       	ldi	r24, 0x51	; 81
     aec:	90 dc       	rcall	.-1760   	; 0x40e <_Z10sensor_sethhh>
     aee:	48 e5       	ldi	r20, 0x58	; 88
     af0:	6f e8       	ldi	r22, 0x8F	; 143
     af2:	81 e5       	ldi	r24, 0x51	; 81
     af4:	8c dc       	rcall	.-1768   	; 0x40e <_Z10sensor_sethhh>
     af6:	46 e4       	ldi	r20, 0x46	; 70
     af8:	60 e9       	ldi	r22, 0x90	; 144
     afa:	81 e5       	ldi	r24, 0x51	; 81
     afc:	88 dc       	rcall	.-1776   	; 0x40e <_Z10sensor_sethhh>
     afe:	48 ef       	ldi	r20, 0xF8	; 248
     b00:	61 e9       	ldi	r22, 0x91	; 145
     b02:	81 e5       	ldi	r24, 0x51	; 81
     b04:	84 dc       	rcall	.-1784   	; 0x40e <_Z10sensor_sethhh>
     b06:	44 e0       	ldi	r20, 0x04	; 4
     b08:	62 e9       	ldi	r22, 0x92	; 146
     b0a:	81 e5       	ldi	r24, 0x51	; 81
     b0c:	80 dc       	rcall	.-1792   	; 0x40e <_Z10sensor_sethhh>
     b0e:	40 e7       	ldi	r20, 0x70	; 112
     b10:	63 e9       	ldi	r22, 0x93	; 147
     b12:	81 e5       	ldi	r24, 0x51	; 81
     b14:	7c dc       	rcall	.-1800   	; 0x40e <_Z10sensor_sethhh>
     b16:	40 ef       	ldi	r20, 0xF0	; 240
     b18:	64 e9       	ldi	r22, 0x94	; 148
     b1a:	81 e5       	ldi	r24, 0x51	; 81
     b1c:	78 dc       	rcall	.-1808   	; 0x40e <_Z10sensor_sethhh>
     b1e:	40 ef       	ldi	r20, 0xF0	; 240
     b20:	65 e9       	ldi	r22, 0x95	; 149
     b22:	81 e5       	ldi	r24, 0x51	; 81
     b24:	74 dc       	rcall	.-1816   	; 0x40e <_Z10sensor_sethhh>
     b26:	43 e0       	ldi	r20, 0x03	; 3
     b28:	66 e9       	ldi	r22, 0x96	; 150
     b2a:	81 e5       	ldi	r24, 0x51	; 81
     b2c:	70 dc       	rcall	.-1824   	; 0x40e <_Z10sensor_sethhh>
     b2e:	41 e0       	ldi	r20, 0x01	; 1
     b30:	67 e9       	ldi	r22, 0x97	; 151
     b32:	81 e5       	ldi	r24, 0x51	; 81
     b34:	6c dc       	rcall	.-1832   	; 0x40e <_Z10sensor_sethhh>
     b36:	44 e0       	ldi	r20, 0x04	; 4
     b38:	68 e9       	ldi	r22, 0x98	; 152
     b3a:	81 e5       	ldi	r24, 0x51	; 81
     b3c:	68 dc       	rcall	.-1840   	; 0x40e <_Z10sensor_sethhh>
     b3e:	42 e1       	ldi	r20, 0x12	; 18
     b40:	69 e9       	ldi	r22, 0x99	; 153
     b42:	81 e5       	ldi	r24, 0x51	; 81
     b44:	64 dc       	rcall	.-1848   	; 0x40e <_Z10sensor_sethhh>
     b46:	44 e0       	ldi	r20, 0x04	; 4
     b48:	6a e9       	ldi	r22, 0x9A	; 154
     b4a:	81 e5       	ldi	r24, 0x51	; 81
     b4c:	60 dc       	rcall	.-1856   	; 0x40e <_Z10sensor_sethhh>
     b4e:	40 e0       	ldi	r20, 0x00	; 0
     b50:	6b e9       	ldi	r22, 0x9B	; 155
     b52:	81 e5       	ldi	r24, 0x51	; 81
     b54:	5c dc       	rcall	.-1864   	; 0x40e <_Z10sensor_sethhh>
     b56:	46 e0       	ldi	r20, 0x06	; 6
     b58:	6c e9       	ldi	r22, 0x9C	; 156
     b5a:	81 e5       	ldi	r24, 0x51	; 81
     b5c:	58 dc       	rcall	.-1872   	; 0x40e <_Z10sensor_sethhh>
     b5e:	42 e8       	ldi	r20, 0x82	; 130
     b60:	6d e9       	ldi	r22, 0x9D	; 157
     b62:	81 e5       	ldi	r24, 0x51	; 81
     b64:	54 dc       	rcall	.-1880   	; 0x40e <_Z10sensor_sethhh>
     b66:	40 e0       	ldi	r20, 0x00	; 0
     b68:	6e e9       	ldi	r22, 0x9E	; 158
     b6a:	81 e5       	ldi	r24, 0x51	; 81
     b6c:	50 dc       	rcall	.-1888   	; 0x40e <_Z10sensor_sethhh>
     b6e:	40 e8       	ldi	r20, 0x80	; 128
     b70:	65 e2       	ldi	r22, 0x25	; 37
     b72:	80 e5       	ldi	r24, 0x50	; 80
     b74:	4c dc       	rcall	.-1896   	; 0x40e <_Z10sensor_sethhh>
     b76:	40 e4       	ldi	r20, 0x40	; 64
     b78:	63 e8       	ldi	r22, 0x83	; 131
     b7a:	85 e5       	ldi	r24, 0x55	; 85
     b7c:	48 dc       	rcall	.-1904   	; 0x40e <_Z10sensor_sethhh>
     b7e:	40 e4       	ldi	r20, 0x40	; 64
     b80:	64 e8       	ldi	r22, 0x84	; 132
     b82:	85 e5       	ldi	r24, 0x55	; 85
     b84:	44 dc       	rcall	.-1912   	; 0x40e <_Z10sensor_sethhh>
     b86:	42 e0       	ldi	r20, 0x02	; 2
     b88:	60 e8       	ldi	r22, 0x80	; 128
     b8a:	85 e5       	ldi	r24, 0x55	; 85
     b8c:	40 dc       	rcall	.-1920   	; 0x40e <_Z10sensor_sethhh>
     b8e:	4f ec       	ldi	r20, 0xCF	; 207
     b90:	60 e0       	ldi	r22, 0x00	; 0
     b92:	80 e5       	ldi	r24, 0x50	; 80
     b94:	3c dc       	rcall	.-1928   	; 0x40e <_Z10sensor_sethhh>
     b96:	40 e1       	ldi	r20, 0x10	; 16
     b98:	60 e1       	ldi	r22, 0x10	; 16
     b9a:	87 e3       	ldi	r24, 0x37	; 55
     b9c:	38 dc       	rcall	.-1936   	; 0x40e <_Z10sensor_sethhh>
     b9e:	41 e5       	ldi	r20, 0x51	; 81
     ba0:	62 e3       	ldi	r22, 0x32	; 50
     ba2:	86 e3       	ldi	r24, 0x36	; 54
     ba4:	34 dc       	rcall	.-1944   	; 0x40e <_Z10sensor_sethhh>
     ba6:	40 e1       	ldi	r20, 0x10	; 16
     ba8:	62 e0       	ldi	r22, 0x02	; 2
     baa:	87 e3       	ldi	r24, 0x37	; 55
     bac:	30 dc       	rcall	.-1952   	; 0x40e <_Z10sensor_sethhh>
     bae:	42 eb       	ldi	r20, 0xB2	; 178
     bb0:	63 e0       	ldi	r22, 0x03	; 3
     bb2:	87 e3       	ldi	r24, 0x37	; 55
     bb4:	2c dc       	rcall	.-1960   	; 0x40e <_Z10sensor_sethhh>
     bb6:	48 e1       	ldi	r20, 0x18	; 24
     bb8:	64 e0       	ldi	r22, 0x04	; 4
     bba:	87 e3       	ldi	r24, 0x37	; 55
     bbc:	28 dc       	rcall	.-1968   	; 0x40e <_Z10sensor_sethhh>
     bbe:	40 e4       	ldi	r20, 0x40	; 64
     bc0:	6b e0       	ldi	r22, 0x0B	; 11
     bc2:	87 e3       	ldi	r24, 0x37	; 55
     bc4:	24 dc       	rcall	.-1976   	; 0x40e <_Z10sensor_sethhh>
     bc6:	43 e0       	ldi	r20, 0x03	; 3
     bc8:	6d e0       	ldi	r22, 0x0D	; 13
     bca:	87 e3       	ldi	r24, 0x37	; 55
     bcc:	20 dc       	rcall	.-1984   	; 0x40e <_Z10sensor_sethhh>
     bce:	41 e0       	ldi	r20, 0x01	; 1
     bd0:	61 e3       	ldi	r22, 0x31	; 49
     bd2:	86 e3       	ldi	r24, 0x36	; 54
     bd4:	1c dc       	rcall	.-1992   	; 0x40e <_Z10sensor_sethhh>
     bd6:	42 e5       	ldi	r20, 0x52	; 82
     bd8:	62 e3       	ldi	r22, 0x32	; 50
     bda:	86 e3       	ldi	r24, 0x36	; 54
     bdc:	18 dc       	rcall	.-2000   	; 0x40e <_Z10sensor_sethhh>
     bde:	44 e2       	ldi	r20, 0x24	; 36
     be0:	66 e0       	ldi	r22, 0x06	; 6
     be2:	86 e3       	ldi	r24, 0x36	; 54
     be4:	14 dc       	rcall	.-2008   	; 0x40e <_Z10sensor_sethhh>
     be6:	46 e9       	ldi	r20, 0x96	; 150
     be8:	60 e2       	ldi	r22, 0x20	; 32
     bea:	86 e3       	ldi	r24, 0x36	; 54
     bec:	10 dc       	rcall	.-2016   	; 0x40e <_Z10sensor_sethhh>
     bee:	47 e0       	ldi	r20, 0x07	; 7
     bf0:	65 e8       	ldi	r22, 0x85	; 133
     bf2:	87 e5       	ldi	r24, 0x57	; 87
     bf4:	0c dc       	rcall	.-2024   	; 0x40e <_Z10sensor_sethhh>
     bf6:	40 e3       	ldi	r20, 0x30	; 48
     bf8:	63 e1       	ldi	r22, 0x13	; 19
     bfa:	8a e3       	ldi	r24, 0x3A	; 58
     bfc:	08 dc       	rcall	.-2032   	; 0x40e <_Z10sensor_sethhh>
     bfe:	42 e5       	ldi	r20, 0x52	; 82
     c00:	60 e0       	ldi	r22, 0x00	; 0
     c02:	86 e3       	ldi	r24, 0x36	; 54
     c04:	04 dc       	rcall	.-2040   	; 0x40e <_Z10sensor_sethhh>
     c06:	48 e4       	ldi	r20, 0x48	; 72
     c08:	64 e0       	ldi	r22, 0x04	; 4
     c0a:	86 e3       	ldi	r24, 0x36	; 54
     c0c:	00 dc       	rcall	.-2048   	; 0x40e <_Z10sensor_sethhh>
     c0e:	4b e1       	ldi	r20, 0x1B	; 27
     c10:	66 e0       	ldi	r22, 0x06	; 6
     c12:	86 e3       	ldi	r24, 0x36	; 54
     c14:	fc db       	rcall	.-2056   	; 0x40e <_Z10sensor_sethhh>
     c16:	4b e0       	ldi	r20, 0x0B	; 11
     c18:	6d e0       	ldi	r22, 0x0D	; 13
     c1a:	87 e3       	ldi	r24, 0x37	; 55
     c1c:	f8 db       	rcall	.-2064   	; 0x40e <_Z10sensor_sethhh>
     c1e:	40 ec       	ldi	r20, 0xC0	; 192
     c20:	6f e0       	ldi	r22, 0x0F	; 15
     c22:	87 e3       	ldi	r24, 0x37	; 55
     c24:	f4 db       	rcall	.-2072   	; 0x40e <_Z10sensor_sethhh>
     c26:	41 e0       	ldi	r20, 0x01	; 1
     c28:	69 e0       	ldi	r22, 0x09	; 9
     c2a:	87 e3       	ldi	r24, 0x37	; 55
     c2c:	f0 db       	rcall	.-2080   	; 0x40e <_Z10sensor_sethhh>
     c2e:	40 e0       	ldi	r20, 0x00	; 0
     c30:	63 e2       	ldi	r22, 0x23	; 35
     c32:	88 e3       	ldi	r24, 0x38	; 56
     c34:	ec db       	rcall	.-2088   	; 0x40e <_Z10sensor_sethhh>
     c36:	40 e0       	ldi	r20, 0x00	; 0
     c38:	67 e0       	ldi	r22, 0x07	; 7
     c3a:	80 e5       	ldi	r24, 0x50	; 80
     c3c:	e8 db       	rcall	.-2096   	; 0x40e <_Z10sensor_sethhh>
     c3e:	40 e0       	ldi	r20, 0x00	; 0
     c40:	69 e0       	ldi	r22, 0x09	; 9
     c42:	80 e5       	ldi	r24, 0x50	; 80
     c44:	e4 db       	rcall	.-2104   	; 0x40e <_Z10sensor_sethhh>
     c46:	40 e0       	ldi	r20, 0x00	; 0
     c48:	61 e1       	ldi	r22, 0x11	; 17
     c4a:	80 e5       	ldi	r24, 0x50	; 80
     c4c:	e0 db       	rcall	.-2112   	; 0x40e <_Z10sensor_sethhh>
     c4e:	40 e0       	ldi	r20, 0x00	; 0
     c50:	63 e1       	ldi	r22, 0x13	; 19
     c52:	80 e5       	ldi	r24, 0x50	; 80
     c54:	dc db       	rcall	.-2120   	; 0x40e <_Z10sensor_sethhh>
     c56:	40 e0       	ldi	r20, 0x00	; 0
     c58:	6e e9       	ldi	r22, 0x9E	; 158
     c5a:	81 e5       	ldi	r24, 0x51	; 81
     c5c:	d8 db       	rcall	.-2128   	; 0x40e <_Z10sensor_sethhh>
     c5e:	40 e0       	ldi	r20, 0x00	; 0
     c60:	66 e8       	ldi	r22, 0x86	; 134
     c62:	80 e5       	ldi	r24, 0x50	; 80
     c64:	d4 db       	rcall	.-2136   	; 0x40e <_Z10sensor_sethhh>
     c66:	40 e0       	ldi	r20, 0x00	; 0
     c68:	67 e8       	ldi	r22, 0x87	; 135
     c6a:	80 e5       	ldi	r24, 0x50	; 80
     c6c:	d0 db       	rcall	.-2144   	; 0x40e <_Z10sensor_sethhh>
     c6e:	40 e0       	ldi	r20, 0x00	; 0
     c70:	68 e8       	ldi	r22, 0x88	; 136
     c72:	80 e5       	ldi	r24, 0x50	; 80
     c74:	cc db       	rcall	.-2152   	; 0x40e <_Z10sensor_sethhh>
     c76:	40 e0       	ldi	r20, 0x00	; 0
     c78:	69 e8       	ldi	r22, 0x89	; 137
     c7a:	80 e5       	ldi	r24, 0x50	; 80
     c7c:	c8 db       	rcall	.-2160   	; 0x40e <_Z10sensor_sethhh>
     c7e:	40 e0       	ldi	r20, 0x00	; 0
     c80:	6b e2       	ldi	r22, 0x2B	; 43
     c82:	80 e3       	ldi	r24, 0x30	; 48
     c84:	c4 db       	rcall	.-2168   	; 0x40e <_Z10sensor_sethhh>
     c86:	41 e0       	ldi	r20, 0x01	; 1
     c88:	68 e0       	ldi	r22, 0x08	; 8
     c8a:	88 e3       	ldi	r24, 0x38	; 56
     c8c:	c0 db       	rcall	.-2176   	; 0x40e <_Z10sensor_sethhh>
     c8e:	40 e4       	ldi	r20, 0x40	; 64
     c90:	69 e0       	ldi	r22, 0x09	; 9
     c92:	88 e3       	ldi	r24, 0x38	; 56
     c94:	bc db       	rcall	.-2184   	; 0x40e <_Z10sensor_sethhh>
     c96:	40 e0       	ldi	r20, 0x00	; 0
     c98:	6a e0       	ldi	r22, 0x0A	; 10
     c9a:	88 e3       	ldi	r24, 0x38	; 56
     c9c:	b8 db       	rcall	.-2192   	; 0x40e <_Z10sensor_sethhh>
     c9e:	40 ef       	ldi	r20, 0xF0	; 240
     ca0:	6b e0       	ldi	r22, 0x0B	; 11
     ca2:	88 e3       	ldi	r24, 0x38	; 56
     ca4:	b4 db       	rcall	.-2200   	; 0x40e <_Z10sensor_sethhh>
     ca6:	48 e7       	ldi	r20, 0x78	; 120
     ca8:	60 e0       	ldi	r22, 0x00	; 0
     caa:	8a e3       	ldi	r24, 0x3A	; 58
     cac:	b0 db       	rcall	.-2208   	; 0x40e <_Z10sensor_sethhh>
     cae:	4f ef       	ldi	r20, 0xFF	; 255
     cb0:	61 e0       	ldi	r22, 0x01	; 1
     cb2:	80 e5       	ldi	r24, 0x50	; 80
     cb4:	ac db       	rcall	.-2216   	; 0x40e <_Z10sensor_sethhh>
     cb6:	40 e5       	ldi	r20, 0x50	; 80
     cb8:	63 e8       	ldi	r22, 0x83	; 131
     cba:	85 e5       	ldi	r24, 0x55	; 85
     cbc:	a8 db       	rcall	.-2224   	; 0x40e <_Z10sensor_sethhh>
     cbe:	40 e5       	ldi	r20, 0x50	; 80
     cc0:	64 e8       	ldi	r22, 0x84	; 132
     cc2:	85 e5       	ldi	r24, 0x55	; 85
     cc4:	a4 db       	rcall	.-2232   	; 0x40e <_Z10sensor_sethhh>
     cc6:	42 e0       	ldi	r20, 0x02	; 2
     cc8:	60 e8       	ldi	r22, 0x80	; 128
     cca:	85 e5       	ldi	r24, 0x55	; 85
     ccc:	a0 db       	rcall	.-2240   	; 0x40e <_Z10sensor_sethhh>
     cce:	40 e8       	ldi	r20, 0x80	; 128
     cd0:	61 e0       	ldi	r22, 0x01	; 1
     cd2:	8c e3       	ldi	r24, 0x3C	; 60
     cd4:	9c db       	rcall	.-2248   	; 0x40e <_Z10sensor_sethhh>
     cd6:	44 e0       	ldi	r20, 0x04	; 4
     cd8:	60 e0       	ldi	r22, 0x00	; 0
     cda:	8c e3       	ldi	r24, 0x3C	; 60
     cdc:	98 db       	rcall	.-2256   	; 0x40e <_Z10sensor_sethhh>
     cde:	48 e4       	ldi	r20, 0x48	; 72
     ce0:	60 e0       	ldi	r22, 0x00	; 0
     ce2:	88 e5       	ldi	r24, 0x58	; 88
     ce4:	94 db       	rcall	.-2264   	; 0x40e <_Z10sensor_sethhh>
     ce6:	41 e3       	ldi	r20, 0x31	; 49
     ce8:	61 e0       	ldi	r22, 0x01	; 1
     cea:	88 e5       	ldi	r24, 0x58	; 88
     cec:	90 db       	rcall	.-2272   	; 0x40e <_Z10sensor_sethhh>
     cee:	41 e2       	ldi	r20, 0x21	; 33
     cf0:	62 e0       	ldi	r22, 0x02	; 2
     cf2:	88 e5       	ldi	r24, 0x58	; 88
     cf4:	8c db       	rcall	.-2280   	; 0x40e <_Z10sensor_sethhh>
     cf6:	4b e1       	ldi	r20, 0x1B	; 27
     cf8:	63 e0       	ldi	r22, 0x03	; 3
     cfa:	88 e5       	ldi	r24, 0x58	; 88
     cfc:	88 db       	rcall	.-2288   	; 0x40e <_Z10sensor_sethhh>
     cfe:	4a e1       	ldi	r20, 0x1A	; 26
     d00:	64 e0       	ldi	r22, 0x04	; 4
     d02:	88 e5       	ldi	r24, 0x58	; 88
     d04:	84 db       	rcall	.-2296   	; 0x40e <_Z10sensor_sethhh>
     d06:	4e e1       	ldi	r20, 0x1E	; 30
     d08:	65 e0       	ldi	r22, 0x05	; 5
     d0a:	88 e5       	ldi	r24, 0x58	; 88
     d0c:	80 db       	rcall	.-2304   	; 0x40e <_Z10sensor_sethhh>
     d0e:	49 e2       	ldi	r20, 0x29	; 41
     d10:	66 e0       	ldi	r22, 0x06	; 6
     d12:	88 e5       	ldi	r24, 0x58	; 88
     d14:	7c db       	rcall	.-2312   	; 0x40e <_Z10sensor_sethhh>
     d16:	48 e3       	ldi	r20, 0x38	; 56
     d18:	67 e0       	ldi	r22, 0x07	; 7
     d1a:	88 e5       	ldi	r24, 0x58	; 88
     d1c:	78 db       	rcall	.-2320   	; 0x40e <_Z10sensor_sethhh>
     d1e:	46 e2       	ldi	r20, 0x26	; 38
     d20:	68 e0       	ldi	r22, 0x08	; 8
     d22:	88 e5       	ldi	r24, 0x58	; 88
     d24:	74 db       	rcall	.-2328   	; 0x40e <_Z10sensor_sethhh>
     d26:	47 e1       	ldi	r20, 0x17	; 23
     d28:	69 e0       	ldi	r22, 0x09	; 9
     d2a:	88 e5       	ldi	r24, 0x58	; 88
     d2c:	70 db       	rcall	.-2336   	; 0x40e <_Z10sensor_sethhh>
     d2e:	41 e1       	ldi	r20, 0x11	; 17
     d30:	6a e0       	ldi	r22, 0x0A	; 10
     d32:	88 e5       	ldi	r24, 0x58	; 88
     d34:	6c db       	rcall	.-2344   	; 0x40e <_Z10sensor_sethhh>
     d36:	4e e0       	ldi	r20, 0x0E	; 14
     d38:	6b e0       	ldi	r22, 0x0B	; 11
     d3a:	88 e5       	ldi	r24, 0x58	; 88
     d3c:	68 db       	rcall	.-2352   	; 0x40e <_Z10sensor_sethhh>
     d3e:	4d e0       	ldi	r20, 0x0D	; 13
     d40:	6c e0       	ldi	r22, 0x0C	; 12
     d42:	88 e5       	ldi	r24, 0x58	; 88
     d44:	64 db       	rcall	.-2360   	; 0x40e <_Z10sensor_sethhh>
     d46:	4e e0       	ldi	r20, 0x0E	; 14
     d48:	6d e0       	ldi	r22, 0x0D	; 13
     d4a:	88 e5       	ldi	r24, 0x58	; 88
     d4c:	60 db       	rcall	.-2368   	; 0x40e <_Z10sensor_sethhh>
     d4e:	43 e1       	ldi	r20, 0x13	; 19
     d50:	6e e0       	ldi	r22, 0x0E	; 14
     d52:	88 e5       	ldi	r24, 0x58	; 88
     d54:	5c db       	rcall	.-2376   	; 0x40e <_Z10sensor_sethhh>
     d56:	4a e1       	ldi	r20, 0x1A	; 26
     d58:	6f e0       	ldi	r22, 0x0F	; 15
     d5a:	88 e5       	ldi	r24, 0x58	; 88
     d5c:	58 db       	rcall	.-2384   	; 0x40e <_Z10sensor_sethhh>
     d5e:	45 e1       	ldi	r20, 0x15	; 21
     d60:	60 e1       	ldi	r22, 0x10	; 16
     d62:	88 e5       	ldi	r24, 0x58	; 88
     d64:	54 db       	rcall	.-2392   	; 0x40e <_Z10sensor_sethhh>
     d66:	4d e0       	ldi	r20, 0x0D	; 13
     d68:	61 e1       	ldi	r22, 0x11	; 17
     d6a:	88 e5       	ldi	r24, 0x58	; 88
     d6c:	50 db       	rcall	.-2400   	; 0x40e <_Z10sensor_sethhh>
     d6e:	48 e0       	ldi	r20, 0x08	; 8
     d70:	62 e1       	ldi	r22, 0x12	; 18
     d72:	88 e5       	ldi	r24, 0x58	; 88
     d74:	4c db       	rcall	.-2408   	; 0x40e <_Z10sensor_sethhh>
     d76:	45 e0       	ldi	r20, 0x05	; 5
     d78:	63 e1       	ldi	r22, 0x13	; 19
     d7a:	88 e5       	ldi	r24, 0x58	; 88
     d7c:	48 db       	rcall	.-2416   	; 0x40e <_Z10sensor_sethhh>
     d7e:	44 e0       	ldi	r20, 0x04	; 4
     d80:	64 e1       	ldi	r22, 0x14	; 20
     d82:	88 e5       	ldi	r24, 0x58	; 88
     d84:	44 db       	rcall	.-2424   	; 0x40e <_Z10sensor_sethhh>
     d86:	45 e0       	ldi	r20, 0x05	; 5
     d88:	65 e1       	ldi	r22, 0x15	; 21
     d8a:	88 e5       	ldi	r24, 0x58	; 88
     d8c:	40 db       	rcall	.-2432   	; 0x40e <_Z10sensor_sethhh>
     d8e:	49 e0       	ldi	r20, 0x09	; 9
     d90:	66 e1       	ldi	r22, 0x16	; 22
     d92:	88 e5       	ldi	r24, 0x58	; 88
     d94:	3c db       	rcall	.-2440   	; 0x40e <_Z10sensor_sethhh>
     d96:	4d e0       	ldi	r20, 0x0D	; 13
     d98:	67 e1       	ldi	r22, 0x17	; 23
     d9a:	88 e5       	ldi	r24, 0x58	; 88
     d9c:	38 db       	rcall	.-2448   	; 0x40e <_Z10sensor_sethhh>
     d9e:	41 e1       	ldi	r20, 0x11	; 17
     da0:	68 e1       	ldi	r22, 0x18	; 24
     da2:	88 e5       	ldi	r24, 0x58	; 88
     da4:	34 db       	rcall	.-2456   	; 0x40e <_Z10sensor_sethhh>
     da6:	4a e0       	ldi	r20, 0x0A	; 10
     da8:	69 e1       	ldi	r22, 0x19	; 25
     daa:	88 e5       	ldi	r24, 0x58	; 88
     dac:	30 db       	rcall	.-2464   	; 0x40e <_Z10sensor_sethhh>
     dae:	44 e0       	ldi	r20, 0x04	; 4
     db0:	6a e1       	ldi	r22, 0x1A	; 26
     db2:	88 e5       	ldi	r24, 0x58	; 88
     db4:	2c db       	rcall	.-2472   	; 0x40e <_Z10sensor_sethhh>
     db6:	40 e0       	ldi	r20, 0x00	; 0
     db8:	6b e1       	ldi	r22, 0x1B	; 27
     dba:	88 e5       	ldi	r24, 0x58	; 88
     dbc:	28 db       	rcall	.-2480   	; 0x40e <_Z10sensor_sethhh>
     dbe:	40 e0       	ldi	r20, 0x00	; 0
     dc0:	6c e1       	ldi	r22, 0x1C	; 28
     dc2:	88 e5       	ldi	r24, 0x58	; 88
     dc4:	24 db       	rcall	.-2488   	; 0x40e <_Z10sensor_sethhh>
     dc6:	41 e0       	ldi	r20, 0x01	; 1
     dc8:	6d e1       	ldi	r22, 0x1D	; 29
     dca:	88 e5       	ldi	r24, 0x58	; 88
     dcc:	20 db       	rcall	.-2496   	; 0x40e <_Z10sensor_sethhh>
     dce:	46 e0       	ldi	r20, 0x06	; 6
     dd0:	6e e1       	ldi	r22, 0x1E	; 30
     dd2:	88 e5       	ldi	r24, 0x58	; 88
     dd4:	1c db       	rcall	.-2504   	; 0x40e <_Z10sensor_sethhh>
     dd6:	49 e0       	ldi	r20, 0x09	; 9
     dd8:	6f e1       	ldi	r22, 0x1F	; 31
     dda:	88 e5       	ldi	r24, 0x58	; 88
     ddc:	18 db       	rcall	.-2512   	; 0x40e <_Z10sensor_sethhh>
     dde:	42 e1       	ldi	r20, 0x12	; 18
     de0:	60 e2       	ldi	r22, 0x20	; 32
     de2:	88 e5       	ldi	r24, 0x58	; 88
     de4:	14 db       	rcall	.-2520   	; 0x40e <_Z10sensor_sethhh>
     de6:	4b e0       	ldi	r20, 0x0B	; 11
     de8:	61 e2       	ldi	r22, 0x21	; 33
     dea:	88 e5       	ldi	r24, 0x58	; 88
     dec:	10 db       	rcall	.-2528   	; 0x40e <_Z10sensor_sethhh>
     dee:	44 e0       	ldi	r20, 0x04	; 4
     df0:	62 e2       	ldi	r22, 0x22	; 34
     df2:	88 e5       	ldi	r24, 0x58	; 88
     df4:	0c db       	rcall	.-2536   	; 0x40e <_Z10sensor_sethhh>
     df6:	40 e0       	ldi	r20, 0x00	; 0
     df8:	63 e2       	ldi	r22, 0x23	; 35
     dfa:	88 e5       	ldi	r24, 0x58	; 88
     dfc:	08 db       	rcall	.-2544   	; 0x40e <_Z10sensor_sethhh>
     dfe:	40 e0       	ldi	r20, 0x00	; 0
     e00:	64 e2       	ldi	r22, 0x24	; 36
     e02:	88 e5       	ldi	r24, 0x58	; 88
     e04:	04 db       	rcall	.-2552   	; 0x40e <_Z10sensor_sethhh>
     e06:	41 e0       	ldi	r20, 0x01	; 1
     e08:	65 e2       	ldi	r22, 0x25	; 37
     e0a:	88 e5       	ldi	r24, 0x58	; 88
     e0c:	00 db       	rcall	.-2560   	; 0x40e <_Z10sensor_sethhh>
     e0e:	46 e0       	ldi	r20, 0x06	; 6
     e10:	66 e2       	ldi	r22, 0x26	; 38
     e12:	88 e5       	ldi	r24, 0x58	; 88
     e14:	fc da       	rcall	.-2568   	; 0x40e <_Z10sensor_sethhh>
     e16:	4a e0       	ldi	r20, 0x0A	; 10
     e18:	67 e2       	ldi	r22, 0x27	; 39
     e1a:	88 e5       	ldi	r24, 0x58	; 88
     e1c:	f8 da       	rcall	.-2576   	; 0x40e <_Z10sensor_sethhh>
     e1e:	47 e1       	ldi	r20, 0x17	; 23
     e20:	68 e2       	ldi	r22, 0x28	; 40
     e22:	88 e5       	ldi	r24, 0x58	; 88
     e24:	f4 da       	rcall	.-2584   	; 0x40e <_Z10sensor_sethhh>
     e26:	4f e0       	ldi	r20, 0x0F	; 15
     e28:	69 e2       	ldi	r22, 0x29	; 41
     e2a:	88 e5       	ldi	r24, 0x58	; 88
     e2c:	f0 da       	rcall	.-2592   	; 0x40e <_Z10sensor_sethhh>
     e2e:	49 e0       	ldi	r20, 0x09	; 9
     e30:	6a e2       	ldi	r22, 0x2A	; 42
     e32:	88 e5       	ldi	r24, 0x58	; 88
     e34:	ec da       	rcall	.-2600   	; 0x40e <_Z10sensor_sethhh>
     e36:	46 e0       	ldi	r20, 0x06	; 6
     e38:	6b e2       	ldi	r22, 0x2B	; 43
     e3a:	88 e5       	ldi	r24, 0x58	; 88
     e3c:	e8 da       	rcall	.-2608   	; 0x40e <_Z10sensor_sethhh>
     e3e:	45 e0       	ldi	r20, 0x05	; 5
     e40:	6c e2       	ldi	r22, 0x2C	; 44
     e42:	88 e5       	ldi	r24, 0x58	; 88
     e44:	e4 da       	rcall	.-2616   	; 0x40e <_Z10sensor_sethhh>
     e46:	46 e0       	ldi	r20, 0x06	; 6
     e48:	6d e2       	ldi	r22, 0x2D	; 45
     e4a:	88 e5       	ldi	r24, 0x58	; 88
     e4c:	e0 da       	rcall	.-2624   	; 0x40e <_Z10sensor_sethhh>
     e4e:	4a e0       	ldi	r20, 0x0A	; 10
     e50:	6e e2       	ldi	r22, 0x2E	; 46
     e52:	88 e5       	ldi	r24, 0x58	; 88
     e54:	dc da       	rcall	.-2632   	; 0x40e <_Z10sensor_sethhh>
     e56:	4e e0       	ldi	r20, 0x0E	; 14
     e58:	6f e2       	ldi	r22, 0x2F	; 47
     e5a:	88 e5       	ldi	r24, 0x58	; 88
     e5c:	d8 da       	rcall	.-2640   	; 0x40e <_Z10sensor_sethhh>
     e5e:	48 e2       	ldi	r20, 0x28	; 40
     e60:	60 e3       	ldi	r22, 0x30	; 48
     e62:	88 e5       	ldi	r24, 0x58	; 88
     e64:	d4 da       	rcall	.-2648   	; 0x40e <_Z10sensor_sethhh>
     e66:	4a e1       	ldi	r20, 0x1A	; 26
     e68:	61 e3       	ldi	r22, 0x31	; 49
     e6a:	88 e5       	ldi	r24, 0x58	; 88
     e6c:	d0 da       	rcall	.-2656   	; 0x40e <_Z10sensor_sethhh>
     e6e:	41 e1       	ldi	r20, 0x11	; 17
     e70:	62 e3       	ldi	r22, 0x32	; 50
     e72:	88 e5       	ldi	r24, 0x58	; 88
     e74:	cc da       	rcall	.-2664   	; 0x40e <_Z10sensor_sethhh>
     e76:	4e e0       	ldi	r20, 0x0E	; 14
     e78:	63 e3       	ldi	r22, 0x33	; 51
     e7a:	88 e5       	ldi	r24, 0x58	; 88
     e7c:	c8 da       	rcall	.-2672   	; 0x40e <_Z10sensor_sethhh>
     e7e:	4e e0       	ldi	r20, 0x0E	; 14
     e80:	64 e3       	ldi	r22, 0x34	; 52
     e82:	88 e5       	ldi	r24, 0x58	; 88
     e84:	c4 da       	rcall	.-2680   	; 0x40e <_Z10sensor_sethhh>
     e86:	4f e0       	ldi	r20, 0x0F	; 15
     e88:	65 e3       	ldi	r22, 0x35	; 53
     e8a:	88 e5       	ldi	r24, 0x58	; 88
     e8c:	c0 da       	rcall	.-2688   	; 0x40e <_Z10sensor_sethhh>
     e8e:	45 e1       	ldi	r20, 0x15	; 21
     e90:	66 e3       	ldi	r22, 0x36	; 54
     e92:	88 e5       	ldi	r24, 0x58	; 88
     e94:	bc da       	rcall	.-2696   	; 0x40e <_Z10sensor_sethhh>
     e96:	4d e1       	ldi	r20, 0x1D	; 29
     e98:	67 e3       	ldi	r22, 0x37	; 55
     e9a:	88 e5       	ldi	r24, 0x58	; 88
     e9c:	b8 da       	rcall	.-2704   	; 0x40e <_Z10sensor_sethhh>
     e9e:	4e e6       	ldi	r20, 0x6E	; 110
     ea0:	68 e3       	ldi	r22, 0x38	; 56
     ea2:	88 e5       	ldi	r24, 0x58	; 88
     ea4:	b4 da       	rcall	.-2712   	; 0x40e <_Z10sensor_sethhh>
     ea6:	49 e3       	ldi	r20, 0x39	; 57
     ea8:	69 e3       	ldi	r22, 0x39	; 57
     eaa:	88 e5       	ldi	r24, 0x58	; 88
     eac:	b0 da       	rcall	.-2720   	; 0x40e <_Z10sensor_sethhh>
     eae:	47 e2       	ldi	r20, 0x27	; 39
     eb0:	6a e3       	ldi	r22, 0x3A	; 58
     eb2:	88 e5       	ldi	r24, 0x58	; 88
     eb4:	ac da       	rcall	.-2728   	; 0x40e <_Z10sensor_sethhh>
     eb6:	4f e1       	ldi	r20, 0x1F	; 31
     eb8:	6b e3       	ldi	r22, 0x3B	; 59
     eba:	88 e5       	ldi	r24, 0x58	; 88
     ebc:	a8 da       	rcall	.-2736   	; 0x40e <_Z10sensor_sethhh>
     ebe:	4e e1       	ldi	r20, 0x1E	; 30
     ec0:	6c e3       	ldi	r22, 0x3C	; 60
     ec2:	88 e5       	ldi	r24, 0x58	; 88
     ec4:	a4 da       	rcall	.-2744   	; 0x40e <_Z10sensor_sethhh>
     ec6:	43 e2       	ldi	r20, 0x23	; 35
     ec8:	6d e3       	ldi	r22, 0x3D	; 61
     eca:	88 e5       	ldi	r24, 0x58	; 88
     ecc:	a0 da       	rcall	.-2752   	; 0x40e <_Z10sensor_sethhh>
     ece:	4f e2       	ldi	r20, 0x2F	; 47
     ed0:	6e e3       	ldi	r22, 0x3E	; 62
     ed2:	88 e5       	ldi	r24, 0x58	; 88
     ed4:	9c da       	rcall	.-2760   	; 0x40e <_Z10sensor_sethhh>
     ed6:	41 e4       	ldi	r20, 0x41	; 65
     ed8:	6f e3       	ldi	r22, 0x3F	; 63
     eda:	88 e5       	ldi	r24, 0x58	; 88
     edc:	98 da       	rcall	.-2768   	; 0x40e <_Z10sensor_sethhh>
     ede:	4e e0       	ldi	r20, 0x0E	; 14
     ee0:	60 e4       	ldi	r22, 0x40	; 64
     ee2:	88 e5       	ldi	r24, 0x58	; 88
     ee4:	94 da       	rcall	.-2776   	; 0x40e <_Z10sensor_sethhh>
     ee6:	4c e0       	ldi	r20, 0x0C	; 12
     ee8:	61 e4       	ldi	r22, 0x41	; 65
     eea:	88 e5       	ldi	r24, 0x58	; 88
     eec:	90 da       	rcall	.-2784   	; 0x40e <_Z10sensor_sethhh>
     eee:	4d e0       	ldi	r20, 0x0D	; 13
     ef0:	62 e4       	ldi	r22, 0x42	; 66
     ef2:	88 e5       	ldi	r24, 0x58	; 88
     ef4:	8c da       	rcall	.-2792   	; 0x40e <_Z10sensor_sethhh>
     ef6:	4c e0       	ldi	r20, 0x0C	; 12
     ef8:	63 e4       	ldi	r22, 0x43	; 67
     efa:	88 e5       	ldi	r24, 0x58	; 88
     efc:	88 da       	rcall	.-2800   	; 0x40e <_Z10sensor_sethhh>
     efe:	4c e0       	ldi	r20, 0x0C	; 12
     f00:	64 e4       	ldi	r22, 0x44	; 68
     f02:	88 e5       	ldi	r24, 0x58	; 88
     f04:	84 da       	rcall	.-2808   	; 0x40e <_Z10sensor_sethhh>
     f06:	4c e0       	ldi	r20, 0x0C	; 12
     f08:	65 e4       	ldi	r22, 0x45	; 69
     f0a:	88 e5       	ldi	r24, 0x58	; 88
     f0c:	80 da       	rcall	.-2816   	; 0x40e <_Z10sensor_sethhh>
     f0e:	4c e0       	ldi	r20, 0x0C	; 12
     f10:	66 e4       	ldi	r22, 0x46	; 70
     f12:	88 e5       	ldi	r24, 0x58	; 88
     f14:	7c da       	rcall	.-2824   	; 0x40e <_Z10sensor_sethhh>
     f16:	4c e0       	ldi	r20, 0x0C	; 12
     f18:	67 e4       	ldi	r22, 0x47	; 71
     f1a:	88 e5       	ldi	r24, 0x58	; 88
     f1c:	78 da       	rcall	.-2832   	; 0x40e <_Z10sensor_sethhh>
     f1e:	4d e0       	ldi	r20, 0x0D	; 13
     f20:	68 e4       	ldi	r22, 0x48	; 72
     f22:	88 e5       	ldi	r24, 0x58	; 88
     f24:	74 da       	rcall	.-2840   	; 0x40e <_Z10sensor_sethhh>
     f26:	4e e0       	ldi	r20, 0x0E	; 14
     f28:	69 e4       	ldi	r22, 0x49	; 73
     f2a:	88 e5       	ldi	r24, 0x58	; 88
     f2c:	70 da       	rcall	.-2848   	; 0x40e <_Z10sensor_sethhh>
     f2e:	4e e0       	ldi	r20, 0x0E	; 14
     f30:	6a e4       	ldi	r22, 0x4A	; 74
     f32:	88 e5       	ldi	r24, 0x58	; 88
     f34:	6c da       	rcall	.-2856   	; 0x40e <_Z10sensor_sethhh>
     f36:	4a e0       	ldi	r20, 0x0A	; 10
     f38:	6b e4       	ldi	r22, 0x4B	; 75
     f3a:	88 e5       	ldi	r24, 0x58	; 88
     f3c:	68 da       	rcall	.-2864   	; 0x40e <_Z10sensor_sethhh>
     f3e:	4e e0       	ldi	r20, 0x0E	; 14
     f40:	6c e4       	ldi	r22, 0x4C	; 76
     f42:	88 e5       	ldi	r24, 0x58	; 88
     f44:	64 da       	rcall	.-2872   	; 0x40e <_Z10sensor_sethhh>
     f46:	4e e0       	ldi	r20, 0x0E	; 14
     f48:	6d e4       	ldi	r22, 0x4D	; 77
     f4a:	88 e5       	ldi	r24, 0x58	; 88
     f4c:	60 da       	rcall	.-2880   	; 0x40e <_Z10sensor_sethhh>
     f4e:	40 e1       	ldi	r20, 0x10	; 16
     f50:	6e e4       	ldi	r22, 0x4E	; 78
     f52:	88 e5       	ldi	r24, 0x58	; 88
     f54:	5c da       	rcall	.-2888   	; 0x40e <_Z10sensor_sethhh>
     f56:	40 e1       	ldi	r20, 0x10	; 16
     f58:	6f e4       	ldi	r22, 0x4F	; 79
     f5a:	88 e5       	ldi	r24, 0x58	; 88
     f5c:	58 da       	rcall	.-2896   	; 0x40e <_Z10sensor_sethhh>
     f5e:	41 e1       	ldi	r20, 0x11	; 17
     f60:	60 e5       	ldi	r22, 0x50	; 80
     f62:	88 e5       	ldi	r24, 0x58	; 88
     f64:	54 da       	rcall	.-2904   	; 0x40e <_Z10sensor_sethhh>
     f66:	4a e0       	ldi	r20, 0x0A	; 10
     f68:	61 e5       	ldi	r22, 0x51	; 81
     f6a:	88 e5       	ldi	r24, 0x58	; 88
     f6c:	50 da       	rcall	.-2912   	; 0x40e <_Z10sensor_sethhh>
     f6e:	4f e0       	ldi	r20, 0x0F	; 15
     f70:	62 e5       	ldi	r22, 0x52	; 82
     f72:	88 e5       	ldi	r24, 0x58	; 88
     f74:	4c da       	rcall	.-2920   	; 0x40e <_Z10sensor_sethhh>
     f76:	4e e0       	ldi	r20, 0x0E	; 14
     f78:	63 e5       	ldi	r22, 0x53	; 83
     f7a:	88 e5       	ldi	r24, 0x58	; 88
     f7c:	48 da       	rcall	.-2928   	; 0x40e <_Z10sensor_sethhh>
     f7e:	40 e1       	ldi	r20, 0x10	; 16
     f80:	64 e5       	ldi	r22, 0x54	; 84
     f82:	88 e5       	ldi	r24, 0x58	; 88
     f84:	44 da       	rcall	.-2936   	; 0x40e <_Z10sensor_sethhh>
     f86:	40 e1       	ldi	r20, 0x10	; 16
     f88:	65 e5       	ldi	r22, 0x55	; 85
     f8a:	88 e5       	ldi	r24, 0x58	; 88
     f8c:	40 da       	rcall	.-2944   	; 0x40e <_Z10sensor_sethhh>
     f8e:	40 e1       	ldi	r20, 0x10	; 16
     f90:	66 e5       	ldi	r22, 0x56	; 86
     f92:	88 e5       	ldi	r24, 0x58	; 88
     f94:	3c da       	rcall	.-2952   	; 0x40e <_Z10sensor_sethhh>
     f96:	4a e0       	ldi	r20, 0x0A	; 10
     f98:	67 e5       	ldi	r22, 0x57	; 87
     f9a:	88 e5       	ldi	r24, 0x58	; 88
     f9c:	38 da       	rcall	.-2960   	; 0x40e <_Z10sensor_sethhh>
     f9e:	4e e0       	ldi	r20, 0x0E	; 14
     fa0:	68 e5       	ldi	r22, 0x58	; 88
     fa2:	88 e5       	ldi	r24, 0x58	; 88
     fa4:	34 da       	rcall	.-2968   	; 0x40e <_Z10sensor_sethhh>
     fa6:	4e e0       	ldi	r20, 0x0E	; 14
     fa8:	69 e5       	ldi	r22, 0x59	; 89
     faa:	88 e5       	ldi	r24, 0x58	; 88
     fac:	30 da       	rcall	.-2976   	; 0x40e <_Z10sensor_sethhh>
     fae:	4f e0       	ldi	r20, 0x0F	; 15
     fb0:	6a e5       	ldi	r22, 0x5A	; 90
     fb2:	88 e5       	ldi	r24, 0x58	; 88
     fb4:	2c da       	rcall	.-2984   	; 0x40e <_Z10sensor_sethhh>
     fb6:	4f e0       	ldi	r20, 0x0F	; 15
     fb8:	6b e5       	ldi	r22, 0x5B	; 91
     fba:	88 e5       	ldi	r24, 0x58	; 88
     fbc:	28 da       	rcall	.-2992   	; 0x40e <_Z10sensor_sethhh>
     fbe:	4f e0       	ldi	r20, 0x0F	; 15
     fc0:	6c e5       	ldi	r22, 0x5C	; 92
     fc2:	88 e5       	ldi	r24, 0x58	; 88
     fc4:	24 da       	rcall	.-3000   	; 0x40e <_Z10sensor_sethhh>
     fc6:	4a e0       	ldi	r20, 0x0A	; 10
     fc8:	6d e5       	ldi	r22, 0x5D	; 93
     fca:	88 e5       	ldi	r24, 0x58	; 88
     fcc:	20 da       	rcall	.-3008   	; 0x40e <_Z10sensor_sethhh>
     fce:	49 e0       	ldi	r20, 0x09	; 9
     fd0:	6e e5       	ldi	r22, 0x5E	; 94
     fd2:	88 e5       	ldi	r24, 0x58	; 88
     fd4:	1c da       	rcall	.-3016   	; 0x40e <_Z10sensor_sethhh>
     fd6:	4d e0       	ldi	r20, 0x0D	; 13
     fd8:	6f e5       	ldi	r22, 0x5F	; 95
     fda:	88 e5       	ldi	r24, 0x58	; 88
     fdc:	18 da       	rcall	.-3024   	; 0x40e <_Z10sensor_sethhh>
     fde:	4c e0       	ldi	r20, 0x0C	; 12
     fe0:	60 e6       	ldi	r22, 0x60	; 96
     fe2:	88 e5       	ldi	r24, 0x58	; 88
     fe4:	14 da       	rcall	.-3032   	; 0x40e <_Z10sensor_sethhh>
     fe6:	4b e0       	ldi	r20, 0x0B	; 11
     fe8:	61 e6       	ldi	r22, 0x61	; 97
     fea:	88 e5       	ldi	r24, 0x58	; 88
     fec:	10 da       	rcall	.-3040   	; 0x40e <_Z10sensor_sethhh>
     fee:	4d e0       	ldi	r20, 0x0D	; 13
     ff0:	62 e6       	ldi	r22, 0x62	; 98
     ff2:	88 e5       	ldi	r24, 0x58	; 88
     ff4:	0c da       	rcall	.-3048   	; 0x40e <_Z10sensor_sethhh>
     ff6:	47 e0       	ldi	r20, 0x07	; 7
     ff8:	63 e6       	ldi	r22, 0x63	; 99
     ffa:	88 e5       	ldi	r24, 0x58	; 88
     ffc:	08 da       	rcall	.-3056   	; 0x40e <_Z10sensor_sethhh>
     ffe:	47 e1       	ldi	r20, 0x17	; 23
    1000:	64 e6       	ldi	r22, 0x64	; 100
    1002:	88 e5       	ldi	r24, 0x58	; 88
    1004:	04 da       	rcall	.-3064   	; 0x40e <_Z10sensor_sethhh>
    1006:	44 e1       	ldi	r20, 0x14	; 20
    1008:	65 e6       	ldi	r22, 0x65	; 101
    100a:	88 e5       	ldi	r24, 0x58	; 88
    100c:	00 da       	rcall	.-3072   	; 0x40e <_Z10sensor_sethhh>
    100e:	48 e1       	ldi	r20, 0x18	; 24
    1010:	66 e6       	ldi	r22, 0x66	; 102
    1012:	88 e5       	ldi	r24, 0x58	; 88
    1014:	fc d9       	rcall	.-3080   	; 0x40e <_Z10sensor_sethhh>
    1016:	48 e1       	ldi	r20, 0x18	; 24
    1018:	67 e6       	ldi	r22, 0x67	; 103
    101a:	88 e5       	ldi	r24, 0x58	; 88
    101c:	f8 d9       	rcall	.-3088   	; 0x40e <_Z10sensor_sethhh>
    101e:	46 e1       	ldi	r20, 0x16	; 22
    1020:	68 e6       	ldi	r22, 0x68	; 104
    1022:	88 e5       	ldi	r24, 0x58	; 88
    1024:	f4 d9       	rcall	.-3096   	; 0x40e <_Z10sensor_sethhh>
    1026:	42 e1       	ldi	r20, 0x12	; 18
    1028:	69 e6       	ldi	r22, 0x69	; 105
    102a:	88 e5       	ldi	r24, 0x58	; 88
    102c:	f0 d9       	rcall	.-3104   	; 0x40e <_Z10sensor_sethhh>
    102e:	4b e1       	ldi	r20, 0x1B	; 27
    1030:	6a e6       	ldi	r22, 0x6A	; 106
    1032:	88 e5       	ldi	r24, 0x58	; 88
    1034:	ec d9       	rcall	.-3112   	; 0x40e <_Z10sensor_sethhh>
    1036:	4a e1       	ldi	r20, 0x1A	; 26
    1038:	6b e6       	ldi	r22, 0x6B	; 107
    103a:	88 e5       	ldi	r24, 0x58	; 88
    103c:	e8 d9       	rcall	.-3120   	; 0x40e <_Z10sensor_sethhh>
    103e:	46 e1       	ldi	r20, 0x16	; 22
    1040:	6c e6       	ldi	r22, 0x6C	; 108
    1042:	88 e5       	ldi	r24, 0x58	; 88
    1044:	e4 d9       	rcall	.-3128   	; 0x40e <_Z10sensor_sethhh>
    1046:	46 e1       	ldi	r20, 0x16	; 22
    1048:	6d e6       	ldi	r22, 0x6D	; 109
    104a:	88 e5       	ldi	r24, 0x58	; 88
    104c:	e0 d9       	rcall	.-3136   	; 0x40e <_Z10sensor_sethhh>
    104e:	48 e1       	ldi	r20, 0x18	; 24
    1050:	6e e6       	ldi	r22, 0x6E	; 110
    1052:	88 e5       	ldi	r24, 0x58	; 88
    1054:	dc d9       	rcall	.-3144   	; 0x40e <_Z10sensor_sethhh>
    1056:	4f e1       	ldi	r20, 0x1F	; 31
    1058:	6f e6       	ldi	r22, 0x6F	; 111
    105a:	88 e5       	ldi	r24, 0x58	; 88
    105c:	d8 d9       	rcall	.-3152   	; 0x40e <_Z10sensor_sethhh>
    105e:	4c e1       	ldi	r20, 0x1C	; 28
    1060:	60 e7       	ldi	r22, 0x70	; 112
    1062:	88 e5       	ldi	r24, 0x58	; 88
    1064:	d4 d9       	rcall	.-3160   	; 0x40e <_Z10sensor_sethhh>
    1066:	46 e1       	ldi	r20, 0x16	; 22
    1068:	61 e7       	ldi	r22, 0x71	; 113
    106a:	88 e5       	ldi	r24, 0x58	; 88
    106c:	d0 d9       	rcall	.-3168   	; 0x40e <_Z10sensor_sethhh>
    106e:	40 e1       	ldi	r20, 0x10	; 16
    1070:	62 e7       	ldi	r22, 0x72	; 114
    1072:	88 e5       	ldi	r24, 0x58	; 88
    1074:	cc d9       	rcall	.-3176   	; 0x40e <_Z10sensor_sethhh>
    1076:	4f e0       	ldi	r20, 0x0F	; 15
    1078:	63 e7       	ldi	r22, 0x73	; 115
    107a:	88 e5       	ldi	r24, 0x58	; 88
    107c:	c8 d9       	rcall	.-3184   	; 0x40e <_Z10sensor_sethhh>
    107e:	43 e1       	ldi	r20, 0x13	; 19
    1080:	64 e7       	ldi	r22, 0x74	; 116
    1082:	88 e5       	ldi	r24, 0x58	; 88
    1084:	c4 d9       	rcall	.-3192   	; 0x40e <_Z10sensor_sethhh>
    1086:	4c e1       	ldi	r20, 0x1C	; 28
    1088:	65 e7       	ldi	r22, 0x75	; 117
    108a:	88 e5       	ldi	r24, 0x58	; 88
    108c:	c0 d9       	rcall	.-3200   	; 0x40e <_Z10sensor_sethhh>
    108e:	4e e1       	ldi	r20, 0x1E	; 30
    1090:	66 e7       	ldi	r22, 0x76	; 118
    1092:	88 e5       	ldi	r24, 0x58	; 88
    1094:	bc d9       	rcall	.-3208   	; 0x40e <_Z10sensor_sethhh>
    1096:	47 e1       	ldi	r20, 0x17	; 23
    1098:	67 e7       	ldi	r22, 0x77	; 119
    109a:	88 e5       	ldi	r24, 0x58	; 88
    109c:	b8 d9       	rcall	.-3216   	; 0x40e <_Z10sensor_sethhh>
    109e:	41 e1       	ldi	r20, 0x11	; 17
    10a0:	68 e7       	ldi	r22, 0x78	; 120
    10a2:	88 e5       	ldi	r24, 0x58	; 88
    10a4:	b4 d9       	rcall	.-3224   	; 0x40e <_Z10sensor_sethhh>
    10a6:	41 e1       	ldi	r20, 0x11	; 17
    10a8:	69 e7       	ldi	r22, 0x79	; 121
    10aa:	88 e5       	ldi	r24, 0x58	; 88
    10ac:	b0 d9       	rcall	.-3232   	; 0x40e <_Z10sensor_sethhh>
    10ae:	44 e1       	ldi	r20, 0x14	; 20
    10b0:	6a e7       	ldi	r22, 0x7A	; 122
    10b2:	88 e5       	ldi	r24, 0x58	; 88
    10b4:	ac d9       	rcall	.-3240   	; 0x40e <_Z10sensor_sethhh>
    10b6:	4e e1       	ldi	r20, 0x1E	; 30
    10b8:	6b e7       	ldi	r22, 0x7B	; 123
    10ba:	88 e5       	ldi	r24, 0x58	; 88
    10bc:	a8 d9       	rcall	.-3248   	; 0x40e <_Z10sensor_sethhh>
    10be:	4c e1       	ldi	r20, 0x1C	; 28
    10c0:	6c e7       	ldi	r22, 0x7C	; 124
    10c2:	88 e5       	ldi	r24, 0x58	; 88
    10c4:	a4 d9       	rcall	.-3256   	; 0x40e <_Z10sensor_sethhh>
    10c6:	4c e1       	ldi	r20, 0x1C	; 28
    10c8:	6d e7       	ldi	r22, 0x7D	; 125
    10ca:	88 e5       	ldi	r24, 0x58	; 88
    10cc:	a0 d9       	rcall	.-3264   	; 0x40e <_Z10sensor_sethhh>
    10ce:	4a e1       	ldi	r20, 0x1A	; 26
    10d0:	6e e7       	ldi	r22, 0x7E	; 126
    10d2:	88 e5       	ldi	r24, 0x58	; 88
    10d4:	9c d9       	rcall	.-3272   	; 0x40e <_Z10sensor_sethhh>
    10d6:	4a e1       	ldi	r20, 0x1A	; 26
    10d8:	6f e7       	ldi	r22, 0x7F	; 127
    10da:	88 e5       	ldi	r24, 0x58	; 88
    10dc:	98 d9       	rcall	.-3280   	; 0x40e <_Z10sensor_sethhh>
    10de:	4b e1       	ldi	r20, 0x1B	; 27
    10e0:	60 e8       	ldi	r22, 0x80	; 128
    10e2:	88 e5       	ldi	r24, 0x58	; 88
    10e4:	94 d9       	rcall	.-3288   	; 0x40e <_Z10sensor_sethhh>
    10e6:	4f e1       	ldi	r20, 0x1F	; 31
    10e8:	61 e8       	ldi	r22, 0x81	; 129
    10ea:	88 e5       	ldi	r24, 0x58	; 88
    10ec:	90 d9       	rcall	.-3296   	; 0x40e <_Z10sensor_sethhh>
    10ee:	44 e1       	ldi	r20, 0x14	; 20
    10f0:	62 e8       	ldi	r22, 0x82	; 130
    10f2:	88 e5       	ldi	r24, 0x58	; 88
    10f4:	8c d9       	rcall	.-3304   	; 0x40e <_Z10sensor_sethhh>
    10f6:	4a e1       	ldi	r20, 0x1A	; 26
    10f8:	63 e8       	ldi	r22, 0x83	; 131
    10fa:	88 e5       	ldi	r24, 0x58	; 88
    10fc:	88 d9       	rcall	.-3312   	; 0x40e <_Z10sensor_sethhh>
    10fe:	4d e1       	ldi	r20, 0x1D	; 29
    1100:	64 e8       	ldi	r22, 0x84	; 132
    1102:	88 e5       	ldi	r24, 0x58	; 88
    1104:	84 d9       	rcall	.-3320   	; 0x40e <_Z10sensor_sethhh>
    1106:	4e e1       	ldi	r20, 0x1E	; 30
    1108:	65 e8       	ldi	r22, 0x85	; 133
    110a:	88 e5       	ldi	r24, 0x58	; 88
    110c:	80 d9       	rcall	.-3328   	; 0x40e <_Z10sensor_sethhh>
    110e:	4a e1       	ldi	r20, 0x1A	; 26
    1110:	66 e8       	ldi	r22, 0x86	; 134
    1112:	88 e5       	ldi	r24, 0x58	; 88
    1114:	7c d9       	rcall	.-3336   	; 0x40e <_Z10sensor_sethhh>
    1116:	4a e1       	ldi	r20, 0x1A	; 26
    1118:	67 e8       	ldi	r22, 0x87	; 135
    111a:	88 e5       	ldi	r24, 0x58	; 88
    111c:	78 d9       	rcall	.-3344   	; 0x40e <_Z10sensor_sethhh>
    111e:	4f ef       	ldi	r20, 0xFF	; 255
    1120:	60 e8       	ldi	r22, 0x80	; 128
    1122:	81 e5       	ldi	r24, 0x51	; 81
    1124:	74 d9       	rcall	.-3352   	; 0x40e <_Z10sensor_sethhh>
    1126:	42 e5       	ldi	r20, 0x52	; 82
    1128:	61 e8       	ldi	r22, 0x81	; 129
    112a:	81 e5       	ldi	r24, 0x51	; 81
    112c:	70 d9       	rcall	.-3360   	; 0x40e <_Z10sensor_sethhh>
    112e:	41 e1       	ldi	r20, 0x11	; 17
    1130:	62 e8       	ldi	r22, 0x82	; 130
    1132:	81 e5       	ldi	r24, 0x51	; 81
    1134:	6c d9       	rcall	.-3368   	; 0x40e <_Z10sensor_sethhh>
    1136:	44 e1       	ldi	r20, 0x14	; 20
    1138:	63 e8       	ldi	r22, 0x83	; 131
    113a:	81 e5       	ldi	r24, 0x51	; 81
    113c:	68 d9       	rcall	.-3376   	; 0x40e <_Z10sensor_sethhh>
    113e:	45 e2       	ldi	r20, 0x25	; 37
    1140:	64 e8       	ldi	r22, 0x84	; 132
    1142:	81 e5       	ldi	r24, 0x51	; 81
    1144:	64 d9       	rcall	.-3384   	; 0x40e <_Z10sensor_sethhh>
    1146:	44 e2       	ldi	r20, 0x24	; 36
    1148:	65 e8       	ldi	r22, 0x85	; 133
    114a:	81 e5       	ldi	r24, 0x51	; 81
    114c:	60 d9       	rcall	.-3392   	; 0x40e <_Z10sensor_sethhh>
    114e:	44 e1       	ldi	r20, 0x14	; 20
    1150:	66 e8       	ldi	r22, 0x86	; 134
    1152:	81 e5       	ldi	r24, 0x51	; 81
    1154:	5c d9       	rcall	.-3400   	; 0x40e <_Z10sensor_sethhh>
    1156:	44 e1       	ldi	r20, 0x14	; 20
    1158:	67 e8       	ldi	r22, 0x87	; 135
    115a:	81 e5       	ldi	r24, 0x51	; 81
    115c:	58 d9       	rcall	.-3408   	; 0x40e <_Z10sensor_sethhh>
    115e:	44 e1       	ldi	r20, 0x14	; 20
    1160:	68 e8       	ldi	r22, 0x88	; 136
    1162:	81 e5       	ldi	r24, 0x51	; 81
    1164:	54 d9       	rcall	.-3416   	; 0x40e <_Z10sensor_sethhh>
    1166:	49 e6       	ldi	r20, 0x69	; 105
    1168:	69 e8       	ldi	r22, 0x89	; 137
    116a:	81 e5       	ldi	r24, 0x51	; 81
    116c:	50 d9       	rcall	.-3424   	; 0x40e <_Z10sensor_sethhh>
    116e:	40 e6       	ldi	r20, 0x60	; 96
    1170:	6a e8       	ldi	r22, 0x8A	; 138
    1172:	81 e5       	ldi	r24, 0x51	; 81
    1174:	4c d9       	rcall	.-3432   	; 0x40e <_Z10sensor_sethhh>
    1176:	42 ea       	ldi	r20, 0xA2	; 162
    1178:	6b e8       	ldi	r22, 0x8B	; 139
    117a:	81 e5       	ldi	r24, 0x51	; 81
    117c:	48 d9       	rcall	.-3440   	; 0x40e <_Z10sensor_sethhh>
    117e:	4c e9       	ldi	r20, 0x9C	; 156
    1180:	6c e8       	ldi	r22, 0x8C	; 140
    1182:	81 e5       	ldi	r24, 0x51	; 81
    1184:	44 d9       	rcall	.-3448   	; 0x40e <_Z10sensor_sethhh>
    1186:	46 e3       	ldi	r20, 0x36	; 54
    1188:	6d e8       	ldi	r22, 0x8D	; 141
    118a:	81 e5       	ldi	r24, 0x51	; 81
    118c:	40 d9       	rcall	.-3456   	; 0x40e <_Z10sensor_sethhh>
    118e:	44 e3       	ldi	r20, 0x34	; 52
    1190:	6e e8       	ldi	r22, 0x8E	; 142
    1192:	81 e5       	ldi	r24, 0x51	; 81
    1194:	3c d9       	rcall	.-3464   	; 0x40e <_Z10sensor_sethhh>
    1196:	44 e5       	ldi	r20, 0x54	; 84
    1198:	6f e8       	ldi	r22, 0x8F	; 143
    119a:	81 e5       	ldi	r24, 0x51	; 81
    119c:	38 d9       	rcall	.-3472   	; 0x40e <_Z10sensor_sethhh>
    119e:	4c e4       	ldi	r20, 0x4C	; 76
    11a0:	60 e9       	ldi	r22, 0x90	; 144
    11a2:	81 e5       	ldi	r24, 0x51	; 81
    11a4:	34 d9       	rcall	.-3480   	; 0x40e <_Z10sensor_sethhh>
    11a6:	48 ef       	ldi	r20, 0xF8	; 248
    11a8:	61 e9       	ldi	r22, 0x91	; 145
    11aa:	81 e5       	ldi	r24, 0x51	; 81
    11ac:	30 d9       	rcall	.-3488   	; 0x40e <_Z10sensor_sethhh>
    11ae:	44 e0       	ldi	r20, 0x04	; 4
    11b0:	62 e9       	ldi	r22, 0x92	; 146
    11b2:	81 e5       	ldi	r24, 0x51	; 81
    11b4:	2c d9       	rcall	.-3496   	; 0x40e <_Z10sensor_sethhh>
    11b6:	40 e7       	ldi	r20, 0x70	; 112
    11b8:	63 e9       	ldi	r22, 0x93	; 147
    11ba:	81 e5       	ldi	r24, 0x51	; 81
    11bc:	28 d9       	rcall	.-3504   	; 0x40e <_Z10sensor_sethhh>
    11be:	40 ef       	ldi	r20, 0xF0	; 240
    11c0:	64 e9       	ldi	r22, 0x94	; 148
    11c2:	81 e5       	ldi	r24, 0x51	; 81
    11c4:	24 d9       	rcall	.-3512   	; 0x40e <_Z10sensor_sethhh>
    11c6:	40 ef       	ldi	r20, 0xF0	; 240
    11c8:	65 e9       	ldi	r22, 0x95	; 149
    11ca:	81 e5       	ldi	r24, 0x51	; 81
    11cc:	20 d9       	rcall	.-3520   	; 0x40e <_Z10sensor_sethhh>
    11ce:	43 e0       	ldi	r20, 0x03	; 3
    11d0:	66 e9       	ldi	r22, 0x96	; 150
    11d2:	81 e5       	ldi	r24, 0x51	; 81
    11d4:	1c d9       	rcall	.-3528   	; 0x40e <_Z10sensor_sethhh>
    11d6:	41 e0       	ldi	r20, 0x01	; 1
    11d8:	67 e9       	ldi	r22, 0x97	; 151
    11da:	81 e5       	ldi	r24, 0x51	; 81
    11dc:	18 d9       	rcall	.-3536   	; 0x40e <_Z10sensor_sethhh>
    11de:	45 e0       	ldi	r20, 0x05	; 5
    11e0:	68 e9       	ldi	r22, 0x98	; 152
    11e2:	81 e5       	ldi	r24, 0x51	; 81
    11e4:	14 d9       	rcall	.-3544   	; 0x40e <_Z10sensor_sethhh>
    11e6:	4f e2       	ldi	r20, 0x2F	; 47
    11e8:	69 e9       	ldi	r22, 0x99	; 153
    11ea:	81 e5       	ldi	r24, 0x51	; 81
    11ec:	10 d9       	rcall	.-3552   	; 0x40e <_Z10sensor_sethhh>
    11ee:	44 e0       	ldi	r20, 0x04	; 4
    11f0:	6a e9       	ldi	r22, 0x9A	; 154
    11f2:	81 e5       	ldi	r24, 0x51	; 81
    11f4:	0c d9       	rcall	.-3560   	; 0x40e <_Z10sensor_sethhh>
    11f6:	40 e0       	ldi	r20, 0x00	; 0
    11f8:	6b e9       	ldi	r22, 0x9B	; 155
    11fa:	81 e5       	ldi	r24, 0x51	; 81
    11fc:	08 d9       	rcall	.-3568   	; 0x40e <_Z10sensor_sethhh>
    11fe:	46 e0       	ldi	r20, 0x06	; 6
    1200:	6c e9       	ldi	r22, 0x9C	; 156
    1202:	81 e5       	ldi	r24, 0x51	; 81
    1204:	04 d9       	rcall	.-3576   	; 0x40e <_Z10sensor_sethhh>
    1206:	40 ea       	ldi	r20, 0xA0	; 160
    1208:	6d e9       	ldi	r22, 0x9D	; 157
    120a:	81 e5       	ldi	r24, 0x51	; 81
    120c:	00 d9       	rcall	.-3584   	; 0x40e <_Z10sensor_sethhh>
    120e:	40 ea       	ldi	r20, 0xA0	; 160
    1210:	6e e9       	ldi	r22, 0x9E	; 158
    1212:	81 e5       	ldi	r24, 0x51	; 81
    1214:	fc d8       	rcall	.-3592   	; 0x40e <_Z10sensor_sethhh>
    1216:	40 e0       	ldi	r20, 0x00	; 0
    1218:	6a e8       	ldi	r22, 0x8A	; 138
    121a:	82 e5       	ldi	r24, 0x52	; 82
    121c:	f8 d8       	rcall	.-3600   	; 0x40e <_Z10sensor_sethhh>
    121e:	41 e0       	ldi	r20, 0x01	; 1
    1220:	6b e8       	ldi	r22, 0x8B	; 139
    1222:	82 e5       	ldi	r24, 0x52	; 82
    1224:	f4 d8       	rcall	.-3608   	; 0x40e <_Z10sensor_sethhh>
    1226:	44 e0       	ldi	r20, 0x04	; 4
    1228:	6c e8       	ldi	r22, 0x8C	; 140
    122a:	82 e5       	ldi	r24, 0x52	; 82
    122c:	f0 d8       	rcall	.-3616   	; 0x40e <_Z10sensor_sethhh>
    122e:	48 e0       	ldi	r20, 0x08	; 8
    1230:	6d e8       	ldi	r22, 0x8D	; 141
    1232:	82 e5       	ldi	r24, 0x52	; 82
    1234:	ec d8       	rcall	.-3624   	; 0x40e <_Z10sensor_sethhh>
    1236:	40 e1       	ldi	r20, 0x10	; 16
    1238:	6e e8       	ldi	r22, 0x8E	; 142
    123a:	82 e5       	ldi	r24, 0x52	; 82
    123c:	e8 d8       	rcall	.-3632   	; 0x40e <_Z10sensor_sethhh>
    123e:	40 e2       	ldi	r20, 0x20	; 32
    1240:	6f e8       	ldi	r22, 0x8F	; 143
    1242:	82 e5       	ldi	r24, 0x52	; 82
    1244:	e4 d8       	rcall	.-3640   	; 0x40e <_Z10sensor_sethhh>
    1246:	40 e3       	ldi	r20, 0x30	; 48
    1248:	60 e9       	ldi	r22, 0x90	; 144
    124a:	82 e5       	ldi	r24, 0x52	; 82
    124c:	e0 d8       	rcall	.-3648   	; 0x40e <_Z10sensor_sethhh>
    124e:	40 e0       	ldi	r20, 0x00	; 0
    1250:	62 e9       	ldi	r22, 0x92	; 146
    1252:	82 e5       	ldi	r24, 0x52	; 82
    1254:	dc d8       	rcall	.-3656   	; 0x40e <_Z10sensor_sethhh>
    1256:	40 e0       	ldi	r20, 0x00	; 0
    1258:	63 e9       	ldi	r22, 0x93	; 147
    125a:	82 e5       	ldi	r24, 0x52	; 82
    125c:	d8 d8       	rcall	.-3664   	; 0x40e <_Z10sensor_sethhh>
    125e:	40 e0       	ldi	r20, 0x00	; 0
    1260:	64 e9       	ldi	r22, 0x94	; 148
    1262:	82 e5       	ldi	r24, 0x52	; 82
    1264:	d4 d8       	rcall	.-3672   	; 0x40e <_Z10sensor_sethhh>
    1266:	41 e0       	ldi	r20, 0x01	; 1
    1268:	65 e9       	ldi	r22, 0x95	; 149
    126a:	82 e5       	ldi	r24, 0x52	; 82
    126c:	d0 d8       	rcall	.-3680   	; 0x40e <_Z10sensor_sethhh>
    126e:	40 e0       	ldi	r20, 0x00	; 0
    1270:	66 e9       	ldi	r22, 0x96	; 150
    1272:	82 e5       	ldi	r24, 0x52	; 82
    1274:	cc d8       	rcall	.-3688   	; 0x40e <_Z10sensor_sethhh>
    1276:	44 e0       	ldi	r20, 0x04	; 4
    1278:	67 e9       	ldi	r22, 0x97	; 151
    127a:	82 e5       	ldi	r24, 0x52	; 82
    127c:	c8 d8       	rcall	.-3696   	; 0x40e <_Z10sensor_sethhh>
    127e:	40 e0       	ldi	r20, 0x00	; 0
    1280:	68 e9       	ldi	r22, 0x98	; 152
    1282:	82 e5       	ldi	r24, 0x52	; 82
    1284:	c4 d8       	rcall	.-3704   	; 0x40e <_Z10sensor_sethhh>
    1286:	48 e0       	ldi	r20, 0x08	; 8
    1288:	69 e9       	ldi	r22, 0x99	; 153
    128a:	82 e5       	ldi	r24, 0x52	; 82
    128c:	c0 d8       	rcall	.-3712   	; 0x40e <_Z10sensor_sethhh>
    128e:	40 e0       	ldi	r20, 0x00	; 0
    1290:	6a e9       	ldi	r22, 0x9A	; 154
    1292:	82 e5       	ldi	r24, 0x52	; 82
    1294:	bc d8       	rcall	.-3720   	; 0x40e <_Z10sensor_sethhh>
    1296:	40 e1       	ldi	r20, 0x10	; 16
    1298:	6b e9       	ldi	r22, 0x9B	; 155
    129a:	82 e5       	ldi	r24, 0x52	; 82
    129c:	b8 d8       	rcall	.-3728   	; 0x40e <_Z10sensor_sethhh>
    129e:	40 e0       	ldi	r20, 0x00	; 0
    12a0:	6c e9       	ldi	r22, 0x9C	; 156
    12a2:	82 e5       	ldi	r24, 0x52	; 82
    12a4:	b4 d8       	rcall	.-3736   	; 0x40e <_Z10sensor_sethhh>
    12a6:	40 e2       	ldi	r20, 0x20	; 32
    12a8:	6d e9       	ldi	r22, 0x9D	; 157
    12aa:	82 e5       	ldi	r24, 0x52	; 82
    12ac:	b0 d8       	rcall	.-3744   	; 0x40e <_Z10sensor_sethhh>
    12ae:	40 e0       	ldi	r20, 0x00	; 0
    12b0:	6e e9       	ldi	r22, 0x9E	; 158
    12b2:	82 e5       	ldi	r24, 0x52	; 82
    12b4:	ac d8       	rcall	.-3752   	; 0x40e <_Z10sensor_sethhh>
    12b6:	40 e3       	ldi	r20, 0x30	; 48
    12b8:	6f e9       	ldi	r22, 0x9F	; 159
    12ba:	82 e5       	ldi	r24, 0x52	; 82
    12bc:	a8 d8       	rcall	.-3760   	; 0x40e <_Z10sensor_sethhh>
    12be:	40 e0       	ldi	r20, 0x00	; 0
    12c0:	62 e8       	ldi	r22, 0x82	; 130
    12c2:	82 e5       	ldi	r24, 0x52	; 82
    12c4:	a4 d8       	rcall	.-3768   	; 0x40e <_Z10sensor_sethhh>
    12c6:	40 e0       	ldi	r20, 0x00	; 0
    12c8:	60 e0       	ldi	r22, 0x00	; 0
    12ca:	83 e5       	ldi	r24, 0x53	; 83
    12cc:	a0 d8       	rcall	.-3776   	; 0x40e <_Z10sensor_sethhh>
    12ce:	40 e2       	ldi	r20, 0x20	; 32
    12d0:	61 e0       	ldi	r22, 0x01	; 1
    12d2:	83 e5       	ldi	r24, 0x53	; 83
    12d4:	9c d8       	rcall	.-3784   	; 0x40e <_Z10sensor_sethhh>
    12d6:	40 e0       	ldi	r20, 0x00	; 0
    12d8:	62 e0       	ldi	r22, 0x02	; 2
    12da:	83 e5       	ldi	r24, 0x53	; 83
    12dc:	98 d8       	rcall	.-3792   	; 0x40e <_Z10sensor_sethhh>
    12de:	4c e7       	ldi	r20, 0x7C	; 124
    12e0:	63 e0       	ldi	r22, 0x03	; 3
    12e2:	83 e5       	ldi	r24, 0x53	; 83
    12e4:	94 d8       	rcall	.-3800   	; 0x40e <_Z10sensor_sethhh>
    12e6:	40 e0       	ldi	r20, 0x00	; 0
    12e8:	6c e0       	ldi	r22, 0x0C	; 12
    12ea:	83 e5       	ldi	r24, 0x53	; 83
    12ec:	90 d8       	rcall	.-3808   	; 0x40e <_Z10sensor_sethhh>
    12ee:	40 e1       	ldi	r20, 0x10	; 16
    12f0:	6d e0       	ldi	r22, 0x0D	; 13
    12f2:	83 e5       	ldi	r24, 0x53	; 83
    12f4:	8c d8       	rcall	.-3816   	; 0x40e <_Z10sensor_sethhh>
    12f6:	40 e2       	ldi	r20, 0x20	; 32
    12f8:	6e e0       	ldi	r22, 0x0E	; 14
    12fa:	83 e5       	ldi	r24, 0x53	; 83
    12fc:	88 d8       	rcall	.-3824   	; 0x40e <_Z10sensor_sethhh>
    12fe:	40 e8       	ldi	r20, 0x80	; 128
    1300:	6f e0       	ldi	r22, 0x0F	; 15
    1302:	83 e5       	ldi	r24, 0x53	; 83
    1304:	84 d8       	rcall	.-3832   	; 0x40e <_Z10sensor_sethhh>
    1306:	40 e2       	ldi	r20, 0x20	; 32
    1308:	60 e1       	ldi	r22, 0x10	; 16
    130a:	83 e5       	ldi	r24, 0x53	; 83
    130c:	80 d8       	rcall	.-3840   	; 0x40e <_Z10sensor_sethhh>
    130e:	40 e8       	ldi	r20, 0x80	; 128
    1310:	61 e1       	ldi	r22, 0x11	; 17
    1312:	83 e5       	ldi	r24, 0x53	; 83
    1314:	7c d8       	rcall	.-3848   	; 0x40e <_Z10sensor_sethhh>
    1316:	40 e2       	ldi	r20, 0x20	; 32
    1318:	68 e0       	ldi	r22, 0x08	; 8
    131a:	83 e5       	ldi	r24, 0x53	; 83
    131c:	78 d8       	rcall	.-3856   	; 0x40e <_Z10sensor_sethhh>
    131e:	40 e4       	ldi	r20, 0x40	; 64
    1320:	69 e0       	ldi	r22, 0x09	; 9
    1322:	83 e5       	ldi	r24, 0x53	; 83
    1324:	74 d8       	rcall	.-3864   	; 0x40e <_Z10sensor_sethhh>
    1326:	40 e0       	ldi	r20, 0x00	; 0
    1328:	64 e0       	ldi	r22, 0x04	; 4
    132a:	83 e5       	ldi	r24, 0x53	; 83
    132c:	70 d8       	rcall	.-3872   	; 0x40e <_Z10sensor_sethhh>
    132e:	40 e3       	ldi	r20, 0x30	; 48
    1330:	65 e0       	ldi	r22, 0x05	; 5
    1332:	83 e5       	ldi	r24, 0x53	; 83
    1334:	6c d8       	rcall	.-3880   	; 0x40e <_Z10sensor_sethhh>
    1336:	40 e0       	ldi	r20, 0x00	; 0
    1338:	66 e0       	ldi	r22, 0x06	; 6
    133a:	83 e5       	ldi	r24, 0x53	; 83
    133c:	68 d8       	rcall	.-3888   	; 0x40e <_Z10sensor_sethhh>
    133e:	40 e8       	ldi	r20, 0x80	; 128
    1340:	67 e0       	ldi	r22, 0x07	; 7
    1342:	83 e5       	ldi	r24, 0x53	; 83
    1344:	64 d8       	rcall	.-3896   	; 0x40e <_Z10sensor_sethhh>
    1346:	48 e0       	ldi	r20, 0x08	; 8
    1348:	64 e1       	ldi	r22, 0x14	; 20
    134a:	83 e5       	ldi	r24, 0x53	; 83
    134c:	60 d8       	rcall	.-3904   	; 0x40e <_Z10sensor_sethhh>
    134e:	40 e2       	ldi	r20, 0x20	; 32
    1350:	65 e1       	ldi	r22, 0x15	; 21
    1352:	83 e5       	ldi	r24, 0x53	; 83
    1354:	5c d8       	rcall	.-3912   	; 0x40e <_Z10sensor_sethhh>
    1356:	40 e3       	ldi	r20, 0x30	; 48
    1358:	69 e1       	ldi	r22, 0x19	; 25
    135a:	83 e5       	ldi	r24, 0x53	; 83
    135c:	58 d8       	rcall	.-3920   	; 0x40e <_Z10sensor_sethhh>
    135e:	40 e1       	ldi	r20, 0x10	; 16
    1360:	66 e1       	ldi	r22, 0x16	; 22
    1362:	83 e5       	ldi	r24, 0x53	; 83
    1364:	54 d8       	rcall	.-3928   	; 0x40e <_Z10sensor_sethhh>
    1366:	40 e0       	ldi	r20, 0x00	; 0
    1368:	67 e1       	ldi	r22, 0x17	; 23
    136a:	83 e5       	ldi	r24, 0x53	; 83
    136c:	50 d8       	rcall	.-3936   	; 0x40e <_Z10sensor_sethhh>
    136e:	42 e0       	ldi	r20, 0x02	; 2
    1370:	68 e1       	ldi	r22, 0x18	; 24
    1372:	83 e5       	ldi	r24, 0x53	; 83
    1374:	4c d8       	rcall	.-3944   	; 0x40e <_Z10sensor_sethhh>
    1376:	41 e0       	ldi	r20, 0x01	; 1
    1378:	60 e8       	ldi	r22, 0x80	; 128
    137a:	83 e5       	ldi	r24, 0x53	; 83
    137c:	48 d8       	rcall	.-3952   	; 0x40e <_Z10sensor_sethhh>
    137e:	40 e0       	ldi	r20, 0x00	; 0
    1380:	61 e8       	ldi	r22, 0x81	; 129
    1382:	83 e5       	ldi	r24, 0x53	; 83
    1384:	44 d8       	rcall	.-3960   	; 0x40e <_Z10sensor_sethhh>
    1386:	40 e0       	ldi	r20, 0x00	; 0
    1388:	62 e8       	ldi	r22, 0x82	; 130
    138a:	83 e5       	ldi	r24, 0x53	; 83
    138c:	40 d8       	rcall	.-3968   	; 0x40e <_Z10sensor_sethhh>
    138e:	4f e1       	ldi	r20, 0x1F	; 31
    1390:	63 e8       	ldi	r22, 0x83	; 131
    1392:	83 e5       	ldi	r24, 0x53	; 83
    1394:	3c d8       	rcall	.-3976   	; 0x40e <_Z10sensor_sethhh>
    1396:	40 e0       	ldi	r20, 0x00	; 0
    1398:	64 e8       	ldi	r22, 0x84	; 132
    139a:	83 e5       	ldi	r24, 0x53	; 83
    139c:	38 d8       	rcall	.-3984   	; 0x40e <_Z10sensor_sethhh>
    139e:	46 e0       	ldi	r20, 0x06	; 6
    13a0:	65 e8       	ldi	r22, 0x85	; 133
    13a2:	83 e5       	ldi	r24, 0x53	; 83
    13a4:	34 d8       	rcall	.-3992   	; 0x40e <_Z10sensor_sethhh>
    13a6:	40 e0       	ldi	r20, 0x00	; 0
    13a8:	66 e8       	ldi	r22, 0x86	; 134
    13aa:	83 e5       	ldi	r24, 0x53	; 83
    13ac:	30 d8       	rcall	.-4000   	; 0x40e <_Z10sensor_sethhh>
    13ae:	40 e0       	ldi	r20, 0x00	; 0
    13b0:	67 e8       	ldi	r22, 0x87	; 135
    13b2:	83 e5       	ldi	r24, 0x53	; 83
    13b4:	2c d8       	rcall	.-4008   	; 0x40e <_Z10sensor_sethhh>
    13b6:	40 e0       	ldi	r20, 0x00	; 0
    13b8:	68 e8       	ldi	r22, 0x88	; 136
    13ba:	83 e5       	ldi	r24, 0x53	; 83
    13bc:	28 d8       	rcall	.-4016   	; 0x40e <_Z10sensor_sethhh>
    13be:	41 ee       	ldi	r20, 0xE1	; 225
    13c0:	69 e8       	ldi	r22, 0x89	; 137
    13c2:	83 e5       	ldi	r24, 0x53	; 83
    13c4:	24 d8       	rcall	.-4024   	; 0x40e <_Z10sensor_sethhh>
    13c6:	40 e0       	ldi	r20, 0x00	; 0
    13c8:	6a e8       	ldi	r22, 0x8A	; 138
    13ca:	83 e5       	ldi	r24, 0x53	; 83
    13cc:	20 d8       	rcall	.-4032   	; 0x40e <_Z10sensor_sethhh>
    13ce:	4b e2       	ldi	r20, 0x2B	; 43
    13d0:	6b e8       	ldi	r22, 0x8B	; 139
    13d2:	83 e5       	ldi	r24, 0x53	; 83
    13d4:	1c d8       	rcall	.-4040   	; 0x40e <_Z10sensor_sethhh>
    13d6:	40 e0       	ldi	r20, 0x00	; 0
    13d8:	6c e8       	ldi	r22, 0x8C	; 140
    13da:	83 e5       	ldi	r24, 0x53	; 83
    13dc:	18 d8       	rcall	.-4048   	; 0x40e <_Z10sensor_sethhh>
    13de:	40 e0       	ldi	r20, 0x00	; 0
    13e0:	6d e8       	ldi	r22, 0x8D	; 141
    13e2:	83 e5       	ldi	r24, 0x53	; 83
    13e4:	14 d8       	rcall	.-4056   	; 0x40e <_Z10sensor_sethhh>
    13e6:	40 e0       	ldi	r20, 0x00	; 0
    13e8:	6e e8       	ldi	r22, 0x8E	; 142
    13ea:	83 e5       	ldi	r24, 0x53	; 83
    13ec:	10 d8       	rcall	.-4064   	; 0x40e <_Z10sensor_sethhh>
    13ee:	40 e1       	ldi	r20, 0x10	; 16
    13f0:	6f e8       	ldi	r22, 0x8F	; 143
    13f2:	83 e5       	ldi	r24, 0x53	; 83
    13f4:	0c d8       	rcall	.-4072   	; 0x40e <_Z10sensor_sethhh>
    13f6:	40 e0       	ldi	r20, 0x00	; 0
    13f8:	60 e9       	ldi	r22, 0x90	; 144
    13fa:	83 e5       	ldi	r24, 0x53	; 83
    13fc:	08 d8       	rcall	.-4080   	; 0x40e <_Z10sensor_sethhh>
    13fe:	43 eb       	ldi	r20, 0xB3	; 179
    1400:	61 e9       	ldi	r22, 0x91	; 145
    1402:	83 e5       	ldi	r24, 0x53	; 83
    1404:	04 d8       	rcall	.-4088   	; 0x40e <_Z10sensor_sethhh>
    1406:	40 e0       	ldi	r20, 0x00	; 0
    1408:	62 e9       	ldi	r22, 0x92	; 146
    140a:	83 e5       	ldi	r24, 0x53	; 83
    140c:	00 d8       	rcall	.-4096   	; 0x40e <_Z10sensor_sethhh>
    140e:	46 ea       	ldi	r20, 0xA6	; 166
    1410:	63 e9       	ldi	r22, 0x93	; 147
    1412:	83 e5       	ldi	r24, 0x53	; 83
    1414:	0e 94 07 02 	call	0x40e	; 0x40e <_Z10sensor_sethhh>
    1418:	48 e0       	ldi	r20, 0x08	; 8
    141a:	64 e9       	ldi	r22, 0x94	; 148
    141c:	83 e5       	ldi	r24, 0x53	; 83
    141e:	0e 94 07 02 	call	0x40e	; 0x40e <_Z10sensor_sethhh>
    1422:	4c e0       	ldi	r20, 0x0C	; 12
    1424:	60 e8       	ldi	r22, 0x80	; 128
    1426:	84 e5       	ldi	r24, 0x54	; 84
    1428:	0e 94 07 02 	call	0x40e	; 0x40e <_Z10sensor_sethhh>
    142c:	48 e1       	ldi	r20, 0x18	; 24
    142e:	61 e8       	ldi	r22, 0x81	; 129
    1430:	84 e5       	ldi	r24, 0x54	; 84
    1432:	0e 94 07 02 	call	0x40e	; 0x40e <_Z10sensor_sethhh>
    1436:	4f e2       	ldi	r20, 0x2F	; 47
    1438:	62 e8       	ldi	r22, 0x82	; 130
    143a:	84 e5       	ldi	r24, 0x54	; 84
    143c:	0e 94 07 02 	call	0x40e	; 0x40e <_Z10sensor_sethhh>
    1440:	45 e5       	ldi	r20, 0x55	; 85
    1442:	63 e8       	ldi	r22, 0x83	; 131
    1444:	84 e5       	ldi	r24, 0x54	; 84
    1446:	0e 94 07 02 	call	0x40e	; 0x40e <_Z10sensor_sethhh>
    144a:	44 e6       	ldi	r20, 0x64	; 100
    144c:	64 e8       	ldi	r22, 0x84	; 132
    144e:	84 e5       	ldi	r24, 0x54	; 84
    1450:	0e 94 07 02 	call	0x40e	; 0x40e <_Z10sensor_sethhh>
    1454:	41 e7       	ldi	r20, 0x71	; 113
    1456:	65 e8       	ldi	r22, 0x85	; 133
    1458:	84 e5       	ldi	r24, 0x54	; 84
    145a:	0e 94 07 02 	call	0x40e	; 0x40e <_Z10sensor_sethhh>
    145e:	4d e7       	ldi	r20, 0x7D	; 125
    1460:	66 e8       	ldi	r22, 0x86	; 134
    1462:	84 e5       	ldi	r24, 0x54	; 84
    1464:	0e 94 07 02 	call	0x40e	; 0x40e <_Z10sensor_sethhh>
    1468:	47 e8       	ldi	r20, 0x87	; 135
    146a:	67 e8       	ldi	r22, 0x87	; 135
    146c:	84 e5       	ldi	r24, 0x54	; 84
    146e:	0e 94 07 02 	call	0x40e	; 0x40e <_Z10sensor_sethhh>
    1472:	41 e9       	ldi	r20, 0x91	; 145
    1474:	68 e8       	ldi	r22, 0x88	; 136
    1476:	84 e5       	ldi	r24, 0x54	; 84
    1478:	0e 94 07 02 	call	0x40e	; 0x40e <_Z10sensor_sethhh>
    147c:	4a e9       	ldi	r20, 0x9A	; 154
    147e:	69 e8       	ldi	r22, 0x89	; 137
    1480:	84 e5       	ldi	r24, 0x54	; 84
    1482:	0e 94 07 02 	call	0x40e	; 0x40e <_Z10sensor_sethhh>
    1486:	4a ea       	ldi	r20, 0xAA	; 170
    1488:	6a e8       	ldi	r22, 0x8A	; 138
    148a:	84 e5       	ldi	r24, 0x54	; 84
    148c:	0e 94 07 02 	call	0x40e	; 0x40e <_Z10sensor_sethhh>
    1490:	48 eb       	ldi	r20, 0xB8	; 184
    1492:	6b e8       	ldi	r22, 0x8B	; 139
    1494:	84 e5       	ldi	r24, 0x54	; 84
    1496:	0e 94 07 02 	call	0x40e	; 0x40e <_Z10sensor_sethhh>
    149a:	4d ec       	ldi	r20, 0xCD	; 205
    149c:	6c e8       	ldi	r22, 0x8C	; 140
    149e:	84 e5       	ldi	r24, 0x54	; 84
    14a0:	0e 94 07 02 	call	0x40e	; 0x40e <_Z10sensor_sethhh>
    14a4:	4d ed       	ldi	r20, 0xDD	; 221
    14a6:	6d e8       	ldi	r22, 0x8D	; 141
    14a8:	84 e5       	ldi	r24, 0x54	; 84
    14aa:	0e 94 07 02 	call	0x40e	; 0x40e <_Z10sensor_sethhh>
    14ae:	4a ee       	ldi	r20, 0xEA	; 234
    14b0:	6e e8       	ldi	r22, 0x8E	; 142
    14b2:	84 e5       	ldi	r24, 0x54	; 84
    14b4:	0e 94 07 02 	call	0x40e	; 0x40e <_Z10sensor_sethhh>
    14b8:	4d e1       	ldi	r20, 0x1D	; 29
    14ba:	6f e8       	ldi	r22, 0x8F	; 143
    14bc:	84 e5       	ldi	r24, 0x54	; 84
    14be:	0e 94 07 02 	call	0x40e	; 0x40e <_Z10sensor_sethhh>
    14c2:	45 e0       	ldi	r20, 0x05	; 5
    14c4:	60 e9       	ldi	r22, 0x90	; 144
    14c6:	84 e5       	ldi	r24, 0x54	; 84
    14c8:	0e 94 07 02 	call	0x40e	; 0x40e <_Z10sensor_sethhh>
    14cc:	40 e0       	ldi	r20, 0x00	; 0
    14ce:	61 e9       	ldi	r22, 0x91	; 145
    14d0:	84 e5       	ldi	r24, 0x54	; 84
    14d2:	0e 94 07 02 	call	0x40e	; 0x40e <_Z10sensor_sethhh>
    14d6:	44 e0       	ldi	r20, 0x04	; 4
    14d8:	62 e9       	ldi	r22, 0x92	; 146
    14da:	84 e5       	ldi	r24, 0x54	; 84
    14dc:	0e 94 07 02 	call	0x40e	; 0x40e <_Z10sensor_sethhh>
    14e0:	40 e2       	ldi	r20, 0x20	; 32
    14e2:	63 e9       	ldi	r22, 0x93	; 147
    14e4:	84 e5       	ldi	r24, 0x54	; 84
    14e6:	0e 94 07 02 	call	0x40e	; 0x40e <_Z10sensor_sethhh>
    14ea:	43 e0       	ldi	r20, 0x03	; 3
    14ec:	64 e9       	ldi	r22, 0x94	; 148
    14ee:	84 e5       	ldi	r24, 0x54	; 84
    14f0:	0e 94 07 02 	call	0x40e	; 0x40e <_Z10sensor_sethhh>
    14f4:	40 e6       	ldi	r20, 0x60	; 96
    14f6:	65 e9       	ldi	r22, 0x95	; 149
    14f8:	84 e5       	ldi	r24, 0x54	; 84
    14fa:	0e 94 07 02 	call	0x40e	; 0x40e <_Z10sensor_sethhh>
    14fe:	42 e0       	ldi	r20, 0x02	; 2
    1500:	66 e9       	ldi	r22, 0x96	; 150
    1502:	84 e5       	ldi	r24, 0x54	; 84
    1504:	0e 94 07 02 	call	0x40e	; 0x40e <_Z10sensor_sethhh>
    1508:	48 eb       	ldi	r20, 0xB8	; 184
    150a:	67 e9       	ldi	r22, 0x97	; 151
    150c:	84 e5       	ldi	r24, 0x54	; 84
    150e:	0e 94 07 02 	call	0x40e	; 0x40e <_Z10sensor_sethhh>
    1512:	42 e0       	ldi	r20, 0x02	; 2
    1514:	68 e9       	ldi	r22, 0x98	; 152
    1516:	84 e5       	ldi	r24, 0x54	; 84
    1518:	0e 94 07 02 	call	0x40e	; 0x40e <_Z10sensor_sethhh>
    151c:	46 e8       	ldi	r20, 0x86	; 134
    151e:	69 e9       	ldi	r22, 0x99	; 153
    1520:	84 e5       	ldi	r24, 0x54	; 84
    1522:	0e 94 07 02 	call	0x40e	; 0x40e <_Z10sensor_sethhh>
    1526:	42 e0       	ldi	r20, 0x02	; 2
    1528:	6a e9       	ldi	r22, 0x9A	; 154
    152a:	84 e5       	ldi	r24, 0x54	; 84
    152c:	0e 94 07 02 	call	0x40e	; 0x40e <_Z10sensor_sethhh>
    1530:	4b e5       	ldi	r20, 0x5B	; 91
    1532:	6b e9       	ldi	r22, 0x9B	; 155
    1534:	84 e5       	ldi	r24, 0x54	; 84
    1536:	0e 94 07 02 	call	0x40e	; 0x40e <_Z10sensor_sethhh>
    153a:	42 e0       	ldi	r20, 0x02	; 2
    153c:	6c e9       	ldi	r22, 0x9C	; 156
    153e:	84 e5       	ldi	r24, 0x54	; 84
    1540:	0e 94 07 02 	call	0x40e	; 0x40e <_Z10sensor_sethhh>
    1544:	4b e3       	ldi	r20, 0x3B	; 59
    1546:	6d e9       	ldi	r22, 0x9D	; 157
    1548:	84 e5       	ldi	r24, 0x54	; 84
    154a:	0e 94 07 02 	call	0x40e	; 0x40e <_Z10sensor_sethhh>
    154e:	42 e0       	ldi	r20, 0x02	; 2
    1550:	6e e9       	ldi	r22, 0x9E	; 158
    1552:	84 e5       	ldi	r24, 0x54	; 84
    1554:	0e 94 07 02 	call	0x40e	; 0x40e <_Z10sensor_sethhh>
    1558:	4c e1       	ldi	r20, 0x1C	; 28
    155a:	6f e9       	ldi	r22, 0x9F	; 159
    155c:	84 e5       	ldi	r24, 0x54	; 84
    155e:	0e 94 07 02 	call	0x40e	; 0x40e <_Z10sensor_sethhh>
    1562:	42 e0       	ldi	r20, 0x02	; 2
    1564:	60 ea       	ldi	r22, 0xA0	; 160
    1566:	84 e5       	ldi	r24, 0x54	; 84
    1568:	0e 94 07 02 	call	0x40e	; 0x40e <_Z10sensor_sethhh>
    156c:	44 e0       	ldi	r20, 0x04	; 4
    156e:	61 ea       	ldi	r22, 0xA1	; 161
    1570:	84 e5       	ldi	r24, 0x54	; 84
    1572:	0e 94 07 02 	call	0x40e	; 0x40e <_Z10sensor_sethhh>
    1576:	41 e0       	ldi	r20, 0x01	; 1
    1578:	62 ea       	ldi	r22, 0xA2	; 162
    157a:	84 e5       	ldi	r24, 0x54	; 84
    157c:	0e 94 07 02 	call	0x40e	; 0x40e <_Z10sensor_sethhh>
    1580:	4d ee       	ldi	r20, 0xED	; 237
    1582:	63 ea       	ldi	r22, 0xA3	; 163
    1584:	84 e5       	ldi	r24, 0x54	; 84
    1586:	0e 94 07 02 	call	0x40e	; 0x40e <_Z10sensor_sethhh>
    158a:	41 e0       	ldi	r20, 0x01	; 1
    158c:	64 ea       	ldi	r22, 0xA4	; 164
    158e:	84 e5       	ldi	r24, 0x54	; 84
    1590:	0e 94 07 02 	call	0x40e	; 0x40e <_Z10sensor_sethhh>
    1594:	45 ec       	ldi	r20, 0xC5	; 197
    1596:	65 ea       	ldi	r22, 0xA5	; 165
    1598:	84 e5       	ldi	r24, 0x54	; 84
    159a:	0e 94 07 02 	call	0x40e	; 0x40e <_Z10sensor_sethhh>
    159e:	41 e0       	ldi	r20, 0x01	; 1
    15a0:	66 ea       	ldi	r22, 0xA6	; 166
    15a2:	84 e5       	ldi	r24, 0x54	; 84
    15a4:	0e 94 07 02 	call	0x40e	; 0x40e <_Z10sensor_sethhh>
    15a8:	45 ea       	ldi	r20, 0xA5	; 165
    15aa:	67 ea       	ldi	r22, 0xA7	; 167
    15ac:	84 e5       	ldi	r24, 0x54	; 84
    15ae:	0e 94 07 02 	call	0x40e	; 0x40e <_Z10sensor_sethhh>
    15b2:	41 e0       	ldi	r20, 0x01	; 1
    15b4:	68 ea       	ldi	r22, 0xA8	; 168
    15b6:	84 e5       	ldi	r24, 0x54	; 84
    15b8:	0e 94 07 02 	call	0x40e	; 0x40e <_Z10sensor_sethhh>
    15bc:	4c e6       	ldi	r20, 0x6C	; 108
    15be:	69 ea       	ldi	r22, 0xA9	; 169
    15c0:	84 e5       	ldi	r24, 0x54	; 84
    15c2:	0e 94 07 02 	call	0x40e	; 0x40e <_Z10sensor_sethhh>
    15c6:	41 e0       	ldi	r20, 0x01	; 1
    15c8:	6a ea       	ldi	r22, 0xAA	; 170
    15ca:	84 e5       	ldi	r24, 0x54	; 84
    15cc:	0e 94 07 02 	call	0x40e	; 0x40e <_Z10sensor_sethhh>
    15d0:	41 e4       	ldi	r20, 0x41	; 65
    15d2:	6b ea       	ldi	r22, 0xAB	; 171
    15d4:	84 e5       	ldi	r24, 0x54	; 84
    15d6:	0e 94 07 02 	call	0x40e	; 0x40e <_Z10sensor_sethhh>
    15da:	41 e0       	ldi	r20, 0x01	; 1
    15dc:	6c ea       	ldi	r22, 0xAC	; 172
    15de:	84 e5       	ldi	r24, 0x54	; 84
    15e0:	0e 94 07 02 	call	0x40e	; 0x40e <_Z10sensor_sethhh>
    15e4:	40 e2       	ldi	r20, 0x20	; 32
    15e6:	6d ea       	ldi	r22, 0xAD	; 173
    15e8:	84 e5       	ldi	r24, 0x54	; 84
    15ea:	0e 94 07 02 	call	0x40e	; 0x40e <_Z10sensor_sethhh>
    15ee:	40 e0       	ldi	r20, 0x00	; 0
    15f0:	6e ea       	ldi	r22, 0xAE	; 174
    15f2:	84 e5       	ldi	r24, 0x54	; 84
    15f4:	0e 94 07 02 	call	0x40e	; 0x40e <_Z10sensor_sethhh>
    15f8:	46 e1       	ldi	r20, 0x16	; 22
    15fa:	6f ea       	ldi	r22, 0xAF	; 175
    15fc:	84 e5       	ldi	r24, 0x54	; 84
    15fe:	0e 94 07 02 	call	0x40e	; 0x40e <_Z10sensor_sethhh>
    1602:	41 e0       	ldi	r20, 0x01	; 1
    1604:	60 eb       	ldi	r22, 0xB0	; 176
    1606:	84 e5       	ldi	r24, 0x54	; 84
    1608:	0e 94 07 02 	call	0x40e	; 0x40e <_Z10sensor_sethhh>
    160c:	40 e2       	ldi	r20, 0x20	; 32
    160e:	61 eb       	ldi	r22, 0xB1	; 177
    1610:	84 e5       	ldi	r24, 0x54	; 84
    1612:	0e 94 07 02 	call	0x40e	; 0x40e <_Z10sensor_sethhh>
    1616:	40 e0       	ldi	r20, 0x00	; 0
    1618:	62 eb       	ldi	r22, 0xB2	; 178
    161a:	84 e5       	ldi	r24, 0x54	; 84
    161c:	0e 94 07 02 	call	0x40e	; 0x40e <_Z10sensor_sethhh>
    1620:	40 e1       	ldi	r20, 0x10	; 16
    1622:	63 eb       	ldi	r22, 0xB3	; 179
    1624:	84 e5       	ldi	r24, 0x54	; 84
    1626:	0e 94 07 02 	call	0x40e	; 0x40e <_Z10sensor_sethhh>
    162a:	40 e0       	ldi	r20, 0x00	; 0
    162c:	64 eb       	ldi	r22, 0xB4	; 180
    162e:	84 e5       	ldi	r24, 0x54	; 84
    1630:	0e 94 07 02 	call	0x40e	; 0x40e <_Z10sensor_sethhh>
    1634:	40 ef       	ldi	r20, 0xF0	; 240
    1636:	65 eb       	ldi	r22, 0xB5	; 181
    1638:	84 e5       	ldi	r24, 0x54	; 84
    163a:	0e 94 07 02 	call	0x40e	; 0x40e <_Z10sensor_sethhh>
    163e:	40 e0       	ldi	r20, 0x00	; 0
    1640:	66 eb       	ldi	r22, 0xB6	; 182
    1642:	84 e5       	ldi	r24, 0x54	; 84
    1644:	0e 94 07 02 	call	0x40e	; 0x40e <_Z10sensor_sethhh>
    1648:	4f ed       	ldi	r20, 0xDF	; 223
    164a:	67 eb       	ldi	r22, 0xB7	; 183
    164c:	84 e5       	ldi	r24, 0x54	; 84
    164e:	0e 94 07 02 	call	0x40e	; 0x40e <_Z10sensor_sethhh>
    1652:	4f e3       	ldi	r20, 0x3F	; 63
    1654:	62 e0       	ldi	r22, 0x02	; 2
    1656:	84 e5       	ldi	r24, 0x54	; 84
    1658:	0e 94 07 02 	call	0x40e	; 0x40e <_Z10sensor_sethhh>
    165c:	40 e0       	ldi	r20, 0x00	; 0
    165e:	63 e0       	ldi	r22, 0x03	; 3
    1660:	84 e5       	ldi	r24, 0x54	; 84
    1662:	0e 94 07 02 	call	0x40e	; 0x40e <_Z10sensor_sethhh>
    1666:	40 e1       	ldi	r20, 0x10	; 16
    1668:	60 e0       	ldi	r22, 0x00	; 0
    166a:	85 e5       	ldi	r24, 0x55	; 85
    166c:	0e 94 07 02 	call	0x40e	; 0x40e <_Z10sensor_sethhh>
    1670:	40 e0       	ldi	r20, 0x00	; 0
    1672:	62 e0       	ldi	r22, 0x02	; 2
    1674:	85 e5       	ldi	r24, 0x55	; 85
    1676:	0e 94 07 02 	call	0x40e	; 0x40e <_Z10sensor_sethhh>
    167a:	46 e0       	ldi	r20, 0x06	; 6
    167c:	63 e0       	ldi	r22, 0x03	; 3
    167e:	85 e5       	ldi	r24, 0x55	; 85
    1680:	0e 94 07 02 	call	0x40e	; 0x40e <_Z10sensor_sethhh>
    1684:	40 e0       	ldi	r20, 0x00	; 0
    1686:	64 e0       	ldi	r22, 0x04	; 4
    1688:	85 e5       	ldi	r24, 0x55	; 85
    168a:	0e 94 07 02 	call	0x40e	; 0x40e <_Z10sensor_sethhh>
    168e:	4f e7       	ldi	r20, 0x7F	; 127
    1690:	65 e0       	ldi	r22, 0x05	; 5
    1692:	85 e5       	ldi	r24, 0x55	; 85
    1694:	0e 94 07 02 	call	0x40e	; 0x40e <_Z10sensor_sethhh>
    1698:	40 e8       	ldi	r20, 0x80	; 128
    169a:	65 e2       	ldi	r22, 0x25	; 37
    169c:	80 e5       	ldi	r24, 0x50	; 80
    169e:	0e 94 07 02 	call	0x40e	; 0x40e <_Z10sensor_sethhh>
    16a2:	40 e3       	ldi	r20, 0x30	; 48
    16a4:	6f e0       	ldi	r22, 0x0F	; 15
    16a6:	8a e3       	ldi	r24, 0x3A	; 58
    16a8:	0e 94 07 02 	call	0x40e	; 0x40e <_Z10sensor_sethhh>
    16ac:	48 e2       	ldi	r20, 0x28	; 40
    16ae:	60 e1       	ldi	r22, 0x10	; 16
    16b0:	8a e3       	ldi	r24, 0x3A	; 58
    16b2:	0e 94 07 02 	call	0x40e	; 0x40e <_Z10sensor_sethhh>
    16b6:	40 e3       	ldi	r20, 0x30	; 48
    16b8:	6b e1       	ldi	r22, 0x1B	; 27
    16ba:	8a e3       	ldi	r24, 0x3A	; 58
    16bc:	0e 94 07 02 	call	0x40e	; 0x40e <_Z10sensor_sethhh>
    16c0:	48 e2       	ldi	r20, 0x28	; 40
    16c2:	6e e1       	ldi	r22, 0x1E	; 30
    16c4:	8a e3       	ldi	r24, 0x3A	; 58
    16c6:	0e 94 07 02 	call	0x40e	; 0x40e <_Z10sensor_sethhh>
    16ca:	41 e6       	ldi	r20, 0x61	; 97
    16cc:	61 e1       	ldi	r22, 0x11	; 17
    16ce:	8a e3       	ldi	r24, 0x3A	; 58
    16d0:	0e 94 07 02 	call	0x40e	; 0x40e <_Z10sensor_sethhh>
    16d4:	40 e1       	ldi	r20, 0x10	; 16
    16d6:	6f e1       	ldi	r22, 0x1F	; 31
    16d8:	8a e3       	ldi	r24, 0x3A	; 58
    16da:	0e 94 07 02 	call	0x40e	; 0x40e <_Z10sensor_sethhh>
    16de:	4d ef       	ldi	r20, 0xFD	; 253
    16e0:	68 e8       	ldi	r22, 0x88	; 136
    16e2:	86 e5       	ldi	r24, 0x56	; 86
    16e4:	0e 94 07 02 	call	0x40e	; 0x40e <_Z10sensor_sethhh>
    16e8:	4f ed       	ldi	r20, 0xDF	; 223
    16ea:	69 e8       	ldi	r22, 0x89	; 137
    16ec:	86 e5       	ldi	r24, 0x56	; 86
    16ee:	0e 94 07 02 	call	0x40e	; 0x40e <_Z10sensor_sethhh>
    16f2:	4e ef       	ldi	r20, 0xFE	; 254
    16f4:	6a e8       	ldi	r22, 0x8A	; 138
    16f6:	86 e5       	ldi	r24, 0x56	; 86
    16f8:	0e 94 07 02 	call	0x40e	; 0x40e <_Z10sensor_sethhh>
    16fc:	4f ee       	ldi	r20, 0xEF	; 239
    16fe:	6b e8       	ldi	r22, 0x8B	; 139
    1700:	86 e5       	ldi	r24, 0x56	; 86
    1702:	0e 94 07 02 	call	0x40e	; 0x40e <_Z10sensor_sethhh>
    1706:	4e ef       	ldi	r20, 0xFE	; 254
    1708:	6c e8       	ldi	r22, 0x8C	; 140
    170a:	86 e5       	ldi	r24, 0x56	; 86
    170c:	0e 94 07 02 	call	0x40e	; 0x40e <_Z10sensor_sethhh>
    1710:	4f ee       	ldi	r20, 0xEF	; 239
    1712:	6d e8       	ldi	r22, 0x8D	; 141
    1714:	86 e5       	ldi	r24, 0x56	; 86
    1716:	0e 94 07 02 	call	0x40e	; 0x40e <_Z10sensor_sethhh>
    171a:	4a ea       	ldi	r20, 0xAA	; 170
    171c:	6e e8       	ldi	r22, 0x8E	; 142
    171e:	86 e5       	ldi	r24, 0x56	; 86
    1720:	0e 94 07 02 	call	0x40e	; 0x40e <_Z10sensor_sethhh>
    1724:	4a ea       	ldi	r20, 0xAA	; 170
    1726:	6f e8       	ldi	r22, 0x8F	; 143
    1728:	86 e5       	ldi	r24, 0x56	; 86
    172a:	0e 94 07 02 	call	0x40e	; 0x40e <_Z10sensor_sethhh>
    172e:	4f ef       	ldi	r20, 0xFF	; 255
    1730:	6f ef       	ldi	r22, 0xFF	; 255
    1732:	8f ef       	ldi	r24, 0xFF	; 255
    1734:	0c 94 07 02 	jmp	0x40e	; 0x40e <_Z10sensor_sethhh>
    1738:	08 95       	ret

0000173a <_Z20reg_set_jpeg_capturev>:
    173a:	47 e0       	ldi	r20, 0x07	; 7
    173c:	63 e0       	ldi	r22, 0x03	; 3
    173e:	85 e3       	ldi	r24, 0x35	; 53
    1740:	0e 94 07 02 	call	0x40e	; 0x40e <_Z10sensor_sethhh>
    1744:	40 e0       	ldi	r20, 0x00	; 0
    1746:	60 e0       	ldi	r22, 0x00	; 0
    1748:	80 e3       	ldi	r24, 0x30	; 48
    174a:	0e 94 07 02 	call	0x40e	; 0x40e <_Z10sensor_sethhh>
    174e:	40 e0       	ldi	r20, 0x00	; 0
    1750:	61 e0       	ldi	r22, 0x01	; 1
    1752:	80 e3       	ldi	r24, 0x30	; 48
    1754:	0e 94 07 02 	call	0x40e	; 0x40e <_Z10sensor_sethhh>
    1758:	40 e0       	ldi	r20, 0x00	; 0
    175a:	62 e0       	ldi	r22, 0x02	; 2
    175c:	80 e3       	ldi	r24, 0x30	; 48
    175e:	0e 94 07 02 	call	0x40e	; 0x40e <_Z10sensor_sethhh>
    1762:	40 e0       	ldi	r20, 0x00	; 0
    1764:	63 e0       	ldi	r22, 0x03	; 3
    1766:	80 e3       	ldi	r24, 0x30	; 48
    1768:	0e 94 07 02 	call	0x40e	; 0x40e <_Z10sensor_sethhh>
    176c:	4f ef       	ldi	r20, 0xFF	; 255
    176e:	65 e0       	ldi	r22, 0x05	; 5
    1770:	80 e3       	ldi	r24, 0x30	; 48
    1772:	0e 94 07 02 	call	0x40e	; 0x40e <_Z10sensor_sethhh>
    1776:	4f ef       	ldi	r20, 0xFF	; 255
    1778:	66 e0       	ldi	r22, 0x06	; 6
    177a:	80 e3       	ldi	r24, 0x30	; 48
    177c:	0e 94 07 02 	call	0x40e	; 0x40e <_Z10sensor_sethhh>
    1780:	4f e3       	ldi	r20, 0x3F	; 63
    1782:	67 e0       	ldi	r22, 0x07	; 7
    1784:	80 e3       	ldi	r24, 0x30	; 48
    1786:	0e 94 07 02 	call	0x40e	; 0x40e <_Z10sensor_sethhh>
    178a:	47 e0       	ldi	r20, 0x07	; 7
    178c:	6c e0       	ldi	r22, 0x0C	; 12
    178e:	85 e3       	ldi	r24, 0x35	; 53
    1790:	0e 94 07 02 	call	0x40e	; 0x40e <_Z10sensor_sethhh>
    1794:	40 ed       	ldi	r20, 0xD0	; 208
    1796:	6d e0       	ldi	r22, 0x0D	; 13
    1798:	85 e3       	ldi	r24, 0x35	; 53
    179a:	0e 94 07 02 	call	0x40e	; 0x40e <_Z10sensor_sethhh>
    179e:	44 ee       	ldi	r20, 0xE4	; 228
    17a0:	62 e0       	ldi	r22, 0x02	; 2
    17a2:	86 e3       	ldi	r24, 0x36	; 54
    17a4:	0e 94 07 02 	call	0x40e	; 0x40e <_Z10sensor_sethhh>
    17a8:	4c ea       	ldi	r20, 0xAC	; 172
    17aa:	62 e1       	ldi	r22, 0x12	; 18
    17ac:	86 e3       	ldi	r24, 0x36	; 54
    17ae:	0e 94 07 02 	call	0x40e	; 0x40e <_Z10sensor_sethhh>
    17b2:	44 e4       	ldi	r20, 0x44	; 68
    17b4:	63 e1       	ldi	r22, 0x13	; 19
    17b6:	86 e3       	ldi	r24, 0x36	; 54
    17b8:	0e 94 07 02 	call	0x40e	; 0x40e <_Z10sensor_sethhh>
    17bc:	47 e2       	ldi	r20, 0x27	; 39
    17be:	61 e2       	ldi	r22, 0x21	; 33
    17c0:	86 e3       	ldi	r24, 0x36	; 54
    17c2:	0e 94 07 02 	call	0x40e	; 0x40e <_Z10sensor_sethhh>
    17c6:	48 e0       	ldi	r20, 0x08	; 8
    17c8:	62 e2       	ldi	r22, 0x22	; 34
    17ca:	86 e3       	ldi	r24, 0x36	; 54
    17cc:	0e 94 07 02 	call	0x40e	; 0x40e <_Z10sensor_sethhh>
    17d0:	42 e2       	ldi	r20, 0x22	; 34
    17d2:	63 e2       	ldi	r22, 0x23	; 35
    17d4:	86 e3       	ldi	r24, 0x36	; 54
    17d6:	0e 94 07 02 	call	0x40e	; 0x40e <_Z10sensor_sethhh>
    17da:	40 e6       	ldi	r20, 0x60	; 96
    17dc:	64 e0       	ldi	r22, 0x04	; 4
    17de:	86 e3       	ldi	r24, 0x36	; 54
    17e0:	0e 94 07 02 	call	0x40e	; 0x40e <_Z10sensor_sethhh>
    17e4:	4a ed       	ldi	r20, 0xDA	; 218
    17e6:	65 e0       	ldi	r22, 0x05	; 5
    17e8:	87 e3       	ldi	r24, 0x37	; 55
    17ea:	0e 94 07 02 	call	0x40e	; 0x40e <_Z10sensor_sethhh>
    17ee:	40 e8       	ldi	r20, 0x80	; 128
    17f0:	6a e0       	ldi	r22, 0x0A	; 10
    17f2:	87 e3       	ldi	r24, 0x37	; 55
    17f4:	0e 94 07 02 	call	0x40e	; 0x40e <_Z10sensor_sethhh>
    17f8:	4a e8       	ldi	r20, 0x8A	; 138
    17fa:	61 e0       	ldi	r22, 0x01	; 1
    17fc:	88 e3       	ldi	r24, 0x38	; 56
    17fe:	0e 94 07 02 	call	0x40e	; 0x40e <_Z10sensor_sethhh>
    1802:	4a e0       	ldi	r20, 0x0A	; 10
    1804:	63 e0       	ldi	r22, 0x03	; 3
    1806:	88 e3       	ldi	r24, 0x38	; 56
    1808:	0e 94 07 02 	call	0x40e	; 0x40e <_Z10sensor_sethhh>
    180c:	4a e0       	ldi	r20, 0x0A	; 10
    180e:	64 e0       	ldi	r22, 0x04	; 4
    1810:	88 e3       	ldi	r24, 0x38	; 56
    1812:	0e 94 07 02 	call	0x40e	; 0x40e <_Z10sensor_sethhh>
    1816:	40 e2       	ldi	r20, 0x20	; 32
    1818:	65 e0       	ldi	r22, 0x05	; 5
    181a:	88 e3       	ldi	r24, 0x38	; 56
    181c:	0e 94 07 02 	call	0x40e	; 0x40e <_Z10sensor_sethhh>
    1820:	47 e0       	ldi	r20, 0x07	; 7
    1822:	66 e0       	ldi	r22, 0x06	; 6
    1824:	88 e3       	ldi	r24, 0x38	; 56
    1826:	0e 94 07 02 	call	0x40e	; 0x40e <_Z10sensor_sethhh>
    182a:	48 e9       	ldi	r20, 0x98	; 152
    182c:	67 e0       	ldi	r22, 0x07	; 7
    182e:	88 e3       	ldi	r24, 0x38	; 56
    1830:	0e 94 07 02 	call	0x40e	; 0x40e <_Z10sensor_sethhh>
    1834:	4a e0       	ldi	r20, 0x0A	; 10
    1836:	68 e0       	ldi	r22, 0x08	; 8
    1838:	88 e3       	ldi	r24, 0x38	; 56
    183a:	0e 94 07 02 	call	0x40e	; 0x40e <_Z10sensor_sethhh>
    183e:	40 e2       	ldi	r20, 0x20	; 32
    1840:	69 e0       	ldi	r22, 0x09	; 9
    1842:	88 e3       	ldi	r24, 0x38	; 56
    1844:	0e 94 07 02 	call	0x40e	; 0x40e <_Z10sensor_sethhh>
    1848:	47 e0       	ldi	r20, 0x07	; 7
    184a:	6a e0       	ldi	r22, 0x0A	; 10
    184c:	88 e3       	ldi	r24, 0x38	; 56
    184e:	0e 94 07 02 	call	0x40e	; 0x40e <_Z10sensor_sethhh>
    1852:	48 e9       	ldi	r20, 0x98	; 152
    1854:	6b e0       	ldi	r22, 0x0B	; 11
    1856:	88 e3       	ldi	r24, 0x38	; 56
    1858:	0e 94 07 02 	call	0x40e	; 0x40e <_Z10sensor_sethhh>
    185c:	4c e0       	ldi	r20, 0x0C	; 12
    185e:	6c e0       	ldi	r22, 0x0C	; 12
    1860:	88 e3       	ldi	r24, 0x38	; 56
    1862:	0e 94 07 02 	call	0x40e	; 0x40e <_Z10sensor_sethhh>
    1866:	40 e8       	ldi	r20, 0x80	; 128
    1868:	6d e0       	ldi	r22, 0x0D	; 13
    186a:	88 e3       	ldi	r24, 0x38	; 56
    186c:	0e 94 07 02 	call	0x40e	; 0x40e <_Z10sensor_sethhh>
    1870:	47 e0       	ldi	r20, 0x07	; 7
    1872:	6e e0       	ldi	r22, 0x0E	; 14
    1874:	88 e3       	ldi	r24, 0x38	; 56
    1876:	0e 94 07 02 	call	0x40e	; 0x40e <_Z10sensor_sethhh>
    187a:	40 ed       	ldi	r20, 0xD0	; 208
    187c:	6f e0       	ldi	r22, 0x0F	; 15
    187e:	88 e3       	ldi	r24, 0x38	; 56
    1880:	0e 94 07 02 	call	0x40e	; 0x40e <_Z10sensor_sethhh>
    1884:	42 ec       	ldi	r20, 0xC2	; 194
    1886:	60 e1       	ldi	r22, 0x10	; 16
    1888:	88 e3       	ldi	r24, 0x38	; 56
    188a:	0e 94 07 02 	call	0x40e	; 0x40e <_Z10sensor_sethhh>
    188e:	44 e4       	ldi	r20, 0x44	; 68
    1890:	65 e1       	ldi	r22, 0x15	; 21
    1892:	88 e3       	ldi	r24, 0x38	; 56
    1894:	0e 94 07 02 	call	0x40e	; 0x40e <_Z10sensor_sethhh>
    1898:	48 ec       	ldi	r20, 0xC8	; 200
    189a:	68 e1       	ldi	r22, 0x18	; 24
    189c:	88 e3       	ldi	r24, 0x38	; 56
    189e:	0e 94 07 02 	call	0x40e	; 0x40e <_Z10sensor_sethhh>
    18a2:	41 e0       	ldi	r20, 0x01	; 1
    18a4:	64 e2       	ldi	r22, 0x24	; 36
    18a6:	88 e3       	ldi	r24, 0x38	; 56
    18a8:	0e 94 07 02 	call	0x40e	; 0x40e <_Z10sensor_sethhh>
    18ac:	4a e0       	ldi	r20, 0x0A	; 10
    18ae:	67 e2       	ldi	r22, 0x27	; 39
    18b0:	88 e3       	ldi	r24, 0x38	; 56
    18b2:	0e 94 07 02 	call	0x40e	; 0x40e <_Z10sensor_sethhh>
    18b6:	48 e7       	ldi	r20, 0x78	; 120
    18b8:	60 e0       	ldi	r22, 0x00	; 0
    18ba:	8a e3       	ldi	r24, 0x3A	; 58
    18bc:	0e 94 07 02 	call	0x40e	; 0x40e <_Z10sensor_sethhh>
    18c0:	40 e1       	ldi	r20, 0x10	; 16
    18c2:	6d e0       	ldi	r22, 0x0D	; 13
    18c4:	8a e3       	ldi	r24, 0x3A	; 58
    18c6:	0e 94 07 02 	call	0x40e	; 0x40e <_Z10sensor_sethhh>
    18ca:	4d e0       	ldi	r20, 0x0D	; 13
    18cc:	6e e0       	ldi	r22, 0x0E	; 14
    18ce:	8a e3       	ldi	r24, 0x3A	; 58
    18d0:	0e 94 07 02 	call	0x40e	; 0x40e <_Z10sensor_sethhh>
    18d4:	42 e3       	ldi	r20, 0x32	; 50
    18d6:	60 e1       	ldi	r22, 0x10	; 16
    18d8:	8a e3       	ldi	r24, 0x3A	; 58
    18da:	0e 94 07 02 	call	0x40e	; 0x40e <_Z10sensor_sethhh>
    18de:	4c e3       	ldi	r20, 0x3C	; 60
    18e0:	6b e1       	ldi	r22, 0x1B	; 27
    18e2:	8a e3       	ldi	r24, 0x3A	; 58
    18e4:	0e 94 07 02 	call	0x40e	; 0x40e <_Z10sensor_sethhh>
    18e8:	42 e3       	ldi	r20, 0x32	; 50
    18ea:	6e e1       	ldi	r22, 0x1E	; 30
    18ec:	8a e3       	ldi	r24, 0x3A	; 58
    18ee:	0e 94 07 02 	call	0x40e	; 0x40e <_Z10sensor_sethhh>
    18f2:	40 e8       	ldi	r20, 0x80	; 128
    18f4:	61 e1       	ldi	r22, 0x11	; 17
    18f6:	8a e3       	ldi	r24, 0x3A	; 58
    18f8:	0e 94 07 02 	call	0x40e	; 0x40e <_Z10sensor_sethhh>
    18fc:	40 e2       	ldi	r20, 0x20	; 32
    18fe:	6f e1       	ldi	r22, 0x1F	; 31
    1900:	8a e3       	ldi	r24, 0x3A	; 58
    1902:	0e 94 07 02 	call	0x40e	; 0x40e <_Z10sensor_sethhh>
    1906:	48 e7       	ldi	r20, 0x78	; 120
    1908:	60 e0       	ldi	r22, 0x00	; 0
    190a:	8a e3       	ldi	r24, 0x3A	; 58
    190c:	0e 94 07 02 	call	0x40e	; 0x40e <_Z10sensor_sethhh>
    1910:	45 e3       	ldi	r20, 0x35	; 53
    1912:	6b e0       	ldi	r22, 0x0B	; 11
    1914:	86 e4       	ldi	r24, 0x46	; 70
    1916:	0e 94 07 02 	call	0x40e	; 0x40e <_Z10sensor_sethhh>
    191a:	40 e0       	ldi	r20, 0x00	; 0
    191c:	6d e1       	ldi	r22, 0x1D	; 29
    191e:	87 e4       	ldi	r24, 0x47	; 71
    1920:	0e 94 07 02 	call	0x40e	; 0x40e <_Z10sensor_sethhh>
    1924:	43 e0       	ldi	r20, 0x03	; 3
    1926:	63 e1       	ldi	r22, 0x13	; 19
    1928:	87 e4       	ldi	r24, 0x47	; 71
    192a:	0e 94 07 02 	call	0x40e	; 0x40e <_Z10sensor_sethhh>
    192e:	40 e5       	ldi	r20, 0x50	; 80
    1930:	6c e1       	ldi	r22, 0x1C	; 28
    1932:	87 e4       	ldi	r24, 0x47	; 71
    1934:	0e 94 07 02 	call	0x40e	; 0x40e <_Z10sensor_sethhh>
    1938:	4a e0       	ldi	r20, 0x0A	; 10
    193a:	62 e8       	ldi	r22, 0x82	; 130
    193c:	86 e5       	ldi	r24, 0x56	; 86
    193e:	0e 94 07 02 	call	0x40e	; 0x40e <_Z10sensor_sethhh>
    1942:	40 e2       	ldi	r20, 0x20	; 32
    1944:	63 e8       	ldi	r22, 0x83	; 131
    1946:	86 e5       	ldi	r24, 0x56	; 86
    1948:	0e 94 07 02 	call	0x40e	; 0x40e <_Z10sensor_sethhh>
    194c:	47 e0       	ldi	r20, 0x07	; 7
    194e:	66 e8       	ldi	r22, 0x86	; 134
    1950:	86 e5       	ldi	r24, 0x56	; 86
    1952:	0e 94 07 02 	call	0x40e	; 0x40e <_Z10sensor_sethhh>
    1956:	48 e9       	ldi	r20, 0x98	; 152
    1958:	67 e8       	ldi	r22, 0x87	; 135
    195a:	86 e5       	ldi	r24, 0x56	; 86
    195c:	0e 94 07 02 	call	0x40e	; 0x40e <_Z10sensor_sethhh>
    1960:	4f e4       	ldi	r20, 0x4F	; 79
    1962:	61 e0       	ldi	r22, 0x01	; 1
    1964:	80 e5       	ldi	r24, 0x50	; 80
    1966:	0e 94 07 02 	call	0x40e	; 0x40e <_Z10sensor_sethhh>
    196a:	40 e0       	ldi	r20, 0x00	; 0
    196c:	6b e9       	ldi	r22, 0x9B	; 155
    196e:	88 e5       	ldi	r24, 0x58	; 88
    1970:	0e 94 07 02 	call	0x40e	; 0x40e <_Z10sensor_sethhh>
    1974:	40 ec       	ldi	r20, 0xC0	; 192
    1976:	6a e9       	ldi	r22, 0x9A	; 154
    1978:	88 e5       	ldi	r24, 0x58	; 88
    197a:	0e 94 07 02 	call	0x40e	; 0x40e <_Z10sensor_sethhh>
    197e:	44 e0       	ldi	r20, 0x04	; 4
    1980:	67 e0       	ldi	r22, 0x07	; 7
    1982:	84 e4       	ldi	r24, 0x44	; 68
    1984:	0e 94 07 02 	call	0x40e	; 0x40e <_Z10sensor_sethhh>
    1988:	40 e0       	ldi	r20, 0x00	; 0
    198a:	6b e9       	ldi	r22, 0x9B	; 155
    198c:	88 e5       	ldi	r24, 0x58	; 88
    198e:	0e 94 07 02 	call	0x40e	; 0x40e <_Z10sensor_sethhh>
    1992:	40 ec       	ldi	r20, 0xC0	; 192
    1994:	6a e9       	ldi	r22, 0x9A	; 154
    1996:	88 e5       	ldi	r24, 0x58	; 88
    1998:	0e 94 07 02 	call	0x40e	; 0x40e <_Z10sensor_sethhh>
    199c:	4c e0       	ldi	r20, 0x0C	; 12
    199e:	62 e0       	ldi	r22, 0x02	; 2
    19a0:	80 e3       	ldi	r24, 0x30	; 48
    19a2:	0e 94 07 02 	call	0x40e	; 0x40e <_Z10sensor_sethhh>
    19a6:	40 e0       	ldi	r20, 0x00	; 0
    19a8:	62 e0       	ldi	r22, 0x02	; 2
    19aa:	80 e3       	ldi	r24, 0x30	; 48
    19ac:	0e 94 07 02 	call	0x40e	; 0x40e <_Z10sensor_sethhh>
    19b0:	40 e0       	ldi	r20, 0x00	; 0
    19b2:	63 e0       	ldi	r22, 0x03	; 3
    19b4:	85 e3       	ldi	r24, 0x35	; 53
    19b6:	0e 94 07 02 	call	0x40e	; 0x40e <_Z10sensor_sethhh>
    19ba:	40 e1       	ldi	r20, 0x10	; 16
    19bc:	60 e1       	ldi	r22, 0x10	; 16
    19be:	80 e3       	ldi	r24, 0x30	; 48
    19c0:	0e 94 07 02 	call	0x40e	; 0x40e <_Z10sensor_sethhh>
    19c4:	48 e0       	ldi	r20, 0x08	; 8
    19c6:	61 e1       	ldi	r22, 0x11	; 17
    19c8:	80 e3       	ldi	r24, 0x30	; 48
    19ca:	0e 94 07 02 	call	0x40e	; 0x40e <_Z10sensor_sethhh>
    19ce:	4f ef       	ldi	r20, 0xFF	; 255
    19d0:	60 e0       	ldi	r22, 0x00	; 0
    19d2:	80 e5       	ldi	r24, 0x50	; 80
    19d4:	0e 94 07 02 	call	0x40e	; 0x40e <_Z10sensor_sethhh>
    19d8:	4f ef       	ldi	r20, 0xFF	; 255
    19da:	6f ef       	ldi	r22, 0xFF	; 255
    19dc:	8f ef       	ldi	r24, 0xFF	; 255
    19de:	0c 94 07 02 	jmp	0x40e	; 0x40e <_Z10sensor_sethhh>
    19e2:	08 95       	ret

000019e4 <_Z15reg_set_320x240v>:
    19e4:	41 e0       	ldi	r20, 0x01	; 1
    19e6:	60 e0       	ldi	r22, 0x00	; 0
    19e8:	88 e3       	ldi	r24, 0x38	; 56
    19ea:	0e 94 07 02 	call	0x40e	; 0x40e <_Z10sensor_sethhh>
    19ee:	48 ea       	ldi	r20, 0xA8	; 168
    19f0:	61 e0       	ldi	r22, 0x01	; 1
    19f2:	88 e3       	ldi	r24, 0x38	; 56
    19f4:	0e 94 07 02 	call	0x40e	; 0x40e <_Z10sensor_sethhh>
    19f8:	40 e0       	ldi	r20, 0x00	; 0
    19fa:	62 e0       	ldi	r22, 0x02	; 2
    19fc:	88 e3       	ldi	r24, 0x38	; 56
    19fe:	0e 94 07 02 	call	0x40e	; 0x40e <_Z10sensor_sethhh>
    1a02:	4a e0       	ldi	r20, 0x0A	; 10
    1a04:	63 e0       	ldi	r22, 0x03	; 3
    1a06:	88 e3       	ldi	r24, 0x38	; 56
    1a08:	0e 94 07 02 	call	0x40e	; 0x40e <_Z10sensor_sethhh>
    1a0c:	4a e0       	ldi	r20, 0x0A	; 10
    1a0e:	64 e0       	ldi	r22, 0x04	; 4
    1a10:	88 e3       	ldi	r24, 0x38	; 56
    1a12:	0e 94 07 02 	call	0x40e	; 0x40e <_Z10sensor_sethhh>
    1a16:	40 e2       	ldi	r20, 0x20	; 32
    1a18:	65 e0       	ldi	r22, 0x05	; 5
    1a1a:	88 e3       	ldi	r24, 0x38	; 56
    1a1c:	0e 94 07 02 	call	0x40e	; 0x40e <_Z10sensor_sethhh>
    1a20:	47 e0       	ldi	r20, 0x07	; 7
    1a22:	66 e0       	ldi	r22, 0x06	; 6
    1a24:	88 e3       	ldi	r24, 0x38	; 56
    1a26:	0e 94 07 02 	call	0x40e	; 0x40e <_Z10sensor_sethhh>
    1a2a:	48 e9       	ldi	r20, 0x98	; 152
    1a2c:	67 e0       	ldi	r22, 0x07	; 7
    1a2e:	88 e3       	ldi	r24, 0x38	; 56
    1a30:	0e 94 07 02 	call	0x40e	; 0x40e <_Z10sensor_sethhh>
    1a34:	41 e0       	ldi	r20, 0x01	; 1
    1a36:	68 e0       	ldi	r22, 0x08	; 8
    1a38:	88 e3       	ldi	r24, 0x38	; 56
    1a3a:	0e 94 07 02 	call	0x40e	; 0x40e <_Z10sensor_sethhh>
    1a3e:	40 e4       	ldi	r20, 0x40	; 64
    1a40:	69 e0       	ldi	r22, 0x09	; 9
    1a42:	88 e3       	ldi	r24, 0x38	; 56
    1a44:	0e 94 07 02 	call	0x40e	; 0x40e <_Z10sensor_sethhh>
    1a48:	40 e0       	ldi	r20, 0x00	; 0
    1a4a:	6a e0       	ldi	r22, 0x0A	; 10
    1a4c:	88 e3       	ldi	r24, 0x38	; 56
    1a4e:	0e 94 07 02 	call	0x40e	; 0x40e <_Z10sensor_sethhh>
    1a52:	40 ef       	ldi	r20, 0xF0	; 240
    1a54:	6b e0       	ldi	r22, 0x0B	; 11
    1a56:	88 e3       	ldi	r24, 0x38	; 56
    1a58:	0e 94 07 02 	call	0x40e	; 0x40e <_Z10sensor_sethhh>
    1a5c:	4c e0       	ldi	r20, 0x0C	; 12
    1a5e:	6c e0       	ldi	r22, 0x0C	; 12
    1a60:	88 e3       	ldi	r24, 0x38	; 56
    1a62:	0e 94 07 02 	call	0x40e	; 0x40e <_Z10sensor_sethhh>
    1a66:	40 e8       	ldi	r20, 0x80	; 128
    1a68:	6d e0       	ldi	r22, 0x0D	; 13
    1a6a:	88 e3       	ldi	r24, 0x38	; 56
    1a6c:	0e 94 07 02 	call	0x40e	; 0x40e <_Z10sensor_sethhh>
    1a70:	47 e0       	ldi	r20, 0x07	; 7
    1a72:	6e e0       	ldi	r22, 0x0E	; 14
    1a74:	88 e3       	ldi	r24, 0x38	; 56
    1a76:	0e 94 07 02 	call	0x40e	; 0x40e <_Z10sensor_sethhh>
    1a7a:	40 ed       	ldi	r20, 0xD0	; 208
    1a7c:	6f e0       	ldi	r22, 0x0F	; 15
    1a7e:	88 e3       	ldi	r24, 0x38	; 56
    1a80:	0e 94 07 02 	call	0x40e	; 0x40e <_Z10sensor_sethhh>
    1a84:	4f e7       	ldi	r20, 0x7F	; 127
    1a86:	61 e0       	ldi	r22, 0x01	; 1
    1a88:	80 e5       	ldi	r24, 0x50	; 80
    1a8a:	0e 94 07 02 	call	0x40e	; 0x40e <_Z10sensor_sethhh>
    1a8e:	40 e0       	ldi	r20, 0x00	; 0
    1a90:	60 e8       	ldi	r22, 0x80	; 128
    1a92:	86 e5       	ldi	r24, 0x56	; 86
    1a94:	0e 94 07 02 	call	0x40e	; 0x40e <_Z10sensor_sethhh>
    1a98:	40 e0       	ldi	r20, 0x00	; 0
    1a9a:	61 e8       	ldi	r22, 0x81	; 129
    1a9c:	86 e5       	ldi	r24, 0x56	; 86
    1a9e:	0e 94 07 02 	call	0x40e	; 0x40e <_Z10sensor_sethhh>
    1aa2:	4a e0       	ldi	r20, 0x0A	; 10
    1aa4:	62 e8       	ldi	r22, 0x82	; 130
    1aa6:	86 e5       	ldi	r24, 0x56	; 86
    1aa8:	0e 94 07 02 	call	0x40e	; 0x40e <_Z10sensor_sethhh>
    1aac:	40 e2       	ldi	r20, 0x20	; 32
    1aae:	63 e8       	ldi	r22, 0x83	; 131
    1ab0:	86 e5       	ldi	r24, 0x56	; 86
    1ab2:	0e 94 07 02 	call	0x40e	; 0x40e <_Z10sensor_sethhh>
    1ab6:	40 e0       	ldi	r20, 0x00	; 0
    1ab8:	64 e8       	ldi	r22, 0x84	; 132
    1aba:	86 e5       	ldi	r24, 0x56	; 86
    1abc:	0e 94 07 02 	call	0x40e	; 0x40e <_Z10sensor_sethhh>
    1ac0:	40 e0       	ldi	r20, 0x00	; 0
    1ac2:	65 e8       	ldi	r22, 0x85	; 133
    1ac4:	86 e5       	ldi	r24, 0x56	; 86
    1ac6:	0e 94 07 02 	call	0x40e	; 0x40e <_Z10sensor_sethhh>
    1aca:	47 e0       	ldi	r20, 0x07	; 7
    1acc:	66 e8       	ldi	r22, 0x86	; 134
    1ace:	86 e5       	ldi	r24, 0x56	; 86
    1ad0:	0e 94 07 02 	call	0x40e	; 0x40e <_Z10sensor_sethhh>
    1ad4:	48 e9       	ldi	r20, 0x98	; 152
    1ad6:	67 e8       	ldi	r22, 0x87	; 135
    1ad8:	86 e5       	ldi	r24, 0x56	; 86
    1ada:	0e 94 07 02 	call	0x40e	; 0x40e <_Z10sensor_sethhh>
    1ade:	4f ef       	ldi	r20, 0xFF	; 255
    1ae0:	6f ef       	ldi	r22, 0xFF	; 255
    1ae2:	8f ef       	ldi	r24, 0xFF	; 255
    1ae4:	0c 94 07 02 	jmp	0x40e	; 0x40e <_Z10sensor_sethhh>
    1ae8:	08 95       	ret

00001aea <_Z7camInith>:
    1aea:	cf 93       	push	r28
    1aec:	c8 2f       	mov	r28, r24
    1aee:	82 30       	cpi	r24, 0x02	; 2
    1af0:	21 f4       	brne	.+8      	; 0x1afa <_Z7camInith+0x10>
    1af2:	85 b1       	in	r24, 0x05	; 5
    1af4:	8f 7e       	andi	r24, 0xEF	; 239
    1af6:	85 b9       	out	0x05, r24	; 5
    1af8:	05 c0       	rjmp	.+10     	; 0x1b04 <_Z7camInith+0x1a>
    1afa:	83 30       	cpi	r24, 0x03	; 3
    1afc:	19 f4       	brne	.+6      	; 0x1b04 <_Z7camInith+0x1a>
    1afe:	85 b1       	in	r24, 0x05	; 5
    1b00:	80 61       	ori	r24, 0x10	; 16
    1b02:	85 b9       	out	0x05, r24	; 5
    1b04:	4c 2f       	mov	r20, r28
    1b06:	60 e8       	ldi	r22, 0x80	; 128
    1b08:	87 e8       	ldi	r24, 0x87	; 135
    1b0a:	0e 94 57 01 	call	0x2ae	; 0x2ae <_Z8writeSPIhhh>
    1b0e:	4c 2f       	mov	r20, r28
    1b10:	60 e0       	ldi	r22, 0x00	; 0
    1b12:	87 e8       	ldi	r24, 0x87	; 135
    1b14:	0e 94 57 01 	call	0x2ae	; 0x2ae <_Z8writeSPIhhh>
    1b18:	40 e8       	ldi	r20, 0x80	; 128
    1b1a:	68 e0       	ldi	r22, 0x08	; 8
    1b1c:	80 e3       	ldi	r24, 0x30	; 48
    1b1e:	0e 94 07 02 	call	0x40e	; 0x40e <_Z10sensor_sethhh>
    1b22:	0e 94 2b 02 	call	0x456	; 0x456 <_Z12reg_set_jpegv>
    1b26:	09 de       	rcall	.-1006   	; 0x173a <_Z20reg_set_jpeg_capturev>
    1b28:	5d df       	rcall	.-326    	; 0x19e4 <_Z15reg_set_320x240v>
    1b2a:	87 ea       	ldi	r24, 0xA7	; 167
    1b2c:	91 e6       	ldi	r25, 0x61	; 97
    1b2e:	01 97       	sbiw	r24, 0x01	; 1
    1b30:	f1 f7       	brne	.-4      	; 0x1b2e <_Z7camInith+0x44>
    1b32:	00 c0       	rjmp	.+0      	; 0x1b34 <_Z7camInith+0x4a>
    1b34:	00 00       	nop
    1b36:	48 ea       	ldi	r20, 0xA8	; 168
    1b38:	68 e1       	ldi	r22, 0x18	; 24
    1b3a:	88 e3       	ldi	r24, 0x38	; 56
    1b3c:	0e 94 07 02 	call	0x40e	; 0x40e <_Z10sensor_sethhh>
    1b40:	40 e1       	ldi	r20, 0x10	; 16
    1b42:	61 e2       	ldi	r22, 0x21	; 33
    1b44:	86 e3       	ldi	r24, 0x36	; 54
    1b46:	0e 94 07 02 	call	0x40e	; 0x40e <_Z10sensor_sethhh>
    1b4a:	40 eb       	ldi	r20, 0xB0	; 176
    1b4c:	61 e0       	ldi	r22, 0x01	; 1
    1b4e:	88 e3       	ldi	r24, 0x38	; 56
    1b50:	0e 94 07 02 	call	0x40e	; 0x40e <_Z10sensor_sethhh>
    1b54:	48 e0       	ldi	r20, 0x08	; 8
    1b56:	67 e0       	ldi	r22, 0x07	; 7
    1b58:	84 e4       	ldi	r24, 0x44	; 68
    1b5a:	0e 94 07 02 	call	0x40e	; 0x40e <_Z10sensor_sethhh>
    1b5e:	40 e0       	ldi	r20, 0x00	; 0
    1b60:	68 e8       	ldi	r22, 0x88	; 136
    1b62:	88 e5       	ldi	r24, 0x58	; 88
    1b64:	0e 94 07 02 	call	0x40e	; 0x40e <_Z10sensor_sethhh>
    1b68:	4f ef       	ldi	r20, 0xFF	; 255
    1b6a:	60 e0       	ldi	r22, 0x00	; 0
    1b6c:	80 e5       	ldi	r24, 0x50	; 80
    1b6e:	0e 94 07 02 	call	0x40e	; 0x40e <_Z10sensor_sethhh>
    1b72:	4c 2f       	mov	r20, r28
    1b74:	62 e0       	ldi	r22, 0x02	; 2
    1b76:	83 e0       	ldi	r24, 0x03	; 3
    1b78:	0e 94 19 02 	call	0x432	; 0x432 <_Z7set_bithhh>
    1b7c:	4c 2f       	mov	r20, r28
    1b7e:	60 e0       	ldi	r22, 0x00	; 0
    1b80:	81 e8       	ldi	r24, 0x81	; 129
    1b82:	0e 94 57 01 	call	0x2ae	; 0x2ae <_Z8writeSPIhhh>
    1b86:	cf 91       	pop	r28
    1b88:	08 95       	ret

00001b8a <_Z8sd_writehPKc>:
    1b8a:	af 92       	push	r10
    1b8c:	bf 92       	push	r11
    1b8e:	cf 92       	push	r12
    1b90:	df 92       	push	r13
    1b92:	ef 92       	push	r14
    1b94:	ff 92       	push	r15
    1b96:	0f 93       	push	r16
    1b98:	1f 93       	push	r17
    1b9a:	cf 93       	push	r28
    1b9c:	df 93       	push	r29
    1b9e:	cd b7       	in	r28, 0x3d	; 61
    1ba0:	de b7       	in	r29, 0x3e	; 62
    1ba2:	c2 50       	subi	r28, 0x02	; 2
    1ba4:	d1 40       	sbci	r29, 0x01	; 1
    1ba6:	0f b6       	in	r0, 0x3f	; 63
    1ba8:	f8 94       	cli
    1baa:	de bf       	out	0x3e, r29	; 62
    1bac:	0f be       	out	0x3f, r0	; 63
    1bae:	cd bf       	out	0x3d, r28	; 61
    1bb0:	b8 2e       	mov	r11, r24
    1bb2:	6b 01       	movw	r12, r22
    1bb4:	8f e4       	ldi	r24, 0x4F	; 79
    1bb6:	93 ec       	ldi	r25, 0xC3	; 195
    1bb8:	01 97       	sbiw	r24, 0x01	; 1
    1bba:	f1 f7       	brne	.-4      	; 0x1bb8 <_Z8sd_writehPKc+0x2e>
    1bbc:	00 c0       	rjmp	.+0      	; 0x1bbe <_Z8sd_writehPKc+0x34>
    1bbe:	00 00       	nop
    1bc0:	64 ec       	ldi	r22, 0xC4	; 196
    1bc2:	71 e0       	ldi	r23, 0x01	; 1
    1bc4:	80 e0       	ldi	r24, 0x00	; 0
    1bc6:	0e 94 f5 1a 	call	0x35ea	; 0x35ea <f_mount>
    1bca:	80 e2       	ldi	r24, 0x20	; 32
    1bcc:	90 e0       	ldi	r25, 0x00	; 0
    1bce:	0e 94 7d 24 	call	0x48fa	; 0x48fa <malloc>
    1bd2:	90 93 c3 01 	sts	0x01C3, r25	; 0x8001c3 <__data_end+0x1>
    1bd6:	80 93 c2 01 	sts	0x01C2, r24	; 0x8001c2 <__data_end>
    1bda:	90 e0       	ldi	r25, 0x00	; 0
    1bdc:	10 e0       	ldi	r17, 0x00	; 0
    1bde:	aa 24       	eor	r10, r10
    1be0:	a3 94       	inc	r10
    1be2:	e1 2c       	mov	r14, r1
    1be4:	f1 2c       	mov	r15, r1
    1be6:	0d c0       	rjmp	.+26     	; 0x1c02 <_Z8sd_writehPKc+0x78>
    1be8:	7c 01       	movw	r14, r24
    1bea:	09 c0       	rjmp	.+18     	; 0x1bfe <_Z8sd_writehPKc+0x74>
    1bec:	a1 2c       	mov	r10, r1
    1bee:	e1 2c       	mov	r14, r1
    1bf0:	f1 2c       	mov	r15, r1
    1bf2:	05 c0       	rjmp	.+10     	; 0x1bfe <_Z8sd_writehPKc+0x74>
    1bf4:	e1 2c       	mov	r14, r1
    1bf6:	f1 2c       	mov	r15, r1
    1bf8:	02 c0       	rjmp	.+4      	; 0x1bfe <_Z8sd_writehPKc+0x74>
    1bfa:	e1 2c       	mov	r14, r1
    1bfc:	f1 2c       	mov	r15, r1
    1bfe:	91 2f       	mov	r25, r17
    1c00:	10 2f       	mov	r17, r16
    1c02:	81 e0       	ldi	r24, 0x01	; 1
    1c04:	19 3d       	cpi	r17, 0xD9	; 217
    1c06:	09 f0       	breq	.+2      	; 0x1c0a <_Z8sd_writehPKc+0x80>
    1c08:	80 e0       	ldi	r24, 0x00	; 0
    1c0a:	88 23       	and	r24, r24
    1c0c:	31 f0       	breq	.+12     	; 0x1c1a <_Z8sd_writehPKc+0x90>
    1c0e:	81 e0       	ldi	r24, 0x01	; 1
    1c10:	9f 3f       	cpi	r25, 0xFF	; 255
    1c12:	09 f0       	breq	.+2      	; 0x1c16 <_Z8sd_writehPKc+0x8c>
    1c14:	80 e0       	ldi	r24, 0x00	; 0
    1c16:	81 11       	cpse	r24, r1
    1c18:	6e c0       	rjmp	.+220    	; 0x1cf6 <_Z8sd_writehPKc+0x16c>
    1c1a:	6b 2d       	mov	r22, r11
    1c1c:	8d e3       	ldi	r24, 0x3D	; 61
    1c1e:	0e 94 7b 01 	call	0x2f6	; 0x2f6 <_Z7readSPIhh>
    1c22:	08 2f       	mov	r16, r24
    1c24:	c7 01       	movw	r24, r14
    1c26:	01 96       	adiw	r24, 0x01	; 1
    1c28:	e3 e0       	ldi	r30, 0x03	; 3
    1c2a:	f0 e0       	ldi	r31, 0x00	; 0
    1c2c:	ec 0f       	add	r30, r28
    1c2e:	fd 1f       	adc	r31, r29
    1c30:	ee 0d       	add	r30, r14
    1c32:	ff 1d       	adc	r31, r15
    1c34:	00 83       	st	Z, r16
    1c36:	e5 e0       	ldi	r30, 0x05	; 5
    1c38:	ea 95       	dec	r30
    1c3a:	f1 f7       	brne	.-4      	; 0x1c38 <_Z8sd_writehPKc+0xae>
    1c3c:	8f 3f       	cpi	r24, 0xFF	; 255
    1c3e:	91 05       	cpc	r25, r1
    1c40:	99 f2       	breq	.-90     	; 0x1be8 <_Z8sd_writehPKc+0x5e>
    1c42:	94 f2       	brlt	.-92     	; 0x1be8 <_Z8sd_writehPKc+0x5e>
    1c44:	9b b1       	in	r25, 0x0b	; 11
    1c46:	81 e0       	ldi	r24, 0x01	; 1
    1c48:	89 27       	eor	r24, r25
    1c4a:	8b b9       	out	0x0b, r24	; 11
    1c4c:	aa 20       	and	r10, r10
    1c4e:	29 f1       	breq	.+74     	; 0x1c9a <_Z8sd_writehPKc+0x110>
    1c50:	8b b1       	in	r24, 0x0b	; 11
    1c52:	82 60       	ori	r24, 0x02	; 2
    1c54:	8b b9       	out	0x0b, r24	; 11
    1c56:	4a e0       	ldi	r20, 0x0A	; 10
    1c58:	b6 01       	movw	r22, r12
    1c5a:	80 91 c2 01 	lds	r24, 0x01C2	; 0x8001c2 <__data_end>
    1c5e:	90 91 c3 01 	lds	r25, 0x01C3	; 0x8001c3 <__data_end+0x1>
    1c62:	0e 94 13 1b 	call	0x3626	; 0x3626 <f_open>
    1c66:	81 11       	cpse	r24, r1
    1c68:	c1 cf       	rjmp	.-126    	; 0x1bec <_Z8sd_writehPKc+0x62>
    1c6a:	9e 01       	movw	r18, r28
    1c6c:	2f 5f       	subi	r18, 0xFF	; 255
    1c6e:	3f 4f       	sbci	r19, 0xFF	; 255
    1c70:	40 e0       	ldi	r20, 0x00	; 0
    1c72:	51 e0       	ldi	r21, 0x01	; 1
    1c74:	be 01       	movw	r22, r28
    1c76:	6d 5f       	subi	r22, 0xFD	; 253
    1c78:	7f 4f       	sbci	r23, 0xFF	; 255
    1c7a:	80 91 c2 01 	lds	r24, 0x01C2	; 0x8001c2 <__data_end>
    1c7e:	90 91 c3 01 	lds	r25, 0x01C3	; 0x8001c3 <__data_end+0x1>
    1c82:	0e 94 1f 1c 	call	0x383e	; 0x383e <f_write>
    1c86:	80 91 c2 01 	lds	r24, 0x01C2	; 0x8001c2 <__data_end>
    1c8a:	90 91 c3 01 	lds	r25, 0x01C3	; 0x8001c3 <__data_end+0x1>
    1c8e:	0e 94 0e 1e 	call	0x3c1c	; 0x3c1c <f_close>
    1c92:	a1 2c       	mov	r10, r1
    1c94:	e1 2c       	mov	r14, r1
    1c96:	f1 2c       	mov	r15, r1
    1c98:	b2 cf       	rjmp	.-156    	; 0x1bfe <_Z8sd_writehPKc+0x74>
    1c9a:	42 e1       	ldi	r20, 0x12	; 18
    1c9c:	b6 01       	movw	r22, r12
    1c9e:	80 91 c2 01 	lds	r24, 0x01C2	; 0x8001c2 <__data_end>
    1ca2:	90 91 c3 01 	lds	r25, 0x01C3	; 0x8001c3 <__data_end+0x1>
    1ca6:	0e 94 13 1b 	call	0x3626	; 0x3626 <f_open>
    1caa:	81 11       	cpse	r24, r1
    1cac:	a3 cf       	rjmp	.-186    	; 0x1bf4 <_Z8sd_writehPKc+0x6a>
    1cae:	80 91 c2 01 	lds	r24, 0x01C2	; 0x8001c2 <__data_end>
    1cb2:	90 91 c3 01 	lds	r25, 0x01C3	; 0x8001c3 <__data_end+0x1>
    1cb6:	fc 01       	movw	r30, r24
    1cb8:	42 85       	ldd	r20, Z+10	; 0x0a
    1cba:	53 85       	ldd	r21, Z+11	; 0x0b
    1cbc:	64 85       	ldd	r22, Z+12	; 0x0c
    1cbe:	75 85       	ldd	r23, Z+13	; 0x0d
    1cc0:	0e 94 19 1e 	call	0x3c32	; 0x3c32 <f_lseek>
    1cc4:	81 11       	cpse	r24, r1
    1cc6:	99 cf       	rjmp	.-206    	; 0x1bfa <_Z8sd_writehPKc+0x70>
    1cc8:	9e 01       	movw	r18, r28
    1cca:	2f 5f       	subi	r18, 0xFF	; 255
    1ccc:	3f 4f       	sbci	r19, 0xFF	; 255
    1cce:	40 e0       	ldi	r20, 0x00	; 0
    1cd0:	51 e0       	ldi	r21, 0x01	; 1
    1cd2:	be 01       	movw	r22, r28
    1cd4:	6d 5f       	subi	r22, 0xFD	; 253
    1cd6:	7f 4f       	sbci	r23, 0xFF	; 255
    1cd8:	80 91 c2 01 	lds	r24, 0x01C2	; 0x8001c2 <__data_end>
    1cdc:	90 91 c3 01 	lds	r25, 0x01C3	; 0x8001c3 <__data_end+0x1>
    1ce0:	0e 94 1f 1c 	call	0x383e	; 0x383e <f_write>
    1ce4:	80 91 c2 01 	lds	r24, 0x01C2	; 0x8001c2 <__data_end>
    1ce8:	90 91 c3 01 	lds	r25, 0x01C3	; 0x8001c3 <__data_end+0x1>
    1cec:	0e 94 0e 1e 	call	0x3c1c	; 0x3c1c <f_close>
    1cf0:	e1 2c       	mov	r14, r1
    1cf2:	f1 2c       	mov	r15, r1
    1cf4:	84 cf       	rjmp	.-248    	; 0x1bfe <_Z8sd_writehPKc+0x74>
    1cf6:	1e 14       	cp	r1, r14
    1cf8:	1f 04       	cpc	r1, r15
    1cfa:	5c f5       	brge	.+86     	; 0x1d52 <_Z8sd_writehPKc+0x1c8>
    1cfc:	42 e1       	ldi	r20, 0x12	; 18
    1cfe:	b6 01       	movw	r22, r12
    1d00:	80 91 c2 01 	lds	r24, 0x01C2	; 0x8001c2 <__data_end>
    1d04:	90 91 c3 01 	lds	r25, 0x01C3	; 0x8001c3 <__data_end+0x1>
    1d08:	0e 94 13 1b 	call	0x3626	; 0x3626 <f_open>
    1d0c:	81 11       	cpse	r24, r1
    1d0e:	21 c0       	rjmp	.+66     	; 0x1d52 <_Z8sd_writehPKc+0x1c8>
    1d10:	80 91 c2 01 	lds	r24, 0x01C2	; 0x8001c2 <__data_end>
    1d14:	90 91 c3 01 	lds	r25, 0x01C3	; 0x8001c3 <__data_end+0x1>
    1d18:	fc 01       	movw	r30, r24
    1d1a:	42 85       	ldd	r20, Z+10	; 0x0a
    1d1c:	53 85       	ldd	r21, Z+11	; 0x0b
    1d1e:	64 85       	ldd	r22, Z+12	; 0x0c
    1d20:	75 85       	ldd	r23, Z+13	; 0x0d
    1d22:	0e 94 19 1e 	call	0x3c32	; 0x3c32 <f_lseek>
    1d26:	81 11       	cpse	r24, r1
    1d28:	14 c0       	rjmp	.+40     	; 0x1d52 <_Z8sd_writehPKc+0x1c8>
    1d2a:	9e 01       	movw	r18, r28
    1d2c:	2f 5f       	subi	r18, 0xFF	; 255
    1d2e:	3f 4f       	sbci	r19, 0xFF	; 255
    1d30:	40 e0       	ldi	r20, 0x00	; 0
    1d32:	51 e0       	ldi	r21, 0x01	; 1
    1d34:	be 01       	movw	r22, r28
    1d36:	6d 5f       	subi	r22, 0xFD	; 253
    1d38:	7f 4f       	sbci	r23, 0xFF	; 255
    1d3a:	80 91 c2 01 	lds	r24, 0x01C2	; 0x8001c2 <__data_end>
    1d3e:	90 91 c3 01 	lds	r25, 0x01C3	; 0x8001c3 <__data_end+0x1>
    1d42:	0e 94 1f 1c 	call	0x383e	; 0x383e <f_write>
    1d46:	80 91 c2 01 	lds	r24, 0x01C2	; 0x8001c2 <__data_end>
    1d4a:	90 91 c3 01 	lds	r25, 0x01C3	; 0x8001c3 <__data_end+0x1>
    1d4e:	0e 94 0e 1e 	call	0x3c1c	; 0x3c1c <f_close>
    1d52:	80 91 c2 01 	lds	r24, 0x01C2	; 0x8001c2 <__data_end>
    1d56:	90 91 c3 01 	lds	r25, 0x01C3	; 0x8001c3 <__data_end+0x1>
    1d5a:	0e 94 0e 1e 	call	0x3c1c	; 0x3c1c <f_close>
    1d5e:	4b 2d       	mov	r20, r11
    1d60:	61 e0       	ldi	r22, 0x01	; 1
    1d62:	84 e8       	ldi	r24, 0x84	; 132
    1d64:	0e 94 57 01 	call	0x2ae	; 0x2ae <_Z8writeSPIhhh>
    1d68:	ce 5f       	subi	r28, 0xFE	; 254
    1d6a:	de 4f       	sbci	r29, 0xFE	; 254
    1d6c:	0f b6       	in	r0, 0x3f	; 63
    1d6e:	f8 94       	cli
    1d70:	de bf       	out	0x3e, r29	; 62
    1d72:	0f be       	out	0x3f, r0	; 63
    1d74:	cd bf       	out	0x3d, r28	; 61
    1d76:	df 91       	pop	r29
    1d78:	cf 91       	pop	r28
    1d7a:	1f 91       	pop	r17
    1d7c:	0f 91       	pop	r16
    1d7e:	ff 90       	pop	r15
    1d80:	ef 90       	pop	r14
    1d82:	df 90       	pop	r13
    1d84:	cf 90       	pop	r12
    1d86:	bf 90       	pop	r11
    1d88:	af 90       	pop	r10
    1d8a:	08 95       	ret

00001d8c <main>:
	}
}


int main(void) {
    1d8c:	cf 93       	push	r28
    1d8e:	df 93       	push	r29
    1d90:	cd b7       	in	r28, 0x3d	; 61
    1d92:	de b7       	in	r29, 0x3e	; 62
    1d94:	ec 97       	sbiw	r28, 0x3c	; 60
    1d96:	0f b6       	in	r0, 0x3f	; 63
    1d98:	f8 94       	cli
    1d9a:	de bf       	out	0x3e, r29	; 62
    1d9c:	0f be       	out	0x3f, r0	; 63
    1d9e:	cd bf       	out	0x3d, r28	; 61
	DDRD |= (1 << PD0); DDRD |= (1 << PD1); DDRB |= (1 << PB4);
    1da0:	8a b1       	in	r24, 0x0a	; 10
    1da2:	81 60       	ori	r24, 0x01	; 1
    1da4:	8a b9       	out	0x0a, r24	; 10
    1da6:	8a b1       	in	r24, 0x0a	; 10
    1da8:	82 60       	ori	r24, 0x02	; 2
    1daa:	8a b9       	out	0x0a, r24	; 10
    1dac:	84 b1       	in	r24, 0x04	; 4
    1dae:	80 61       	ori	r24, 0x10	; 16
    1db0:	84 b9       	out	0x04, r24	; 4
	DDRB &= ~(1<<PB0);	//set shutter button as input
    1db2:	84 b1       	in	r24, 0x04	; 4
    1db4:	8e 7f       	andi	r24, 0xFE	; 254
    1db6:	84 b9       	out	0x04, r24	; 4
	
	PORTD &= ~(1 << PD0); //set green led as input
    1db8:	8b b1       	in	r24, 0x0b	; 11
    1dba:	8e 7f       	andi	r24, 0xFE	; 254
    1dbc:	8b b9       	out	0x0b, r24	; 11
	PORTD &= ~(1 << PD1);//set red led as input
    1dbe:	8b b1       	in	r24, 0x0b	; 11
    1dc0:	8d 7f       	andi	r24, 0xFD	; 253
    1dc2:	8b b9       	out	0x0b, r24	; 11
	PORTB &= ~(1 << PB4); //set pb4 as pin for mux (splitting SCL and SDA lines)
    1dc4:	85 b1       	in	r24, 0x05	; 5
    1dc6:	8f 7e       	andi	r24, 0xEF	; 239
    1dc8:	85 b9       	out	0x05, r24	; 5
	PORTB|= (1<<PB0); // Configure as pull-up (?)
    1dca:	85 b1       	in	r24, 0x05	; 5
    1dcc:	81 60       	ori	r24, 0x01	; 1
    1dce:	85 b9       	out	0x05, r24	; 5
	
	spi_master_init(0,SPI_CLOCK_DIV2);
    1dd0:	64 e0       	ldi	r22, 0x04	; 4
    1dd2:	80 e0       	ldi	r24, 0x00	; 0
    1dd4:	0e 94 47 01 	call	0x28e	; 0x28e <_Z15spi_master_inithh>
	i2c_init();
    1dd8:	0e 94 c0 01 	call	0x380	; 0x380 <_Z8i2c_initv>
	
	//PORTD|= (1 << PD0);
	//PORTD|= (1 << PD1);
	
	
	camInit(CS_CAM_1);
    1ddc:	82 e0       	ldi	r24, 0x02	; 2
    1dde:	85 de       	rcall	.-758    	; 0x1aea <_Z7camInith>
	camInit(CS_CAM_2);
    1de0:	83 e0       	ldi	r24, 0x03	; 3
    1de2:	83 de       	rcall	.-762    	; 0x1aea <_Z7camInith>
	
	int fileIndex = 0;
    1de4:	00 e0       	ldi	r16, 0x00	; 0
    1de6:	10 e0       	ldi	r17, 0x00	; 0
	//fileIndex = eeprom_read_word((uint16_t*)100); // TODO: Doesn't work!!
	while(1) {
		if (!(PINB & (1<<PB0))) { // If button pressed
    1de8:	18 99       	sbic	0x03, 0	; 3
    1dea:	fe cf       	rjmp	.-4      	; 0x1de8 <main+0x5c>
			PORTD &= ~(1 << PD0);
    1dec:	8b b1       	in	r24, 0x0b	; 11
    1dee:	8e 7f       	andi	r24, 0xFE	; 254
    1df0:	8b b9       	out	0x0b, r24	; 11
			PORTD &= ~(1 << PD1);
    1df2:	8b b1       	in	r24, 0x0b	; 11
    1df4:	8d 7f       	andi	r24, 0xFD	; 253
    1df6:	8b b9       	out	0x0b, r24	; 11
			 
			startCapture(CS_CAM_1);
    1df8:	82 e0       	ldi	r24, 0x02	; 2
    1dfa:	0e 94 a3 01 	call	0x346	; 0x346 <_Z12startCaptureh>
			startCapture(CS_CAM_2);
    1dfe:	83 e0       	ldi	r24, 0x03	; 3
    1e00:	0e 94 a3 01 	call	0x346	; 0x346 <_Z12startCaptureh>
			
			fileIndex++;
    1e04:	0f 5f       	subi	r16, 0xFF	; 255
    1e06:	1f 4f       	sbci	r17, 0xFF	; 255
			
			snprintf(filename_left, 30, "image%d_L.jpg", fileIndex);
    1e08:	1f 93       	push	r17
    1e0a:	0f 93       	push	r16
    1e0c:	87 e0       	ldi	r24, 0x07	; 7
    1e0e:	91 e0       	ldi	r25, 0x01	; 1
    1e10:	9f 93       	push	r25
    1e12:	8f 93       	push	r24
    1e14:	1f 92       	push	r1
    1e16:	0f 2e       	mov	r0, r31
    1e18:	fe e1       	ldi	r31, 0x1E	; 30
    1e1a:	ff 2e       	mov	r15, r31
    1e1c:	f0 2d       	mov	r31, r0
    1e1e:	ff 92       	push	r15
    1e20:	ce 01       	movw	r24, r28
    1e22:	01 96       	adiw	r24, 0x01	; 1
    1e24:	6c 01       	movw	r12, r24
    1e26:	9f 93       	push	r25
    1e28:	8f 93       	push	r24
    1e2a:	0e 94 9e 25 	call	0x4b3c	; 0x4b3c <snprintf>
			snprintf(filename_right, 30, "image%d_R.jpg", fileIndex);
    1e2e:	1f 93       	push	r17
    1e30:	0f 93       	push	r16
    1e32:	85 e1       	ldi	r24, 0x15	; 21
    1e34:	91 e0       	ldi	r25, 0x01	; 1
    1e36:	9f 93       	push	r25
    1e38:	8f 93       	push	r24
    1e3a:	1f 92       	push	r1
    1e3c:	ff 92       	push	r15
    1e3e:	7e 01       	movw	r14, r28
    1e40:	9f e1       	ldi	r25, 0x1F	; 31
    1e42:	e9 0e       	add	r14, r25
    1e44:	f1 1c       	adc	r15, r1
    1e46:	ff 92       	push	r15
    1e48:	ef 92       	push	r14
    1e4a:	0e 94 9e 25 	call	0x4b3c	; 0x4b3c <snprintf>
			
			//eeprom_update_word((uint16_t*)100, fileIndex);
			
			sd_write(CS_CAM_1, filename_left);
    1e4e:	b6 01       	movw	r22, r12
    1e50:	82 e0       	ldi	r24, 0x02	; 2
    1e52:	9b de       	rcall	.-714    	; 0x1b8a <_Z8sd_writehPKc>
			sd_write(CS_CAM_2, filename_right);
    1e54:	b7 01       	movw	r22, r14
    1e56:	83 e0       	ldi	r24, 0x03	; 3
    1e58:	98 de       	rcall	.-720    	; 0x1b8a <_Z8sd_writehPKc>
    1e5a:	8b b1       	in	r24, 0x0b	; 11
			
			//if(fileIndex == 999){
				//fileIndex = 0;
			//}
			
			PORTD|= (1 << PD0);
    1e5c:	81 60       	ori	r24, 0x01	; 1
    1e5e:	8b b9       	out	0x0b, r24	; 11
    1e60:	8b b1       	in	r24, 0x0b	; 11
			PORTD|= (1 << PD1); //GREEN MEANS READY TO BEGIN
    1e62:	82 60       	ori	r24, 0x02	; 2
    1e64:	8b b9       	out	0x0b, r24	; 11
    1e66:	0f b6       	in	r0, 0x3f	; 63
    1e68:	f8 94       	cli
    1e6a:	de bf       	out	0x3e, r29	; 62
    1e6c:	0f be       	out	0x3f, r0	; 63
    1e6e:	cd bf       	out	0x3d, r28	; 61
    1e70:	bb cf       	rjmp	.-138    	; 0x1de8 <main+0x5c>

00001e72 <_ZL7mem_cpyPvPKvj>:
    1e72:	dc 01       	movw	r26, r24
		mem_cpy(rbuff, &fp->buf[fp->fptr % SS(fp->fs)], rcnt);	/* Pick partial sector */
#endif
	}

	LEAVE_FF(fp->fs, FR_OK);
}
    1e74:	fb 01       	movw	r30, r22
    1e76:	42 30       	cpi	r20, 0x02	; 2
    1e78:	51 05       	cpc	r21, r1
    1e7a:	38 f0       	brcs	.+14     	; 0x1e8a <_ZL7mem_cpyPvPKvj+0x18>
    1e7c:	81 91       	ld	r24, Z+
    1e7e:	91 91       	ld	r25, Z+
    1e80:	8d 93       	st	X+, r24
    1e82:	9d 93       	st	X+, r25
    1e84:	42 50       	subi	r20, 0x02	; 2
    1e86:	51 09       	sbc	r21, r1
    1e88:	f6 cf       	rjmp	.-20     	; 0x1e76 <_ZL7mem_cpyPvPKvj+0x4>
    1e8a:	ca 01       	movw	r24, r20
    1e8c:	01 97       	sbiw	r24, 0x01	; 1
    1e8e:	45 2b       	or	r20, r21
    1e90:	31 f0       	breq	.+12     	; 0x1e9e <_ZL7mem_cpyPvPKvj+0x2c>
    1e92:	20 81       	ld	r18, Z
    1e94:	2c 93       	st	X, r18
    1e96:	ac 01       	movw	r20, r24
    1e98:	31 96       	adiw	r30, 0x01	; 1
    1e9a:	11 96       	adiw	r26, 0x01	; 1
    1e9c:	f6 cf       	rjmp	.-20     	; 0x1e8a <_ZL7mem_cpyPvPKvj+0x18>
    1e9e:	08 95       	ret

00001ea0 <_ZL7mem_setPvij>:
    1ea0:	fc 01       	movw	r30, r24
    1ea2:	ca 01       	movw	r24, r20
    1ea4:	01 97       	sbiw	r24, 0x01	; 1
    1ea6:	45 2b       	or	r20, r21
    1ea8:	21 f0       	breq	.+8      	; 0x1eb2 <_ZL7mem_setPvij+0x12>
    1eaa:	60 83       	st	Z, r22
    1eac:	ac 01       	movw	r20, r24
    1eae:	31 96       	adiw	r30, 0x01	; 1
    1eb0:	f8 cf       	rjmp	.-16     	; 0x1ea2 <_ZL7mem_setPvij+0x2>
    1eb2:	08 95       	ret

00001eb4 <_ZL7mem_cmpPKvS0_j>:
    1eb4:	cf 93       	push	r28
    1eb6:	df 93       	push	r29
    1eb8:	ec 01       	movw	r28, r24
    1eba:	db 01       	movw	r26, r22
    1ebc:	80 e0       	ldi	r24, 0x00	; 0
    1ebe:	90 e0       	ldi	r25, 0x00	; 0
    1ec0:	fa 01       	movw	r30, r20
    1ec2:	31 97       	sbiw	r30, 0x01	; 1
    1ec4:	45 2b       	or	r20, r21
    1ec6:	81 f0       	breq	.+32     	; 0x1ee8 <_ZL7mem_cmpPKvS0_j+0x34>
    1ec8:	9e 01       	movw	r18, r28
    1eca:	2f 5f       	subi	r18, 0xFF	; 255
    1ecc:	3f 4f       	sbci	r19, 0xFF	; 255
    1ece:	88 81       	ld	r24, Y
    1ed0:	90 e0       	ldi	r25, 0x00	; 0
    1ed2:	ad 01       	movw	r20, r26
    1ed4:	4f 5f       	subi	r20, 0xFF	; 255
    1ed6:	5f 4f       	sbci	r21, 0xFF	; 255
    1ed8:	6c 91       	ld	r22, X
    1eda:	86 1b       	sub	r24, r22
    1edc:	91 09       	sbc	r25, r1
    1ede:	31 f4       	brne	.+12     	; 0x1eec <_ZL7mem_cmpPKvS0_j+0x38>
    1ee0:	da 01       	movw	r26, r20
    1ee2:	e9 01       	movw	r28, r18
    1ee4:	21 e0       	ldi	r18, 0x01	; 1
    1ee6:	05 c0       	rjmp	.+10     	; 0x1ef2 <_ZL7mem_cmpPKvS0_j+0x3e>
    1ee8:	20 e0       	ldi	r18, 0x00	; 0
    1eea:	03 c0       	rjmp	.+6      	; 0x1ef2 <_ZL7mem_cmpPKvS0_j+0x3e>
    1eec:	da 01       	movw	r26, r20
    1eee:	e9 01       	movw	r28, r18
    1ef0:	20 e0       	ldi	r18, 0x00	; 0
    1ef2:	af 01       	movw	r20, r30
    1ef4:	21 11       	cpse	r18, r1
    1ef6:	e4 cf       	rjmp	.-56     	; 0x1ec0 <_ZL7mem_cmpPKvS0_j+0xc>
    1ef8:	df 91       	pop	r29
    1efa:	cf 91       	pop	r28
    1efc:	08 95       	ret

00001efe <_ZL7chk_chrPKci>:
    1efe:	fc 01       	movw	r30, r24
    1f00:	80 81       	ld	r24, Z
    1f02:	88 23       	and	r24, r24
    1f04:	39 f0       	breq	.+14     	; 0x1f14 <_ZL7chk_chrPKci+0x16>
    1f06:	28 2f       	mov	r18, r24
    1f08:	30 e0       	ldi	r19, 0x00	; 0
    1f0a:	26 17       	cp	r18, r22
    1f0c:	37 07       	cpc	r19, r23
    1f0e:	11 f0       	breq	.+4      	; 0x1f14 <_ZL7chk_chrPKci+0x16>
    1f10:	31 96       	adiw	r30, 0x01	; 1
    1f12:	f6 cf       	rjmp	.-20     	; 0x1f00 <_ZL7chk_chrPKci+0x2>
    1f14:	90 e0       	ldi	r25, 0x00	; 0
    1f16:	08 95       	ret

00001f18 <_ZL8ld_clustP5FATFSPh>:
    1f18:	0f 93       	push	r16
    1f1a:	1f 93       	push	r17
    1f1c:	dc 01       	movw	r26, r24
    1f1e:	fb 01       	movw	r30, r22
    1f20:	62 8d       	ldd	r22, Z+26	; 0x1a
    1f22:	73 8d       	ldd	r23, Z+27	; 0x1b
    1f24:	80 e0       	ldi	r24, 0x00	; 0
    1f26:	90 e0       	ldi	r25, 0x00	; 0
    1f28:	2c 91       	ld	r18, X
    1f2a:	23 30       	cpi	r18, 0x03	; 3
    1f2c:	59 f4       	brne	.+22     	; 0x1f44 <_ZL8ld_clustP5FATFSPh+0x2c>
    1f2e:	04 89       	ldd	r16, Z+20	; 0x14
    1f30:	15 89       	ldd	r17, Z+21	; 0x15
    1f32:	20 e0       	ldi	r18, 0x00	; 0
    1f34:	30 e0       	ldi	r19, 0x00	; 0
    1f36:	98 01       	movw	r18, r16
    1f38:	11 27       	eor	r17, r17
    1f3a:	00 27       	eor	r16, r16
    1f3c:	60 2b       	or	r22, r16
    1f3e:	71 2b       	or	r23, r17
    1f40:	82 2b       	or	r24, r18
    1f42:	93 2b       	or	r25, r19
    1f44:	1f 91       	pop	r17
    1f46:	0f 91       	pop	r16
    1f48:	08 95       	ret

00001f4a <_ZL8st_clustPhm>:
    1f4a:	fc 01       	movw	r30, r24
    1f4c:	53 8f       	std	Z+27, r21	; 0x1b
    1f4e:	42 8f       	std	Z+26, r20	; 0x1a
    1f50:	75 8b       	std	Z+21, r23	; 0x15
    1f52:	64 8b       	std	Z+20, r22	; 0x14
    1f54:	08 95       	ret

00001f56 <_ZL11create_nameP3DIRPPKc>:
    1f56:	4f 92       	push	r4
    1f58:	5f 92       	push	r5
    1f5a:	6f 92       	push	r6
    1f5c:	8f 92       	push	r8
    1f5e:	9f 92       	push	r9
    1f60:	af 92       	push	r10
    1f62:	bf 92       	push	r11
    1f64:	cf 92       	push	r12
    1f66:	df 92       	push	r13
    1f68:	ef 92       	push	r14
    1f6a:	ff 92       	push	r15
    1f6c:	1f 93       	push	r17
    1f6e:	cf 93       	push	r28
    1f70:	df 93       	push	r29
    1f72:	fc 01       	movw	r30, r24
    1f74:	5b 01       	movw	r10, r22
    1f76:	db 01       	movw	r26, r22
    1f78:	cd 91       	ld	r28, X+
    1f7a:	dc 91       	ld	r29, X
    1f7c:	98 81       	ld	r25, Y
    1f7e:	9f 32       	cpi	r25, 0x2F	; 47
    1f80:	11 f0       	breq	.+4      	; 0x1f86 <_ZL11create_nameP3DIRPPKc+0x30>
    1f82:	9c 35       	cpi	r25, 0x5C	; 92
    1f84:	11 f4       	brne	.+4      	; 0x1f8a <_ZL11create_nameP3DIRPPKc+0x34>
    1f86:	21 96       	adiw	r28, 0x01	; 1
    1f88:	f9 cf       	rjmp	.-14     	; 0x1f7c <_ZL11create_nameP3DIRPPKc+0x26>
    1f8a:	c4 88       	ldd	r12, Z+20	; 0x14
    1f8c:	d5 88       	ldd	r13, Z+21	; 0x15
    1f8e:	4b e0       	ldi	r20, 0x0B	; 11
    1f90:	50 e0       	ldi	r21, 0x00	; 0
    1f92:	60 e2       	ldi	r22, 0x20	; 32
    1f94:	70 e0       	ldi	r23, 0x00	; 0
    1f96:	c6 01       	movw	r24, r12
    1f98:	83 df       	rcall	.-250    	; 0x1ea0 <_ZL7mem_setPvij>
    1f9a:	41 2c       	mov	r4, r1
    1f9c:	51 2c       	mov	r5, r1
    1f9e:	80 e0       	ldi	r24, 0x00	; 0
    1fa0:	90 e0       	ldi	r25, 0x00	; 0
    1fa2:	68 94       	set
    1fa4:	88 24       	eor	r8, r8
    1fa6:	83 f8       	bld	r8, 3
    1fa8:	91 2c       	mov	r9, r1
    1faa:	61 2c       	mov	r6, r1
    1fac:	01 c0       	rjmp	.+2      	; 0x1fb0 <_ZL11create_nameP3DIRPPKc+0x5a>
    1fae:	c7 01       	movw	r24, r14
    1fb0:	7c 01       	movw	r14, r24
    1fb2:	bf ef       	ldi	r27, 0xFF	; 255
    1fb4:	eb 1a       	sub	r14, r27
    1fb6:	fb 0a       	sbc	r15, r27
    1fb8:	fe 01       	movw	r30, r28
    1fba:	e8 0f       	add	r30, r24
    1fbc:	f9 1f       	adc	r31, r25
    1fbe:	10 81       	ld	r17, Z
    1fc0:	11 32       	cpi	r17, 0x21	; 33
    1fc2:	08 f4       	brcc	.+2      	; 0x1fc6 <_ZL11create_nameP3DIRPPKc+0x70>
    1fc4:	49 c0       	rjmp	.+146    	; 0x2058 <_ZL11create_nameP3DIRPPKc+0x102>
    1fc6:	1f 32       	cpi	r17, 0x2F	; 47
    1fc8:	09 f4       	brne	.+2      	; 0x1fcc <_ZL11create_nameP3DIRPPKc+0x76>
    1fca:	46 c0       	rjmp	.+140    	; 0x2058 <_ZL11create_nameP3DIRPPKc+0x102>
    1fcc:	1c 35       	cpi	r17, 0x5C	; 92
    1fce:	09 f4       	brne	.+2      	; 0x1fd2 <_ZL11create_nameP3DIRPPKc+0x7c>
    1fd0:	43 c0       	rjmp	.+134    	; 0x2058 <_ZL11create_nameP3DIRPPKc+0x102>
    1fd2:	1e 32       	cpi	r17, 0x2E	; 46
    1fd4:	19 f0       	breq	.+6      	; 0x1fdc <_ZL11create_nameP3DIRPPKc+0x86>
    1fd6:	48 14       	cp	r4, r8
    1fd8:	59 04       	cpc	r5, r9
    1fda:	a0 f0       	brcs	.+40     	; 0x2004 <_ZL11create_nameP3DIRPPKc+0xae>
    1fdc:	e8 e0       	ldi	r30, 0x08	; 8
    1fde:	8e 16       	cp	r8, r30
    1fe0:	91 04       	cpc	r9, r1
    1fe2:	09 f0       	breq	.+2      	; 0x1fe6 <_ZL11create_nameP3DIRPPKc+0x90>
    1fe4:	5f c0       	rjmp	.+190    	; 0x20a4 <_ZL11create_nameP3DIRPPKc+0x14e>
    1fe6:	1e 32       	cpi	r17, 0x2E	; 46
    1fe8:	09 f0       	breq	.+2      	; 0x1fec <_ZL11create_nameP3DIRPPKc+0x96>
    1fea:	5e c0       	rjmp	.+188    	; 0x20a8 <_ZL11create_nameP3DIRPPKc+0x152>
    1fec:	66 0c       	add	r6, r6
    1fee:	66 0c       	add	r6, r6
    1ff0:	68 94       	set
    1ff2:	44 24       	eor	r4, r4
    1ff4:	43 f8       	bld	r4, 3
    1ff6:	51 2c       	mov	r5, r1
    1ff8:	0f 2e       	mov	r0, r31
    1ffa:	fb e0       	ldi	r31, 0x0B	; 11
    1ffc:	8f 2e       	mov	r8, r31
    1ffe:	91 2c       	mov	r9, r1
    2000:	f0 2d       	mov	r31, r0
    2002:	d5 cf       	rjmp	.-86     	; 0x1fae <_ZL11create_nameP3DIRPPKc+0x58>
    2004:	11 23       	and	r17, r17
    2006:	44 f4       	brge	.+16     	; 0x2018 <_ZL11create_nameP3DIRPPKc+0xc2>
    2008:	f6 2d       	mov	r31, r6
    200a:	f3 60       	ori	r31, 0x03	; 3
    200c:	6f 2e       	mov	r6, r31
    200e:	e1 2f       	mov	r30, r17
    2010:	f0 e0       	ldi	r31, 0x00	; 0
    2012:	ee 53       	subi	r30, 0x3E	; 62
    2014:	ff 4f       	sbci	r31, 0xFF	; 255
    2016:	10 81       	ld	r17, Z
    2018:	61 2f       	mov	r22, r17
    201a:	70 e0       	ldi	r23, 0x00	; 0
    201c:	83 e2       	ldi	r24, 0x23	; 35
    201e:	91 e0       	ldi	r25, 0x01	; 1
    2020:	6e df       	rcall	.-292    	; 0x1efe <_ZL7chk_chrPKci>
    2022:	89 2b       	or	r24, r25
    2024:	09 f0       	breq	.+2      	; 0x2028 <_ZL11create_nameP3DIRPPKc+0xd2>
    2026:	42 c0       	rjmp	.+132    	; 0x20ac <_ZL11create_nameP3DIRPPKc+0x156>
    2028:	8f eb       	ldi	r24, 0xBF	; 191
    202a:	81 0f       	add	r24, r17
    202c:	8a 31       	cpi	r24, 0x1A	; 26
    202e:	20 f4       	brcc	.+8      	; 0x2038 <_ZL11create_nameP3DIRPPKc+0xe2>
    2030:	26 2d       	mov	r18, r6
    2032:	22 60       	ori	r18, 0x02	; 2
    2034:	62 2e       	mov	r6, r18
    2036:	08 c0       	rjmp	.+16     	; 0x2048 <_ZL11create_nameP3DIRPPKc+0xf2>
    2038:	8f e9       	ldi	r24, 0x9F	; 159
    203a:	81 0f       	add	r24, r17
    203c:	8a 31       	cpi	r24, 0x1A	; 26
    203e:	20 f4       	brcc	.+8      	; 0x2048 <_ZL11create_nameP3DIRPPKc+0xf2>
    2040:	86 2d       	mov	r24, r6
    2042:	81 60       	ori	r24, 0x01	; 1
    2044:	68 2e       	mov	r6, r24
    2046:	10 52       	subi	r17, 0x20	; 32
    2048:	f6 01       	movw	r30, r12
    204a:	e4 0d       	add	r30, r4
    204c:	f5 1d       	adc	r31, r5
    204e:	10 83       	st	Z, r17
    2050:	d2 01       	movw	r26, r4
    2052:	11 96       	adiw	r26, 0x01	; 1
    2054:	2d 01       	movw	r4, r26
    2056:	ab cf       	rjmp	.-170    	; 0x1fae <_ZL11create_nameP3DIRPPKc+0x58>
    2058:	ce 0d       	add	r28, r14
    205a:	df 1d       	adc	r29, r15
    205c:	f5 01       	movw	r30, r10
    205e:	d1 83       	std	Z+1, r29	; 0x01
    2060:	c0 83       	st	Z, r28
    2062:	11 32       	cpi	r17, 0x21	; 33
    2064:	10 f4       	brcc	.+4      	; 0x206a <_ZL11create_nameP3DIRPPKc+0x114>
    2066:	94 e0       	ldi	r25, 0x04	; 4
    2068:	01 c0       	rjmp	.+2      	; 0x206c <_ZL11create_nameP3DIRPPKc+0x116>
    206a:	90 e0       	ldi	r25, 0x00	; 0
    206c:	45 28       	or	r4, r5
    206e:	01 f1       	breq	.+64     	; 0x20b0 <_ZL11create_nameP3DIRPPKc+0x15a>
    2070:	d6 01       	movw	r26, r12
    2072:	8c 91       	ld	r24, X
    2074:	85 3e       	cpi	r24, 0xE5	; 229
    2076:	11 f4       	brne	.+4      	; 0x207c <_ZL11create_nameP3DIRPPKc+0x126>
    2078:	85 e0       	ldi	r24, 0x05	; 5
    207a:	8c 93       	st	X, r24
    207c:	b8 e0       	ldi	r27, 0x08	; 8
    207e:	8b 16       	cp	r8, r27
    2080:	91 04       	cpc	r9, r1
    2082:	11 f4       	brne	.+4      	; 0x2088 <_ZL11create_nameP3DIRPPKc+0x132>
    2084:	66 0c       	add	r6, r6
    2086:	66 0c       	add	r6, r6
    2088:	86 2d       	mov	r24, r6
    208a:	83 70       	andi	r24, 0x03	; 3
    208c:	81 30       	cpi	r24, 0x01	; 1
    208e:	09 f4       	brne	.+2      	; 0x2092 <_ZL11create_nameP3DIRPPKc+0x13c>
    2090:	90 61       	ori	r25, 0x10	; 16
    2092:	86 2d       	mov	r24, r6
    2094:	8c 70       	andi	r24, 0x0C	; 12
    2096:	84 30       	cpi	r24, 0x04	; 4
    2098:	09 f4       	brne	.+2      	; 0x209c <_ZL11create_nameP3DIRPPKc+0x146>
    209a:	98 60       	ori	r25, 0x08	; 8
    209c:	f6 01       	movw	r30, r12
    209e:	93 87       	std	Z+11, r25	; 0x0b
    20a0:	80 e0       	ldi	r24, 0x00	; 0
    20a2:	07 c0       	rjmp	.+14     	; 0x20b2 <_ZL11create_nameP3DIRPPKc+0x15c>
    20a4:	86 e0       	ldi	r24, 0x06	; 6
    20a6:	05 c0       	rjmp	.+10     	; 0x20b2 <_ZL11create_nameP3DIRPPKc+0x15c>
    20a8:	86 e0       	ldi	r24, 0x06	; 6
    20aa:	03 c0       	rjmp	.+6      	; 0x20b2 <_ZL11create_nameP3DIRPPKc+0x15c>
    20ac:	86 e0       	ldi	r24, 0x06	; 6
    20ae:	01 c0       	rjmp	.+2      	; 0x20b2 <_ZL11create_nameP3DIRPPKc+0x15c>
    20b0:	86 e0       	ldi	r24, 0x06	; 6
    20b2:	df 91       	pop	r29
    20b4:	cf 91       	pop	r28
    20b6:	1f 91       	pop	r17
    20b8:	ff 90       	pop	r15
    20ba:	ef 90       	pop	r14
    20bc:	df 90       	pop	r13
    20be:	cf 90       	pop	r12
    20c0:	bf 90       	pop	r11
    20c2:	af 90       	pop	r10
    20c4:	9f 90       	pop	r9
    20c6:	8f 90       	pop	r8
    20c8:	6f 90       	pop	r6
    20ca:	5f 90       	pop	r5
    20cc:	4f 90       	pop	r4
    20ce:	08 95       	ret

000020d0 <_ZL8check_fsP5FATFSm>:
    20d0:	0f 93       	push	r16
    20d2:	cf 93       	push	r28
    20d4:	df 93       	push	r29
    20d6:	ec 01       	movw	r28, r24
    20d8:	9a 01       	movw	r18, r20
    20da:	ab 01       	movw	r20, r22
    20dc:	bc 01       	movw	r22, r24
    20de:	6e 5c       	subi	r22, 0xCE	; 206
    20e0:	7f 4f       	sbci	r23, 0xFF	; 255
    20e2:	01 e0       	ldi	r16, 0x01	; 1
    20e4:	89 81       	ldd	r24, Y+1	; 0x01
    20e6:	0e 94 c5 22 	call	0x458a	; 0x458a <disk_read>
    20ea:	81 11       	cpse	r24, r1
    20ec:	22 c0       	rjmp	.+68     	; 0x2132 <_ZL8check_fsP5FATFSm+0x62>
    20ee:	fe 01       	movw	r30, r28
    20f0:	e0 5d       	subi	r30, 0xD0	; 208
    20f2:	fd 4f       	sbci	r31, 0xFD	; 253
    20f4:	80 81       	ld	r24, Z
    20f6:	91 81       	ldd	r25, Z+1	; 0x01
    20f8:	85 35       	cpi	r24, 0x55	; 85
    20fa:	9a 4a       	sbci	r25, 0xAA	; 170
    20fc:	e1 f4       	brne	.+56     	; 0x2136 <_ZL8check_fsP5FATFSm+0x66>
    20fe:	e8 5c       	subi	r30, 0xC8	; 200
    2100:	f1 40       	sbci	r31, 0x01	; 1
    2102:	80 81       	ld	r24, Z
    2104:	91 81       	ldd	r25, Z+1	; 0x01
    2106:	a2 81       	ldd	r26, Z+2	; 0x02
    2108:	b3 81       	ldd	r27, Z+3	; 0x03
    210a:	bb 27       	eor	r27, r27
    210c:	86 34       	cpi	r24, 0x46	; 70
    210e:	91 44       	sbci	r25, 0x41	; 65
    2110:	a4 45       	sbci	r26, 0x54	; 84
    2112:	b1 05       	cpc	r27, r1
    2114:	91 f0       	breq	.+36     	; 0x213a <_ZL8check_fsP5FATFSm+0x6a>
    2116:	cc 57       	subi	r28, 0x7C	; 124
    2118:	df 4f       	sbci	r29, 0xFF	; 255
    211a:	88 81       	ld	r24, Y
    211c:	99 81       	ldd	r25, Y+1	; 0x01
    211e:	aa 81       	ldd	r26, Y+2	; 0x02
    2120:	bb 81       	ldd	r27, Y+3	; 0x03
    2122:	bb 27       	eor	r27, r27
    2124:	86 34       	cpi	r24, 0x46	; 70
    2126:	91 44       	sbci	r25, 0x41	; 65
    2128:	a4 45       	sbci	r26, 0x54	; 84
    212a:	b1 05       	cpc	r27, r1
    212c:	41 f4       	brne	.+16     	; 0x213e <_ZL8check_fsP5FATFSm+0x6e>
    212e:	80 e0       	ldi	r24, 0x00	; 0
    2130:	07 c0       	rjmp	.+14     	; 0x2140 <_ZL8check_fsP5FATFSm+0x70>
    2132:	83 e0       	ldi	r24, 0x03	; 3
    2134:	05 c0       	rjmp	.+10     	; 0x2140 <_ZL8check_fsP5FATFSm+0x70>
    2136:	82 e0       	ldi	r24, 0x02	; 2
    2138:	03 c0       	rjmp	.+6      	; 0x2140 <_ZL8check_fsP5FATFSm+0x70>
    213a:	80 e0       	ldi	r24, 0x00	; 0
    213c:	01 c0       	rjmp	.+2      	; 0x2140 <_ZL8check_fsP5FATFSm+0x70>
    213e:	81 e0       	ldi	r24, 0x01	; 1
    2140:	df 91       	pop	r29
    2142:	cf 91       	pop	r28
    2144:	0f 91       	pop	r16
    2146:	08 95       	ret

00002148 <_ZL11sync_windowP5FATFS>:
    2148:	8f 92       	push	r8
    214a:	9f 92       	push	r9
    214c:	af 92       	push	r10
    214e:	bf 92       	push	r11
    2150:	cf 92       	push	r12
    2152:	df 92       	push	r13
    2154:	ef 92       	push	r14
    2156:	ff 92       	push	r15
    2158:	0f 93       	push	r16
    215a:	cf 93       	push	r28
    215c:	df 93       	push	r29
    215e:	fc 01       	movw	r30, r24
    2160:	24 81       	ldd	r18, Z+4	; 0x04
    2162:	22 23       	and	r18, r18
    2164:	09 f4       	brne	.+2      	; 0x2168 <_ZL11sync_windowP5FATFS+0x20>
    2166:	42 c0       	rjmp	.+132    	; 0x21ec <_ZL11sync_windowP5FATFS+0xa4>
    2168:	ec 01       	movw	r28, r24
    216a:	c6 a4       	ldd	r12, Z+46	; 0x2e
    216c:	d7 a4       	ldd	r13, Z+47	; 0x2f
    216e:	e0 a8       	ldd	r14, Z+48	; 0x30
    2170:	f1 a8       	ldd	r15, Z+49	; 0x31
    2172:	4c 01       	movw	r8, r24
    2174:	f2 e3       	ldi	r31, 0x32	; 50
    2176:	8f 0e       	add	r8, r31
    2178:	91 1c       	adc	r9, r1
    217a:	01 e0       	ldi	r16, 0x01	; 1
    217c:	a7 01       	movw	r20, r14
    217e:	96 01       	movw	r18, r12
    2180:	b4 01       	movw	r22, r8
    2182:	89 81       	ldd	r24, Y+1	; 0x01
    2184:	0e 94 1b 23 	call	0x4636	; 0x4636 <disk_write>
    2188:	81 11       	cpse	r24, r1
    218a:	32 c0       	rjmp	.+100    	; 0x21f0 <_ZL11sync_windowP5FATFS+0xa8>
    218c:	1c 82       	std	Y+4, r1	; 0x04
    218e:	8a a1       	ldd	r24, Y+34	; 0x22
    2190:	9b a1       	ldd	r25, Y+35	; 0x23
    2192:	ac a1       	ldd	r26, Y+36	; 0x24
    2194:	bd a1       	ldd	r27, Y+37	; 0x25
    2196:	c8 16       	cp	r12, r24
    2198:	d9 06       	cpc	r13, r25
    219a:	ea 06       	cpc	r14, r26
    219c:	fb 06       	cpc	r15, r27
    219e:	50 f1       	brcs	.+84     	; 0x21f4 <_ZL11sync_windowP5FATFS+0xac>
    21a0:	4a 8d       	ldd	r20, Y+26	; 0x1a
    21a2:	5b 8d       	ldd	r21, Y+27	; 0x1b
    21a4:	6c 8d       	ldd	r22, Y+28	; 0x1c
    21a6:	7d 8d       	ldd	r23, Y+29	; 0x1d
    21a8:	84 0f       	add	r24, r20
    21aa:	95 1f       	adc	r25, r21
    21ac:	a6 1f       	adc	r26, r22
    21ae:	b7 1f       	adc	r27, r23
    21b0:	c8 16       	cp	r12, r24
    21b2:	d9 06       	cpc	r13, r25
    21b4:	ea 06       	cpc	r14, r26
    21b6:	fb 06       	cpc	r15, r27
    21b8:	f8 f4       	brcc	.+62     	; 0x21f8 <_ZL11sync_windowP5FATFS+0xb0>
    21ba:	ab 80       	ldd	r10, Y+3	; 0x03
    21bc:	b1 2c       	mov	r11, r1
    21be:	82 e0       	ldi	r24, 0x02	; 2
    21c0:	a8 16       	cp	r10, r24
    21c2:	b1 04       	cpc	r11, r1
    21c4:	d8 f0       	brcs	.+54     	; 0x21fc <_ZL11sync_windowP5FATFS+0xb4>
    21c6:	8a 8d       	ldd	r24, Y+26	; 0x1a
    21c8:	9b 8d       	ldd	r25, Y+27	; 0x1b
    21ca:	ac 8d       	ldd	r26, Y+28	; 0x1c
    21cc:	bd 8d       	ldd	r27, Y+29	; 0x1d
    21ce:	c8 0e       	add	r12, r24
    21d0:	d9 1e       	adc	r13, r25
    21d2:	ea 1e       	adc	r14, r26
    21d4:	fb 1e       	adc	r15, r27
    21d6:	01 e0       	ldi	r16, 0x01	; 1
    21d8:	a7 01       	movw	r20, r14
    21da:	96 01       	movw	r18, r12
    21dc:	b4 01       	movw	r22, r8
    21de:	89 81       	ldd	r24, Y+1	; 0x01
    21e0:	0e 94 1b 23 	call	0x4636	; 0x4636 <disk_write>
    21e4:	e1 e0       	ldi	r30, 0x01	; 1
    21e6:	ae 1a       	sub	r10, r30
    21e8:	b1 08       	sbc	r11, r1
    21ea:	e9 cf       	rjmp	.-46     	; 0x21be <_ZL11sync_windowP5FATFS+0x76>
    21ec:	80 e0       	ldi	r24, 0x00	; 0
    21ee:	07 c0       	rjmp	.+14     	; 0x21fe <_ZL11sync_windowP5FATFS+0xb6>
    21f0:	81 e0       	ldi	r24, 0x01	; 1
    21f2:	05 c0       	rjmp	.+10     	; 0x21fe <_ZL11sync_windowP5FATFS+0xb6>
    21f4:	80 e0       	ldi	r24, 0x00	; 0
    21f6:	03 c0       	rjmp	.+6      	; 0x21fe <_ZL11sync_windowP5FATFS+0xb6>
    21f8:	80 e0       	ldi	r24, 0x00	; 0
    21fa:	01 c0       	rjmp	.+2      	; 0x21fe <_ZL11sync_windowP5FATFS+0xb6>
    21fc:	80 e0       	ldi	r24, 0x00	; 0
    21fe:	df 91       	pop	r29
    2200:	cf 91       	pop	r28
    2202:	0f 91       	pop	r16
    2204:	ff 90       	pop	r15
    2206:	ef 90       	pop	r14
    2208:	df 90       	pop	r13
    220a:	cf 90       	pop	r12
    220c:	bf 90       	pop	r11
    220e:	af 90       	pop	r10
    2210:	9f 90       	pop	r9
    2212:	8f 90       	pop	r8
    2214:	08 95       	ret

00002216 <_ZL11move_windowP5FATFSm>:
    2216:	cf 92       	push	r12
    2218:	df 92       	push	r13
    221a:	ef 92       	push	r14
    221c:	ff 92       	push	r15
    221e:	0f 93       	push	r16
    2220:	1f 93       	push	r17
    2222:	cf 93       	push	r28
    2224:	df 93       	push	r29
    2226:	fc 01       	movw	r30, r24
    2228:	c6 a4       	ldd	r12, Z+46	; 0x2e
    222a:	d7 a4       	ldd	r13, Z+47	; 0x2f
    222c:	e0 a8       	ldd	r14, Z+48	; 0x30
    222e:	f1 a8       	ldd	r15, Z+49	; 0x31
    2230:	c4 16       	cp	r12, r20
    2232:	d5 06       	cpc	r13, r21
    2234:	e6 06       	cpc	r14, r22
    2236:	f7 06       	cpc	r15, r23
    2238:	b9 f0       	breq	.+46     	; 0x2268 <_ZL11move_windowP5FATFSm+0x52>
    223a:	6a 01       	movw	r12, r20
    223c:	7b 01       	movw	r14, r22
    223e:	ec 01       	movw	r28, r24
    2240:	83 df       	rcall	.-250    	; 0x2148 <_ZL11sync_windowP5FATFS>
    2242:	18 2f       	mov	r17, r24
    2244:	81 11       	cpse	r24, r1
    2246:	12 c0       	rjmp	.+36     	; 0x226c <_ZL11move_windowP5FATFSm+0x56>
    2248:	01 e0       	ldi	r16, 0x01	; 1
    224a:	a7 01       	movw	r20, r14
    224c:	96 01       	movw	r18, r12
    224e:	be 01       	movw	r22, r28
    2250:	6e 5c       	subi	r22, 0xCE	; 206
    2252:	7f 4f       	sbci	r23, 0xFF	; 255
    2254:	89 81       	ldd	r24, Y+1	; 0x01
    2256:	0e 94 c5 22 	call	0x458a	; 0x458a <disk_read>
    225a:	81 11       	cpse	r24, r1
    225c:	09 c0       	rjmp	.+18     	; 0x2270 <_ZL11move_windowP5FATFSm+0x5a>
    225e:	ce a6       	std	Y+46, r12	; 0x2e
    2260:	df a6       	std	Y+47, r13	; 0x2f
    2262:	e8 aa       	std	Y+48, r14	; 0x30
    2264:	f9 aa       	std	Y+49, r15	; 0x31
    2266:	05 c0       	rjmp	.+10     	; 0x2272 <_ZL11move_windowP5FATFSm+0x5c>
    2268:	10 e0       	ldi	r17, 0x00	; 0
    226a:	03 c0       	rjmp	.+6      	; 0x2272 <_ZL11move_windowP5FATFSm+0x5c>
    226c:	11 e0       	ldi	r17, 0x01	; 1
    226e:	01 c0       	rjmp	.+2      	; 0x2272 <_ZL11move_windowP5FATFSm+0x5c>
    2270:	11 e0       	ldi	r17, 0x01	; 1
    2272:	81 2f       	mov	r24, r17
    2274:	df 91       	pop	r29
    2276:	cf 91       	pop	r28
    2278:	1f 91       	pop	r17
    227a:	0f 91       	pop	r16
    227c:	ff 90       	pop	r15
    227e:	ef 90       	pop	r14
    2280:	df 90       	pop	r13
    2282:	cf 90       	pop	r12
    2284:	08 95       	ret

00002286 <_ZL8validatePv>:
    2286:	00 97       	sbiw	r24, 0x00	; 0
    2288:	c9 f0       	breq	.+50     	; 0x22bc <_ZL8validatePv+0x36>
    228a:	dc 01       	movw	r26, r24
    228c:	ed 91       	ld	r30, X+
    228e:	fc 91       	ld	r31, X
    2290:	11 97       	sbiw	r26, 0x01	; 1
    2292:	30 97       	sbiw	r30, 0x00	; 0
    2294:	a9 f0       	breq	.+42     	; 0x22c0 <_ZL8validatePv+0x3a>
    2296:	20 81       	ld	r18, Z
    2298:	22 23       	and	r18, r18
    229a:	a1 f0       	breq	.+40     	; 0x22c4 <_ZL8validatePv+0x3e>
    229c:	26 81       	ldd	r18, Z+6	; 0x06
    229e:	37 81       	ldd	r19, Z+7	; 0x07
    22a0:	12 96       	adiw	r26, 0x02	; 2
    22a2:	8d 91       	ld	r24, X+
    22a4:	9c 91       	ld	r25, X
    22a6:	13 97       	sbiw	r26, 0x03	; 3
    22a8:	28 17       	cp	r18, r24
    22aa:	39 07       	cpc	r19, r25
    22ac:	69 f4       	brne	.+26     	; 0x22c8 <_ZL8validatePv+0x42>
    22ae:	81 81       	ldd	r24, Z+1	; 0x01
    22b0:	0e 94 ee 21 	call	0x43dc	; 0x43dc <disk_status>
    22b4:	80 ff       	sbrs	r24, 0
    22b6:	0a c0       	rjmp	.+20     	; 0x22cc <_ZL8validatePv+0x46>
    22b8:	83 e0       	ldi	r24, 0x03	; 3
    22ba:	08 95       	ret
    22bc:	89 e0       	ldi	r24, 0x09	; 9
    22be:	08 95       	ret
    22c0:	89 e0       	ldi	r24, 0x09	; 9
    22c2:	08 95       	ret
    22c4:	89 e0       	ldi	r24, 0x09	; 9
    22c6:	08 95       	ret
    22c8:	89 e0       	ldi	r24, 0x09	; 9
    22ca:	08 95       	ret
    22cc:	80 e0       	ldi	r24, 0x00	; 0
    22ce:	08 95       	ret

000022d0 <_ZL11chk_mountedPPKcPP5FATFSh>:
    22d0:	2f 92       	push	r2
    22d2:	3f 92       	push	r3
    22d4:	4f 92       	push	r4
    22d6:	5f 92       	push	r5
    22d8:	6f 92       	push	r6
    22da:	7f 92       	push	r7
    22dc:	8f 92       	push	r8
    22de:	9f 92       	push	r9
    22e0:	af 92       	push	r10
    22e2:	bf 92       	push	r11
    22e4:	cf 92       	push	r12
    22e6:	df 92       	push	r13
    22e8:	ef 92       	push	r14
    22ea:	ff 92       	push	r15
    22ec:	0f 93       	push	r16
    22ee:	1f 93       	push	r17
    22f0:	cf 93       	push	r28
    22f2:	df 93       	push	r29
    22f4:	cd b7       	in	r28, 0x3d	; 61
    22f6:	de b7       	in	r29, 0x3e	; 62
    22f8:	2e 97       	sbiw	r28, 0x0e	; 14
    22fa:	0f b6       	in	r0, 0x3f	; 63
    22fc:	f8 94       	cli
    22fe:	de bf       	out	0x3e, r29	; 62
    2300:	0f be       	out	0x3f, r0	; 63
    2302:	cd bf       	out	0x3d, r28	; 61
    2304:	dc 01       	movw	r26, r24
    2306:	ed 91       	ld	r30, X+
    2308:	fc 91       	ld	r31, X
    230a:	e0 80       	ld	r14, Z
    230c:	f1 2c       	mov	r15, r1
    230e:	b0 e3       	ldi	r27, 0x30	; 48
    2310:	eb 1a       	sub	r14, r27
    2312:	f1 08       	sbc	r15, r1
    2314:	2a e0       	ldi	r18, 0x0A	; 10
    2316:	e2 16       	cp	r14, r18
    2318:	f1 04       	cpc	r15, r1
    231a:	40 f4       	brcc	.+16     	; 0x232c <_ZL11chk_mountedPPKcPP5FATFSh+0x5c>
    231c:	21 81       	ldd	r18, Z+1	; 0x01
    231e:	2a 33       	cpi	r18, 0x3A	; 58
    2320:	41 f4       	brne	.+16     	; 0x2332 <_ZL11chk_mountedPPKcPP5FATFSh+0x62>
    2322:	32 96       	adiw	r30, 0x02	; 2
    2324:	dc 01       	movw	r26, r24
    2326:	ed 93       	st	X+, r30
    2328:	fc 93       	st	X, r31
    232a:	05 c0       	rjmp	.+10     	; 0x2336 <_ZL11chk_mountedPPKcPP5FATFSh+0x66>
    232c:	e1 2c       	mov	r14, r1
    232e:	f1 2c       	mov	r15, r1
    2330:	02 c0       	rjmp	.+4      	; 0x2336 <_ZL11chk_mountedPPKcPP5FATFSh+0x66>
    2332:	e1 2c       	mov	r14, r1
    2334:	f1 2c       	mov	r15, r1
    2336:	fb 01       	movw	r30, r22
    2338:	11 82       	std	Z+1, r1	; 0x01
    233a:	10 82       	st	Z, r1
    233c:	e1 14       	cp	r14, r1
    233e:	f1 04       	cpc	r15, r1
    2340:	09 f0       	breq	.+2      	; 0x2344 <_ZL11chk_mountedPPKcPP5FATFSh+0x74>
    2342:	2a c2       	rjmp	.+1108   	; 0x2798 <_ZL11chk_mountedPPKcPP5FATFSh+0x4c8>
    2344:	f7 01       	movw	r30, r14
    2346:	ee 0f       	add	r30, r30
    2348:	ff 1f       	adc	r31, r31
    234a:	e8 50       	subi	r30, 0x08	; 8
    234c:	fc 4f       	sbci	r31, 0xFC	; 252
    234e:	80 80       	ld	r8, Z
    2350:	91 80       	ldd	r9, Z+1	; 0x01
    2352:	9e 86       	std	Y+14, r9	; 0x0e
    2354:	8d 86       	std	Y+13, r8	; 0x0d
    2356:	81 14       	cp	r8, r1
    2358:	91 04       	cpc	r9, r1
    235a:	09 f4       	brne	.+2      	; 0x235e <_ZL11chk_mountedPPKcPP5FATFSh+0x8e>
    235c:	1f c2       	rjmp	.+1086   	; 0x279c <_ZL11chk_mountedPPKcPP5FATFSh+0x4cc>
    235e:	14 2f       	mov	r17, r20
    2360:	fb 01       	movw	r30, r22
    2362:	91 82       	std	Z+1, r9	; 0x01
    2364:	80 82       	st	Z, r8
    2366:	d4 01       	movw	r26, r8
    2368:	8c 91       	ld	r24, X
    236a:	88 23       	and	r24, r24
    236c:	69 f0       	breq	.+26     	; 0x2388 <_ZL11chk_mountedPPKcPP5FATFSh+0xb8>
    236e:	11 96       	adiw	r26, 0x01	; 1
    2370:	8c 91       	ld	r24, X
    2372:	0e 94 ee 21 	call	0x43dc	; 0x43dc <disk_status>
    2376:	80 fd       	sbrc	r24, 0
    2378:	07 c0       	rjmp	.+14     	; 0x2388 <_ZL11chk_mountedPPKcPP5FATFSh+0xb8>
    237a:	11 23       	and	r17, r17
    237c:	09 f4       	brne	.+2      	; 0x2380 <_ZL11chk_mountedPPKcPP5FATFSh+0xb0>
    237e:	10 c2       	rjmp	.+1056   	; 0x27a0 <_ZL11chk_mountedPPKcPP5FATFSh+0x4d0>
    2380:	82 fd       	sbrc	r24, 2
    2382:	10 c2       	rjmp	.+1056   	; 0x27a4 <_ZL11chk_mountedPPKcPP5FATFSh+0x4d4>
    2384:	80 e0       	ldi	r24, 0x00	; 0
    2386:	2d c2       	rjmp	.+1114   	; 0x27e2 <_ZL11chk_mountedPPKcPP5FATFSh+0x512>
    2388:	ed 85       	ldd	r30, Y+13	; 0x0d
    238a:	fe 85       	ldd	r31, Y+14	; 0x0e
    238c:	10 82       	st	Z, r1
    238e:	e1 82       	std	Z+1, r14	; 0x01
    2390:	8e 2d       	mov	r24, r14
    2392:	0e 94 f5 21 	call	0x43ea	; 0x43ea <disk_initialize>
    2396:	80 fd       	sbrc	r24, 0
    2398:	07 c2       	rjmp	.+1038   	; 0x27a8 <_ZL11chk_mountedPPKcPP5FATFSh+0x4d8>
    239a:	11 23       	and	r17, r17
    239c:	11 f0       	breq	.+4      	; 0x23a2 <_ZL11chk_mountedPPKcPP5FATFSh+0xd2>
    239e:	82 fd       	sbrc	r24, 2
    23a0:	05 c2       	rjmp	.+1034   	; 0x27ac <_ZL11chk_mountedPPKcPP5FATFSh+0x4dc>
    23a2:	40 e0       	ldi	r20, 0x00	; 0
    23a4:	50 e0       	ldi	r21, 0x00	; 0
    23a6:	ba 01       	movw	r22, r20
    23a8:	8d 85       	ldd	r24, Y+13	; 0x0d
    23aa:	9e 85       	ldd	r25, Y+14	; 0x0e
    23ac:	91 de       	rcall	.-734    	; 0x20d0 <_ZL8check_fsP5FATFSm>
    23ae:	81 30       	cpi	r24, 0x01	; 1
    23b0:	89 f4       	brne	.+34     	; 0x23d4 <_ZL11chk_mountedPPKcPP5FATFSh+0x104>
    23b2:	ed 85       	ldd	r30, Y+13	; 0x0d
    23b4:	fe 85       	ldd	r31, Y+14	; 0x0e
    23b6:	e0 51       	subi	r30, 0x10	; 16
    23b8:	fe 4f       	sbci	r31, 0xFE	; 254
    23ba:	94 81       	ldd	r25, Z+4	; 0x04
    23bc:	99 23       	and	r25, r25
    23be:	71 f0       	breq	.+28     	; 0x23dc <_ZL11chk_mountedPPKcPP5FATFSh+0x10c>
    23c0:	c0 84       	ldd	r12, Z+8	; 0x08
    23c2:	d1 84       	ldd	r13, Z+9	; 0x09
    23c4:	e2 84       	ldd	r14, Z+10	; 0x0a
    23c6:	f3 84       	ldd	r15, Z+11	; 0x0b
    23c8:	b7 01       	movw	r22, r14
    23ca:	a6 01       	movw	r20, r12
    23cc:	8d 85       	ldd	r24, Y+13	; 0x0d
    23ce:	9e 85       	ldd	r25, Y+14	; 0x0e
    23d0:	7f de       	rcall	.-770    	; 0x20d0 <_ZL8check_fsP5FATFSm>
    23d2:	07 c0       	rjmp	.+14     	; 0x23e2 <_ZL11chk_mountedPPKcPP5FATFSh+0x112>
    23d4:	c1 2c       	mov	r12, r1
    23d6:	d1 2c       	mov	r13, r1
    23d8:	76 01       	movw	r14, r12
    23da:	03 c0       	rjmp	.+6      	; 0x23e2 <_ZL11chk_mountedPPKcPP5FATFSh+0x112>
    23dc:	c1 2c       	mov	r12, r1
    23de:	d1 2c       	mov	r13, r1
    23e0:	76 01       	movw	r14, r12
    23e2:	83 30       	cpi	r24, 0x03	; 3
    23e4:	09 f4       	brne	.+2      	; 0x23e8 <_ZL11chk_mountedPPKcPP5FATFSh+0x118>
    23e6:	e4 c1       	rjmp	.+968    	; 0x27b0 <_ZL11chk_mountedPPKcPP5FATFSh+0x4e0>
    23e8:	81 11       	cpse	r24, r1
    23ea:	e4 c1       	rjmp	.+968    	; 0x27b4 <_ZL11chk_mountedPPKcPP5FATFSh+0x4e4>
    23ec:	ad 85       	ldd	r26, Y+13	; 0x0d
    23ee:	be 85       	ldd	r27, Y+14	; 0x0e
    23f0:	dd 96       	adiw	r26, 0x3d	; 61
    23f2:	8d 91       	ld	r24, X+
    23f4:	9c 91       	ld	r25, X
    23f6:	de 97       	sbiw	r26, 0x3e	; 62
    23f8:	81 15       	cp	r24, r1
    23fa:	92 40       	sbci	r25, 0x02	; 2
    23fc:	09 f0       	breq	.+2      	; 0x2400 <_ZL11chk_mountedPPKcPP5FATFSh+0x130>
    23fe:	dc c1       	rjmp	.+952    	; 0x27b8 <_ZL11chk_mountedPPKcPP5FATFSh+0x4e8>
    2400:	ed 85       	ldd	r30, Y+13	; 0x0d
    2402:	fe 85       	ldd	r31, Y+14	; 0x0e
    2404:	e8 5b       	subi	r30, 0xB8	; 184
    2406:	ff 4f       	sbci	r31, 0xFF	; 255
    2408:	80 81       	ld	r24, Z
    240a:	91 81       	ldd	r25, Z+1	; 0x01
    240c:	2c 01       	movw	r4, r24
    240e:	61 2c       	mov	r6, r1
    2410:	71 2c       	mov	r7, r1
    2412:	41 14       	cp	r4, r1
    2414:	51 04       	cpc	r5, r1
    2416:	61 04       	cpc	r6, r1
    2418:	71 04       	cpc	r7, r1
    241a:	41 f4       	brne	.+16     	; 0x242c <_ZL11chk_mountedPPKcPP5FATFSh+0x15c>
    241c:	ed 85       	ldd	r30, Y+13	; 0x0d
    241e:	fe 85       	ldd	r31, Y+14	; 0x0e
    2420:	ea 5a       	subi	r30, 0xAA	; 170
    2422:	ff 4f       	sbci	r31, 0xFF	; 255
    2424:	40 80       	ld	r4, Z
    2426:	51 80       	ldd	r5, Z+1	; 0x01
    2428:	62 80       	ldd	r6, Z+2	; 0x02
    242a:	73 80       	ldd	r7, Z+3	; 0x03
    242c:	ed 85       	ldd	r30, Y+13	; 0x0d
    242e:	fe 85       	ldd	r31, Y+14	; 0x0e
    2430:	42 8e       	std	Z+26, r4	; 0x1a
    2432:	53 8e       	std	Z+27, r5	; 0x1b
    2434:	64 8e       	std	Z+28, r6	; 0x1c
    2436:	75 8e       	std	Z+29, r7	; 0x1d
    2438:	ee 5b       	subi	r30, 0xBE	; 190
    243a:	ff 4f       	sbci	r31, 0xFF	; 255
    243c:	a0 81       	ld	r26, Z
    243e:	ed 85       	ldd	r30, Y+13	; 0x0d
    2440:	fe 85       	ldd	r31, Y+14	; 0x0e
    2442:	a3 83       	std	Z+3, r26	; 0x03
    2444:	8f ef       	ldi	r24, 0xFF	; 255
    2446:	8a 0f       	add	r24, r26
    2448:	82 30       	cpi	r24, 0x02	; 2
    244a:	08 f0       	brcs	.+2      	; 0x244e <_ZL11chk_mountedPPKcPP5FATFSh+0x17e>
    244c:	b7 c1       	rjmp	.+878    	; 0x27bc <_ZL11chk_mountedPPKcPP5FATFSh+0x4ec>
    244e:	b0 e0       	ldi	r27, 0x00	; 0
    2450:	a3 01       	movw	r20, r6
    2452:	92 01       	movw	r18, r4
    2454:	0e 94 64 24 	call	0x48c8	; 0x48c8 <__muluhisi3>
    2458:	6d 83       	std	Y+5, r22	; 0x05
    245a:	7e 83       	std	Y+6, r23	; 0x06
    245c:	8f 83       	std	Y+7, r24	; 0x07
    245e:	98 87       	std	Y+8, r25	; 0x08
    2460:	27 ad       	ldd	r18, Z+63	; 0x3f
    2462:	22 83       	std	Z+2, r18	; 0x02
    2464:	22 23       	and	r18, r18
    2466:	09 f4       	brne	.+2      	; 0x246a <_ZL11chk_mountedPPKcPP5FATFSh+0x19a>
    2468:	ab c1       	rjmp	.+854    	; 0x27c0 <_ZL11chk_mountedPPKcPP5FATFSh+0x4f0>
    246a:	42 2f       	mov	r20, r18
    246c:	50 e0       	ldi	r21, 0x00	; 0
    246e:	ca 01       	movw	r24, r20
    2470:	01 97       	sbiw	r24, 0x01	; 1
    2472:	84 23       	and	r24, r20
    2474:	95 23       	and	r25, r21
    2476:	89 2b       	or	r24, r25
    2478:	09 f0       	breq	.+2      	; 0x247c <_ZL11chk_mountedPPKcPP5FATFSh+0x1ac>
    247a:	a4 c1       	rjmp	.+840    	; 0x27c4 <_ZL11chk_mountedPPKcPP5FATFSh+0x4f4>
    247c:	ed 5b       	subi	r30, 0xBD	; 189
    247e:	ff 4f       	sbci	r31, 0xFF	; 255
    2480:	20 80       	ld	r2, Z
    2482:	31 80       	ldd	r3, Z+1	; 0x01
    2484:	ad 85       	ldd	r26, Y+13	; 0x0d
    2486:	be 85       	ldd	r27, Y+14	; 0x0e
    2488:	19 96       	adiw	r26, 0x09	; 9
    248a:	3c 92       	st	X, r3
    248c:	2e 92       	st	-X, r2
    248e:	18 97       	sbiw	r26, 0x08	; 8
    2490:	c1 01       	movw	r24, r2
    2492:	8f 70       	andi	r24, 0x0F	; 15
    2494:	99 27       	eor	r25, r25
    2496:	89 2b       	or	r24, r25
    2498:	09 f0       	breq	.+2      	; 0x249c <_ZL11chk_mountedPPKcPP5FATFSh+0x1cc>
    249a:	96 c1       	rjmp	.+812    	; 0x27c8 <_ZL11chk_mountedPPKcPP5FATFSh+0x4f8>
    249c:	fd 01       	movw	r30, r26
    249e:	eb 5b       	subi	r30, 0xBB	; 187
    24a0:	ff 4f       	sbci	r31, 0xFF	; 255
    24a2:	60 81       	ld	r22, Z
    24a4:	71 81       	ldd	r23, Z+1	; 0x01
    24a6:	cb 01       	movw	r24, r22
    24a8:	a0 e0       	ldi	r26, 0x00	; 0
    24aa:	b0 e0       	ldi	r27, 0x00	; 0
    24ac:	00 97       	sbiw	r24, 0x00	; 0
    24ae:	a1 05       	cpc	r26, r1
    24b0:	b1 05       	cpc	r27, r1
    24b2:	41 f4       	brne	.+16     	; 0x24c4 <_ZL11chk_mountedPPKcPP5FATFSh+0x1f4>
    24b4:	ed 85       	ldd	r30, Y+13	; 0x0d
    24b6:	fe 85       	ldd	r31, Y+14	; 0x0e
    24b8:	ee 5a       	subi	r30, 0xAE	; 174
    24ba:	ff 4f       	sbci	r31, 0xFF	; 255
    24bc:	80 81       	ld	r24, Z
    24be:	91 81       	ldd	r25, Z+1	; 0x01
    24c0:	a2 81       	ldd	r26, Z+2	; 0x02
    24c2:	b3 81       	ldd	r27, Z+3	; 0x03
    24c4:	ed 85       	ldd	r30, Y+13	; 0x0d
    24c6:	fe 85       	ldd	r31, Y+14	; 0x0e
    24c8:	e0 5c       	subi	r30, 0xC0	; 192
    24ca:	ff 4f       	sbci	r31, 0xFF	; 255
    24cc:	40 81       	ld	r20, Z
    24ce:	51 81       	ldd	r21, Z+1	; 0x01
    24d0:	41 15       	cp	r20, r1
    24d2:	51 05       	cpc	r21, r1
    24d4:	09 f4       	brne	.+2      	; 0x24d8 <_ZL11chk_mountedPPKcPP5FATFSh+0x208>
    24d6:	7a c1       	rjmp	.+756    	; 0x27cc <_ZL11chk_mountedPPKcPP5FATFSh+0x4fc>
    24d8:	4a 01       	movw	r8, r20
    24da:	a1 2c       	mov	r10, r1
    24dc:	b1 2c       	mov	r11, r1
    24de:	89 86       	std	Y+9, r8	; 0x09
    24e0:	9a 86       	std	Y+10, r9	; 0x0a
    24e2:	ab 86       	std	Y+11, r10	; 0x0b
    24e4:	bc 86       	std	Y+12, r11	; 0x0c
    24e6:	8d 80       	ldd	r8, Y+5	; 0x05
    24e8:	9e 80       	ldd	r9, Y+6	; 0x06
    24ea:	af 80       	ldd	r10, Y+7	; 0x07
    24ec:	b8 84       	ldd	r11, Y+8	; 0x08
    24ee:	49 85       	ldd	r20, Y+9	; 0x09
    24f0:	5a 85       	ldd	r21, Y+10	; 0x0a
    24f2:	6b 85       	ldd	r22, Y+11	; 0x0b
    24f4:	7c 85       	ldd	r23, Y+12	; 0x0c
    24f6:	84 0e       	add	r8, r20
    24f8:	95 1e       	adc	r9, r21
    24fa:	a6 1e       	adc	r10, r22
    24fc:	b7 1e       	adc	r11, r23
    24fe:	f1 01       	movw	r30, r2
    2500:	f2 95       	swap	r31
    2502:	e2 95       	swap	r30
    2504:	ef 70       	andi	r30, 0x0F	; 15
    2506:	ef 27       	eor	r30, r31
    2508:	ff 70       	andi	r31, 0x0F	; 15
    250a:	ef 27       	eor	r30, r31
    250c:	b5 01       	movw	r22, r10
    250e:	a4 01       	movw	r20, r8
    2510:	4e 0f       	add	r20, r30
    2512:	5f 1f       	adc	r21, r31
    2514:	61 1d       	adc	r22, r1
    2516:	71 1d       	adc	r23, r1
    2518:	49 83       	std	Y+1, r20	; 0x01
    251a:	5a 83       	std	Y+2, r21	; 0x02
    251c:	6b 83       	std	Y+3, r22	; 0x03
    251e:	7c 83       	std	Y+4, r23	; 0x04
    2520:	84 17       	cp	r24, r20
    2522:	95 07       	cpc	r25, r21
    2524:	a6 07       	cpc	r26, r22
    2526:	b7 07       	cpc	r27, r23
    2528:	08 f4       	brcc	.+2      	; 0x252c <_ZL11chk_mountedPPKcPP5FATFSh+0x25c>
    252a:	52 c1       	rjmp	.+676    	; 0x27d0 <_ZL11chk_mountedPPKcPP5FATFSh+0x500>
    252c:	bc 01       	movw	r22, r24
    252e:	cd 01       	movw	r24, r26
    2530:	89 80       	ldd	r8, Y+1	; 0x01
    2532:	9a 80       	ldd	r9, Y+2	; 0x02
    2534:	ab 80       	ldd	r10, Y+3	; 0x03
    2536:	bc 80       	ldd	r11, Y+4	; 0x04
    2538:	68 19       	sub	r22, r8
    253a:	79 09       	sbc	r23, r9
    253c:	8a 09       	sbc	r24, r10
    253e:	9b 09       	sbc	r25, r11
    2540:	30 e0       	ldi	r19, 0x00	; 0
    2542:	40 e0       	ldi	r20, 0x00	; 0
    2544:	50 e0       	ldi	r21, 0x00	; 0
    2546:	0e 94 42 24 	call	0x4884	; 0x4884 <__udivmodsi4>
    254a:	da 01       	movw	r26, r20
    254c:	c9 01       	movw	r24, r18
    254e:	21 15       	cp	r18, r1
    2550:	31 05       	cpc	r19, r1
    2552:	41 05       	cpc	r20, r1
    2554:	51 05       	cpc	r21, r1
    2556:	09 f4       	brne	.+2      	; 0x255a <_ZL11chk_mountedPPKcPP5FATFSh+0x28a>
    2558:	3d c1       	rjmp	.+634    	; 0x27d4 <_ZL11chk_mountedPPKcPP5FATFSh+0x504>
    255a:	26 3f       	cpi	r18, 0xF6	; 246
    255c:	6f e0       	ldi	r22, 0x0F	; 15
    255e:	36 07       	cpc	r19, r22
    2560:	41 05       	cpc	r20, r1
    2562:	51 05       	cpc	r21, r1
    2564:	10 f4       	brcc	.+4      	; 0x256a <_ZL11chk_mountedPPKcPP5FATFSh+0x29a>
    2566:	11 e0       	ldi	r17, 0x01	; 1
    2568:	01 c0       	rjmp	.+2      	; 0x256c <_ZL11chk_mountedPPKcPP5FATFSh+0x29c>
    256a:	12 e0       	ldi	r17, 0x02	; 2
    256c:	86 3f       	cpi	r24, 0xF6	; 246
    256e:	9f 4f       	sbci	r25, 0xFF	; 255
    2570:	a1 05       	cpc	r26, r1
    2572:	b1 05       	cpc	r27, r1
    2574:	08 f0       	brcs	.+2      	; 0x2578 <_ZL11chk_mountedPPKcPP5FATFSh+0x2a8>
    2576:	13 e0       	ldi	r17, 0x03	; 3
    2578:	49 01       	movw	r8, r18
    257a:	5a 01       	movw	r10, r20
    257c:	82 e0       	ldi	r24, 0x02	; 2
    257e:	88 0e       	add	r8, r24
    2580:	91 1c       	adc	r9, r1
    2582:	a1 1c       	adc	r10, r1
    2584:	b1 1c       	adc	r11, r1
    2586:	ad 85       	ldd	r26, Y+13	; 0x0d
    2588:	be 85       	ldd	r27, Y+14	; 0x0e
    258a:	56 96       	adiw	r26, 0x16	; 22
    258c:	8d 92       	st	X+, r8
    258e:	9d 92       	st	X+, r9
    2590:	ad 92       	st	X+, r10
    2592:	bc 92       	st	X, r11
    2594:	59 97       	sbiw	r26, 0x19	; 25
    2596:	fd 01       	movw	r30, r26
    2598:	c6 8e       	std	Z+30, r12	; 0x1e
    259a:	d7 8e       	std	Z+31, r13	; 0x1f
    259c:	e0 a2       	std	Z+32, r14	; 0x20
    259e:	f1 a2       	std	Z+33, r15	; 0x21
    25a0:	89 85       	ldd	r24, Y+9	; 0x09
    25a2:	9a 85       	ldd	r25, Y+10	; 0x0a
    25a4:	ab 85       	ldd	r26, Y+11	; 0x0b
    25a6:	bc 85       	ldd	r27, Y+12	; 0x0c
    25a8:	8c 0d       	add	r24, r12
    25aa:	9d 1d       	adc	r25, r13
    25ac:	ae 1d       	adc	r26, r14
    25ae:	bf 1d       	adc	r27, r15
    25b0:	82 a3       	std	Z+34, r24	; 0x22
    25b2:	93 a3       	std	Z+35, r25	; 0x23
    25b4:	a4 a3       	std	Z+36, r26	; 0x24
    25b6:	b5 a3       	std	Z+37, r27	; 0x25
    25b8:	49 81       	ldd	r20, Y+1	; 0x01
    25ba:	5a 81       	ldd	r21, Y+2	; 0x02
    25bc:	6b 81       	ldd	r22, Y+3	; 0x03
    25be:	7c 81       	ldd	r23, Y+4	; 0x04
    25c0:	4c 0d       	add	r20, r12
    25c2:	5d 1d       	adc	r21, r13
    25c4:	6e 1d       	adc	r22, r14
    25c6:	7f 1d       	adc	r23, r15
    25c8:	42 a7       	std	Z+42, r20	; 0x2a
    25ca:	53 a7       	std	Z+43, r21	; 0x2b
    25cc:	64 a7       	std	Z+44, r22	; 0x2c
    25ce:	75 a7       	std	Z+45, r23	; 0x2d
    25d0:	13 30       	cpi	r17, 0x03	; 3
    25d2:	c1 f4       	brne	.+48     	; 0x2604 <_ZL11chk_mountedPPKcPP5FATFSh+0x334>
    25d4:	23 28       	or	r2, r3
    25d6:	09 f0       	breq	.+2      	; 0x25da <_ZL11chk_mountedPPKcPP5FATFSh+0x30a>
    25d8:	ff c0       	rjmp	.+510    	; 0x27d8 <_ZL11chk_mountedPPKcPP5FATFSh+0x508>
    25da:	e2 5a       	subi	r30, 0xA2	; 162
    25dc:	ff 4f       	sbci	r31, 0xFF	; 255
    25de:	80 81       	ld	r24, Z
    25e0:	91 81       	ldd	r25, Z+1	; 0x01
    25e2:	a2 81       	ldd	r26, Z+2	; 0x02
    25e4:	b3 81       	ldd	r27, Z+3	; 0x03
    25e6:	ed 85       	ldd	r30, Y+13	; 0x0d
    25e8:	fe 85       	ldd	r31, Y+14	; 0x0e
    25ea:	86 a3       	std	Z+38, r24	; 0x26
    25ec:	97 a3       	std	Z+39, r25	; 0x27
    25ee:	a0 a7       	std	Z+40, r26	; 0x28
    25f0:	b1 a7       	std	Z+41, r27	; 0x29
    25f2:	88 0c       	add	r8, r8
    25f4:	99 1c       	adc	r9, r9
    25f6:	aa 1c       	adc	r10, r10
    25f8:	bb 1c       	adc	r11, r11
    25fa:	88 0c       	add	r8, r8
    25fc:	99 1c       	adc	r9, r9
    25fe:	aa 1c       	adc	r10, r10
    2600:	bb 1c       	adc	r11, r11
    2602:	2d c0       	rjmp	.+90     	; 0x265e <_ZL11chk_mountedPPKcPP5FATFSh+0x38e>
    2604:	23 28       	or	r2, r3
    2606:	09 f4       	brne	.+2      	; 0x260a <_ZL11chk_mountedPPKcPP5FATFSh+0x33a>
    2608:	e9 c0       	rjmp	.+466    	; 0x27dc <_ZL11chk_mountedPPKcPP5FATFSh+0x50c>
    260a:	2d 81       	ldd	r18, Y+5	; 0x05
    260c:	3e 81       	ldd	r19, Y+6	; 0x06
    260e:	4f 81       	ldd	r20, Y+7	; 0x07
    2610:	58 85       	ldd	r21, Y+8	; 0x08
    2612:	82 0f       	add	r24, r18
    2614:	93 1f       	adc	r25, r19
    2616:	a4 1f       	adc	r26, r20
    2618:	b5 1f       	adc	r27, r21
    261a:	ed 85       	ldd	r30, Y+13	; 0x0d
    261c:	fe 85       	ldd	r31, Y+14	; 0x0e
    261e:	86 a3       	std	Z+38, r24	; 0x26
    2620:	97 a3       	std	Z+39, r25	; 0x27
    2622:	a0 a7       	std	Z+40, r26	; 0x28
    2624:	b1 a7       	std	Z+41, r27	; 0x29
    2626:	12 30       	cpi	r17, 0x02	; 2
    2628:	29 f4       	brne	.+10     	; 0x2634 <_ZL11chk_mountedPPKcPP5FATFSh+0x364>
    262a:	88 0c       	add	r8, r8
    262c:	99 1c       	adc	r9, r9
    262e:	aa 1c       	adc	r10, r10
    2630:	bb 1c       	adc	r11, r11
    2632:	15 c0       	rjmp	.+42     	; 0x265e <_ZL11chk_mountedPPKcPP5FATFSh+0x38e>
    2634:	a3 e0       	ldi	r26, 0x03	; 3
    2636:	b0 e0       	ldi	r27, 0x00	; 0
    2638:	a5 01       	movw	r20, r10
    263a:	94 01       	movw	r18, r8
    263c:	0e 94 64 24 	call	0x48c8	; 0x48c8 <__muluhisi3>
    2640:	dc 01       	movw	r26, r24
    2642:	cb 01       	movw	r24, r22
    2644:	b6 95       	lsr	r27
    2646:	a7 95       	ror	r26
    2648:	97 95       	ror	r25
    264a:	87 95       	ror	r24
    264c:	f1 e0       	ldi	r31, 0x01	; 1
    264e:	8f 22       	and	r8, r31
    2650:	99 24       	eor	r9, r9
    2652:	aa 24       	eor	r10, r10
    2654:	bb 24       	eor	r11, r11
    2656:	88 0e       	add	r8, r24
    2658:	99 1e       	adc	r9, r25
    265a:	aa 1e       	adc	r10, r26
    265c:	bb 1e       	adc	r11, r27
    265e:	2f ef       	ldi	r18, 0xFF	; 255
    2660:	82 0e       	add	r8, r18
    2662:	21 e0       	ldi	r18, 0x01	; 1
    2664:	92 1e       	adc	r9, r18
    2666:	a1 1c       	adc	r10, r1
    2668:	b1 1c       	adc	r11, r1
    266a:	07 2e       	mov	r0, r23
    266c:	79 e0       	ldi	r23, 0x09	; 9
    266e:	b6 94       	lsr	r11
    2670:	a7 94       	ror	r10
    2672:	97 94       	ror	r9
    2674:	87 94       	ror	r8
    2676:	7a 95       	dec	r23
    2678:	d1 f7       	brne	.-12     	; 0x266e <_ZL11chk_mountedPPKcPP5FATFSh+0x39e>
    267a:	70 2d       	mov	r23, r0
    267c:	48 14       	cp	r4, r8
    267e:	59 04       	cpc	r5, r9
    2680:	6a 04       	cpc	r6, r10
    2682:	7b 04       	cpc	r7, r11
    2684:	08 f4       	brcc	.+2      	; 0x2688 <_ZL11chk_mountedPPKcPP5FATFSh+0x3b8>
    2686:	ac c0       	rjmp	.+344    	; 0x27e0 <_ZL11chk_mountedPPKcPP5FATFSh+0x510>
    2688:	8f ef       	ldi	r24, 0xFF	; 255
    268a:	9f ef       	ldi	r25, 0xFF	; 255
    268c:	dc 01       	movw	r26, r24
    268e:	ed 85       	ldd	r30, Y+13	; 0x0d
    2690:	fe 85       	ldd	r31, Y+14	; 0x0e
    2692:	86 87       	std	Z+14, r24	; 0x0e
    2694:	97 87       	std	Z+15, r25	; 0x0f
    2696:	a0 8b       	std	Z+16, r26	; 0x10
    2698:	b1 8b       	std	Z+17, r27	; 0x11
    269a:	df 01       	movw	r26, r30
    269c:	12 86       	std	Z+10, r1	; 0x0a
    269e:	13 86       	std	Z+11, r1	; 0x0b
    26a0:	14 86       	std	Z+12, r1	; 0x0c
    26a2:	15 86       	std	Z+13, r1	; 0x0d
    26a4:	13 30       	cpi	r17, 0x03	; 3
    26a6:	09 f0       	breq	.+2      	; 0x26aa <_ZL11chk_mountedPPKcPP5FATFSh+0x3da>
    26a8:	5f c0       	rjmp	.+190    	; 0x2768 <_ZL11chk_mountedPPKcPP5FATFSh+0x498>
    26aa:	15 82       	std	Z+5, r1	; 0x05
    26ac:	ee 59       	subi	r30, 0x9E	; 158
    26ae:	ff 4f       	sbci	r31, 0xFF	; 255
    26b0:	80 81       	ld	r24, Z
    26b2:	91 81       	ldd	r25, Z+1	; 0x01
    26b4:	a7 01       	movw	r20, r14
    26b6:	96 01       	movw	r18, r12
    26b8:	28 0f       	add	r18, r24
    26ba:	39 1f       	adc	r19, r25
    26bc:	41 1d       	adc	r20, r1
    26be:	51 1d       	adc	r21, r1
    26c0:	fd 01       	movw	r30, r26
    26c2:	22 8b       	std	Z+18, r18	; 0x12
    26c4:	33 8b       	std	Z+19, r19	; 0x13
    26c6:	44 8b       	std	Z+20, r20	; 0x14
    26c8:	55 8b       	std	Z+21, r21	; 0x15
    26ca:	01 e0       	ldi	r16, 0x01	; 1
    26cc:	bd 01       	movw	r22, r26
    26ce:	6e 5c       	subi	r22, 0xCE	; 206
    26d0:	7f 4f       	sbci	r23, 0xFF	; 255
    26d2:	81 81       	ldd	r24, Z+1	; 0x01
    26d4:	0e 94 c5 22 	call	0x458a	; 0x458a <disk_read>
    26d8:	81 11       	cpse	r24, r1
    26da:	23 c0       	rjmp	.+70     	; 0x2722 <_ZL11chk_mountedPPKcPP5FATFSh+0x452>
    26dc:	ed 85       	ldd	r30, Y+13	; 0x0d
    26de:	fe 85       	ldd	r31, Y+14	; 0x0e
    26e0:	e0 5d       	subi	r30, 0xD0	; 208
    26e2:	fd 4f       	sbci	r31, 0xFD	; 253
    26e4:	80 81       	ld	r24, Z
    26e6:	91 81       	ldd	r25, Z+1	; 0x01
    26e8:	85 35       	cpi	r24, 0x55	; 85
    26ea:	9a 4a       	sbci	r25, 0xAA	; 170
    26ec:	e1 f4       	brne	.+56     	; 0x2726 <_ZL11chk_mountedPPKcPP5FATFSh+0x456>
    26ee:	ed 85       	ldd	r30, Y+13	; 0x0d
    26f0:	fe 85       	ldd	r31, Y+14	; 0x0e
    26f2:	82 a9       	ldd	r24, Z+50	; 0x32
    26f4:	93 a9       	ldd	r25, Z+51	; 0x33
    26f6:	a4 a9       	ldd	r26, Z+52	; 0x34
    26f8:	b5 a9       	ldd	r27, Z+53	; 0x35
    26fa:	82 35       	cpi	r24, 0x52	; 82
    26fc:	92 45       	sbci	r25, 0x52	; 82
    26fe:	a1 46       	sbci	r26, 0x61	; 97
    2700:	b1 44       	sbci	r27, 0x41	; 65
    2702:	99 f4       	brne	.+38     	; 0x272a <_ZL11chk_mountedPPKcPP5FATFSh+0x45a>
    2704:	ed 85       	ldd	r30, Y+13	; 0x0d
    2706:	fe 85       	ldd	r31, Y+14	; 0x0e
    2708:	ea 5e       	subi	r30, 0xEA	; 234
    270a:	fd 4f       	sbci	r31, 0xFD	; 253
    270c:	80 81       	ld	r24, Z
    270e:	91 81       	ldd	r25, Z+1	; 0x01
    2710:	a2 81       	ldd	r26, Z+2	; 0x02
    2712:	b3 81       	ldd	r27, Z+3	; 0x03
    2714:	82 37       	cpi	r24, 0x72	; 114
    2716:	92 47       	sbci	r25, 0x72	; 114
    2718:	a1 44       	sbci	r26, 0x41	; 65
    271a:	b1 46       	sbci	r27, 0x61	; 97
    271c:	41 f0       	breq	.+16     	; 0x272e <_ZL11chk_mountedPPKcPP5FATFSh+0x45e>
    271e:	80 e0       	ldi	r24, 0x00	; 0
    2720:	07 c0       	rjmp	.+14     	; 0x2730 <_ZL11chk_mountedPPKcPP5FATFSh+0x460>
    2722:	80 e0       	ldi	r24, 0x00	; 0
    2724:	05 c0       	rjmp	.+10     	; 0x2730 <_ZL11chk_mountedPPKcPP5FATFSh+0x460>
    2726:	80 e0       	ldi	r24, 0x00	; 0
    2728:	03 c0       	rjmp	.+6      	; 0x2730 <_ZL11chk_mountedPPKcPP5FATFSh+0x460>
    272a:	80 e0       	ldi	r24, 0x00	; 0
    272c:	01 c0       	rjmp	.+2      	; 0x2730 <_ZL11chk_mountedPPKcPP5FATFSh+0x460>
    272e:	81 e0       	ldi	r24, 0x01	; 1
    2730:	88 23       	and	r24, r24
    2732:	d1 f0       	breq	.+52     	; 0x2768 <_ZL11chk_mountedPPKcPP5FATFSh+0x498>
    2734:	ed 85       	ldd	r30, Y+13	; 0x0d
    2736:	fe 85       	ldd	r31, Y+14	; 0x0e
    2738:	e2 5e       	subi	r30, 0xE2	; 226
    273a:	fd 4f       	sbci	r31, 0xFD	; 253
    273c:	80 81       	ld	r24, Z
    273e:	91 81       	ldd	r25, Z+1	; 0x01
    2740:	a2 81       	ldd	r26, Z+2	; 0x02
    2742:	b3 81       	ldd	r27, Z+3	; 0x03
    2744:	ed 85       	ldd	r30, Y+13	; 0x0d
    2746:	fe 85       	ldd	r31, Y+14	; 0x0e
    2748:	82 87       	std	Z+10, r24	; 0x0a
    274a:	93 87       	std	Z+11, r25	; 0x0b
    274c:	a4 87       	std	Z+12, r26	; 0x0c
    274e:	b5 87       	std	Z+13, r27	; 0x0d
    2750:	e6 5e       	subi	r30, 0xE6	; 230
    2752:	fd 4f       	sbci	r31, 0xFD	; 253
    2754:	80 81       	ld	r24, Z
    2756:	91 81       	ldd	r25, Z+1	; 0x01
    2758:	a2 81       	ldd	r26, Z+2	; 0x02
    275a:	b3 81       	ldd	r27, Z+3	; 0x03
    275c:	ed 85       	ldd	r30, Y+13	; 0x0d
    275e:	fe 85       	ldd	r31, Y+14	; 0x0e
    2760:	86 87       	std	Z+14, r24	; 0x0e
    2762:	97 87       	std	Z+15, r25	; 0x0f
    2764:	a0 8b       	std	Z+16, r26	; 0x10
    2766:	b1 8b       	std	Z+17, r27	; 0x11
    2768:	ad 85       	ldd	r26, Y+13	; 0x0d
    276a:	be 85       	ldd	r27, Y+14	; 0x0e
    276c:	1c 93       	st	X, r17
    276e:	80 91 f6 03 	lds	r24, 0x03F6	; 0x8003f6 <_ZL4Fsid>
    2772:	90 91 f7 03 	lds	r25, 0x03F7	; 0x8003f7 <_ZL4Fsid+0x1>
    2776:	01 96       	adiw	r24, 0x01	; 1
    2778:	90 93 f7 03 	sts	0x03F7, r25	; 0x8003f7 <_ZL4Fsid+0x1>
    277c:	80 93 f6 03 	sts	0x03F6, r24	; 0x8003f6 <_ZL4Fsid>
    2780:	17 96       	adiw	r26, 0x07	; 7
    2782:	9c 93       	st	X, r25
    2784:	8e 93       	st	-X, r24
    2786:	16 97       	sbiw	r26, 0x06	; 6
    2788:	fd 01       	movw	r30, r26
    278a:	16 a6       	std	Z+46, r1	; 0x2e
    278c:	17 a6       	std	Z+47, r1	; 0x2f
    278e:	10 aa       	std	Z+48, r1	; 0x30
    2790:	11 aa       	std	Z+49, r1	; 0x31
    2792:	14 82       	std	Z+4, r1	; 0x04
    2794:	80 e0       	ldi	r24, 0x00	; 0
    2796:	25 c0       	rjmp	.+74     	; 0x27e2 <_ZL11chk_mountedPPKcPP5FATFSh+0x512>
    2798:	8b e0       	ldi	r24, 0x0B	; 11
    279a:	23 c0       	rjmp	.+70     	; 0x27e2 <_ZL11chk_mountedPPKcPP5FATFSh+0x512>
    279c:	8c e0       	ldi	r24, 0x0C	; 12
    279e:	21 c0       	rjmp	.+66     	; 0x27e2 <_ZL11chk_mountedPPKcPP5FATFSh+0x512>
    27a0:	80 e0       	ldi	r24, 0x00	; 0
    27a2:	1f c0       	rjmp	.+62     	; 0x27e2 <_ZL11chk_mountedPPKcPP5FATFSh+0x512>
    27a4:	8a e0       	ldi	r24, 0x0A	; 10
    27a6:	1d c0       	rjmp	.+58     	; 0x27e2 <_ZL11chk_mountedPPKcPP5FATFSh+0x512>
    27a8:	83 e0       	ldi	r24, 0x03	; 3
    27aa:	1b c0       	rjmp	.+54     	; 0x27e2 <_ZL11chk_mountedPPKcPP5FATFSh+0x512>
    27ac:	8a e0       	ldi	r24, 0x0A	; 10
    27ae:	19 c0       	rjmp	.+50     	; 0x27e2 <_ZL11chk_mountedPPKcPP5FATFSh+0x512>
    27b0:	81 e0       	ldi	r24, 0x01	; 1
    27b2:	17 c0       	rjmp	.+46     	; 0x27e2 <_ZL11chk_mountedPPKcPP5FATFSh+0x512>
    27b4:	8d e0       	ldi	r24, 0x0D	; 13
    27b6:	15 c0       	rjmp	.+42     	; 0x27e2 <_ZL11chk_mountedPPKcPP5FATFSh+0x512>
    27b8:	8d e0       	ldi	r24, 0x0D	; 13
    27ba:	13 c0       	rjmp	.+38     	; 0x27e2 <_ZL11chk_mountedPPKcPP5FATFSh+0x512>
    27bc:	8d e0       	ldi	r24, 0x0D	; 13
    27be:	11 c0       	rjmp	.+34     	; 0x27e2 <_ZL11chk_mountedPPKcPP5FATFSh+0x512>
    27c0:	8d e0       	ldi	r24, 0x0D	; 13
    27c2:	0f c0       	rjmp	.+30     	; 0x27e2 <_ZL11chk_mountedPPKcPP5FATFSh+0x512>
    27c4:	8d e0       	ldi	r24, 0x0D	; 13
    27c6:	0d c0       	rjmp	.+26     	; 0x27e2 <_ZL11chk_mountedPPKcPP5FATFSh+0x512>
    27c8:	8d e0       	ldi	r24, 0x0D	; 13
    27ca:	0b c0       	rjmp	.+22     	; 0x27e2 <_ZL11chk_mountedPPKcPP5FATFSh+0x512>
    27cc:	8d e0       	ldi	r24, 0x0D	; 13
    27ce:	09 c0       	rjmp	.+18     	; 0x27e2 <_ZL11chk_mountedPPKcPP5FATFSh+0x512>
    27d0:	8d e0       	ldi	r24, 0x0D	; 13
    27d2:	07 c0       	rjmp	.+14     	; 0x27e2 <_ZL11chk_mountedPPKcPP5FATFSh+0x512>
    27d4:	8d e0       	ldi	r24, 0x0D	; 13
    27d6:	05 c0       	rjmp	.+10     	; 0x27e2 <_ZL11chk_mountedPPKcPP5FATFSh+0x512>
    27d8:	8d e0       	ldi	r24, 0x0D	; 13
    27da:	03 c0       	rjmp	.+6      	; 0x27e2 <_ZL11chk_mountedPPKcPP5FATFSh+0x512>
    27dc:	8d e0       	ldi	r24, 0x0D	; 13
    27de:	01 c0       	rjmp	.+2      	; 0x27e2 <_ZL11chk_mountedPPKcPP5FATFSh+0x512>
    27e0:	8d e0       	ldi	r24, 0x0D	; 13
    27e2:	2e 96       	adiw	r28, 0x0e	; 14
    27e4:	0f b6       	in	r0, 0x3f	; 63
    27e6:	f8 94       	cli
    27e8:	de bf       	out	0x3e, r29	; 62
    27ea:	0f be       	out	0x3f, r0	; 63
    27ec:	cd bf       	out	0x3d, r28	; 61
    27ee:	df 91       	pop	r29
    27f0:	cf 91       	pop	r28
    27f2:	1f 91       	pop	r17
    27f4:	0f 91       	pop	r16
    27f6:	ff 90       	pop	r15
    27f8:	ef 90       	pop	r14
    27fa:	df 90       	pop	r13
    27fc:	cf 90       	pop	r12
    27fe:	bf 90       	pop	r11
    2800:	af 90       	pop	r10
    2802:	9f 90       	pop	r9
    2804:	8f 90       	pop	r8
    2806:	7f 90       	pop	r7
    2808:	6f 90       	pop	r6
    280a:	5f 90       	pop	r5
    280c:	4f 90       	pop	r4
    280e:	3f 90       	pop	r3
    2810:	2f 90       	pop	r2
    2812:	08 95       	ret

00002814 <_ZL7sync_fsP5FATFS>:
    2814:	ef 92       	push	r14
    2816:	ff 92       	push	r15
    2818:	0f 93       	push	r16
    281a:	1f 93       	push	r17
    281c:	cf 93       	push	r28
    281e:	df 93       	push	r29
    2820:	ec 01       	movw	r28, r24
    2822:	92 dc       	rcall	.-1756   	; 0x2148 <_ZL11sync_windowP5FATFS>
    2824:	18 2f       	mov	r17, r24
    2826:	81 11       	cpse	r24, r1
    2828:	52 c0       	rjmp	.+164    	; 0x28ce <_ZL7sync_fsP5FATFS+0xba>
    282a:	88 81       	ld	r24, Y
    282c:	83 30       	cpi	r24, 0x03	; 3
    282e:	09 f0       	breq	.+2      	; 0x2832 <_ZL7sync_fsP5FATFS+0x1e>
    2830:	46 c0       	rjmp	.+140    	; 0x28be <_ZL7sync_fsP5FATFS+0xaa>
    2832:	8d 81       	ldd	r24, Y+5	; 0x05
    2834:	88 23       	and	r24, r24
    2836:	09 f4       	brne	.+2      	; 0x283a <_ZL7sync_fsP5FATFS+0x26>
    2838:	42 c0       	rjmp	.+132    	; 0x28be <_ZL7sync_fsP5FATFS+0xaa>
    283a:	1e a6       	std	Y+46, r1	; 0x2e
    283c:	1f a6       	std	Y+47, r1	; 0x2f
    283e:	18 aa       	std	Y+48, r1	; 0x30
    2840:	19 aa       	std	Y+49, r1	; 0x31
    2842:	40 e0       	ldi	r20, 0x00	; 0
    2844:	52 e0       	ldi	r21, 0x02	; 2
    2846:	60 e0       	ldi	r22, 0x00	; 0
    2848:	70 e0       	ldi	r23, 0x00	; 0
    284a:	7e 01       	movw	r14, r28
    284c:	82 e3       	ldi	r24, 0x32	; 50
    284e:	e8 0e       	add	r14, r24
    2850:	f1 1c       	adc	r15, r1
    2852:	c7 01       	movw	r24, r14
    2854:	25 db       	rcall	.-2486   	; 0x1ea0 <_ZL7mem_setPvij>
    2856:	85 e5       	ldi	r24, 0x55	; 85
    2858:	9a ea       	ldi	r25, 0xAA	; 170
    285a:	fe 01       	movw	r30, r28
    285c:	e0 5d       	subi	r30, 0xD0	; 208
    285e:	fd 4f       	sbci	r31, 0xFD	; 253
    2860:	91 83       	std	Z+1, r25	; 0x01
    2862:	80 83       	st	Z, r24
    2864:	82 e5       	ldi	r24, 0x52	; 82
    2866:	92 e5       	ldi	r25, 0x52	; 82
    2868:	a1 e6       	ldi	r26, 0x61	; 97
    286a:	b1 e4       	ldi	r27, 0x41	; 65
    286c:	8a ab       	std	Y+50, r24	; 0x32
    286e:	9b ab       	std	Y+51, r25	; 0x33
    2870:	ac ab       	std	Y+52, r26	; 0x34
    2872:	bd ab       	std	Y+53, r27	; 0x35
    2874:	82 e7       	ldi	r24, 0x72	; 114
    2876:	92 e7       	ldi	r25, 0x72	; 114
    2878:	a1 e4       	ldi	r26, 0x41	; 65
    287a:	b1 e6       	ldi	r27, 0x61	; 97
    287c:	7a 97       	sbiw	r30, 0x1a	; 26
    287e:	80 83       	st	Z, r24
    2880:	91 83       	std	Z+1, r25	; 0x01
    2882:	a2 83       	std	Z+2, r26	; 0x02
    2884:	b3 83       	std	Z+3, r27	; 0x03
    2886:	8e 85       	ldd	r24, Y+14	; 0x0e
    2888:	9f 85       	ldd	r25, Y+15	; 0x0f
    288a:	a8 89       	ldd	r26, Y+16	; 0x10
    288c:	b9 89       	ldd	r27, Y+17	; 0x11
    288e:	34 96       	adiw	r30, 0x04	; 4
    2890:	80 83       	st	Z, r24
    2892:	91 83       	std	Z+1, r25	; 0x01
    2894:	a2 83       	std	Z+2, r26	; 0x02
    2896:	b3 83       	std	Z+3, r27	; 0x03
    2898:	8a 85       	ldd	r24, Y+10	; 0x0a
    289a:	9b 85       	ldd	r25, Y+11	; 0x0b
    289c:	ac 85       	ldd	r26, Y+12	; 0x0c
    289e:	bd 85       	ldd	r27, Y+13	; 0x0d
    28a0:	34 96       	adiw	r30, 0x04	; 4
    28a2:	80 83       	st	Z, r24
    28a4:	91 83       	std	Z+1, r25	; 0x01
    28a6:	a2 83       	std	Z+2, r26	; 0x02
    28a8:	b3 83       	std	Z+3, r27	; 0x03
    28aa:	2a 89       	ldd	r18, Y+18	; 0x12
    28ac:	3b 89       	ldd	r19, Y+19	; 0x13
    28ae:	4c 89       	ldd	r20, Y+20	; 0x14
    28b0:	5d 89       	ldd	r21, Y+21	; 0x15
    28b2:	01 e0       	ldi	r16, 0x01	; 1
    28b4:	b7 01       	movw	r22, r14
    28b6:	89 81       	ldd	r24, Y+1	; 0x01
    28b8:	0e 94 1b 23 	call	0x4636	; 0x4636 <disk_write>
    28bc:	1d 82       	std	Y+5, r1	; 0x05
    28be:	40 e0       	ldi	r20, 0x00	; 0
    28c0:	50 e0       	ldi	r21, 0x00	; 0
    28c2:	60 e0       	ldi	r22, 0x00	; 0
    28c4:	89 81       	ldd	r24, Y+1	; 0x01
    28c6:	0e 94 7a 23 	call	0x46f4	; 0x46f4 <disk_ioctl>
    28ca:	81 11       	cpse	r24, r1
    28cc:	11 e0       	ldi	r17, 0x01	; 1
    28ce:	81 2f       	mov	r24, r17
    28d0:	df 91       	pop	r29
    28d2:	cf 91       	pop	r28
    28d4:	1f 91       	pop	r17
    28d6:	0f 91       	pop	r16
    28d8:	ff 90       	pop	r15
    28da:	ef 90       	pop	r14
    28dc:	08 95       	ret

000028de <_Z10clust2sectP5FATFSm>:
    28de:	0f 93       	push	r16
    28e0:	1f 93       	push	r17
    28e2:	fc 01       	movw	r30, r24
    28e4:	9a 01       	movw	r18, r20
    28e6:	ab 01       	movw	r20, r22
    28e8:	22 50       	subi	r18, 0x02	; 2
    28ea:	31 09       	sbc	r19, r1
    28ec:	41 09       	sbc	r20, r1
    28ee:	51 09       	sbc	r21, r1
    28f0:	86 89       	ldd	r24, Z+22	; 0x16
    28f2:	97 89       	ldd	r25, Z+23	; 0x17
    28f4:	a0 8d       	ldd	r26, Z+24	; 0x18
    28f6:	b1 8d       	ldd	r27, Z+25	; 0x19
    28f8:	02 97       	sbiw	r24, 0x02	; 2
    28fa:	a1 09       	sbc	r26, r1
    28fc:	b1 09       	sbc	r27, r1
    28fe:	28 17       	cp	r18, r24
    2900:	39 07       	cpc	r19, r25
    2902:	4a 07       	cpc	r20, r26
    2904:	5b 07       	cpc	r21, r27
    2906:	68 f4       	brcc	.+26     	; 0x2922 <_Z10clust2sectP5FATFSm+0x44>
    2908:	a2 81       	ldd	r26, Z+2	; 0x02
    290a:	b0 e0       	ldi	r27, 0x00	; 0
    290c:	0e 94 64 24 	call	0x48c8	; 0x48c8 <__muluhisi3>
    2910:	02 a5       	ldd	r16, Z+42	; 0x2a
    2912:	13 a5       	ldd	r17, Z+43	; 0x2b
    2914:	24 a5       	ldd	r18, Z+44	; 0x2c
    2916:	35 a5       	ldd	r19, Z+45	; 0x2d
    2918:	60 0f       	add	r22, r16
    291a:	71 1f       	adc	r23, r17
    291c:	82 1f       	adc	r24, r18
    291e:	93 1f       	adc	r25, r19
    2920:	03 c0       	rjmp	.+6      	; 0x2928 <_Z10clust2sectP5FATFSm+0x4a>
    2922:	60 e0       	ldi	r22, 0x00	; 0
    2924:	70 e0       	ldi	r23, 0x00	; 0
    2926:	cb 01       	movw	r24, r22
    2928:	1f 91       	pop	r17
    292a:	0f 91       	pop	r16
    292c:	08 95       	ret

0000292e <_Z7get_fatP5FATFSm>:
    292e:	af 92       	push	r10
    2930:	bf 92       	push	r11
    2932:	cf 92       	push	r12
    2934:	df 92       	push	r13
    2936:	ef 92       	push	r14
    2938:	ff 92       	push	r15
    293a:	0f 93       	push	r16
    293c:	1f 93       	push	r17
    293e:	cf 93       	push	r28
    2940:	df 93       	push	r29
    2942:	42 30       	cpi	r20, 0x02	; 2
    2944:	51 05       	cpc	r21, r1
    2946:	61 05       	cpc	r22, r1
    2948:	71 05       	cpc	r23, r1
    294a:	08 f4       	brcc	.+2      	; 0x294e <_Z7get_fatP5FATFSm+0x20>
    294c:	b2 c0       	rjmp	.+356    	; 0x2ab2 <_Z7get_fatP5FATFSm+0x184>
    294e:	fc 01       	movw	r30, r24
    2950:	06 89       	ldd	r16, Z+22	; 0x16
    2952:	17 89       	ldd	r17, Z+23	; 0x17
    2954:	20 8d       	ldd	r18, Z+24	; 0x18
    2956:	31 8d       	ldd	r19, Z+25	; 0x19
    2958:	40 17       	cp	r20, r16
    295a:	51 07       	cpc	r21, r17
    295c:	62 07       	cpc	r22, r18
    295e:	73 07       	cpc	r23, r19
    2960:	08 f0       	brcs	.+2      	; 0x2964 <_Z7get_fatP5FATFSm+0x36>
    2962:	ac c0       	rjmp	.+344    	; 0x2abc <_Z7get_fatP5FATFSm+0x18e>
    2964:	6a 01       	movw	r12, r20
    2966:	7b 01       	movw	r14, r22
    2968:	ec 01       	movw	r28, r24
    296a:	80 81       	ld	r24, Z
    296c:	82 30       	cpi	r24, 0x02	; 2
    296e:	09 f4       	brne	.+2      	; 0x2972 <_Z7get_fatP5FATFSm+0x44>
    2970:	4d c0       	rjmp	.+154    	; 0x2a0c <_Z7get_fatP5FATFSm+0xde>
    2972:	83 30       	cpi	r24, 0x03	; 3
    2974:	09 f4       	brne	.+2      	; 0x2978 <_Z7get_fatP5FATFSm+0x4a>
    2976:	6d c0       	rjmp	.+218    	; 0x2a52 <_Z7get_fatP5FATFSm+0x124>
    2978:	81 30       	cpi	r24, 0x01	; 1
    297a:	09 f0       	breq	.+2      	; 0x297e <_Z7get_fatP5FATFSm+0x50>
    297c:	a4 c0       	rjmp	.+328    	; 0x2ac6 <_Z7get_fatP5FATFSm+0x198>
    297e:	5a 01       	movw	r10, r20
    2980:	b6 94       	lsr	r11
    2982:	a7 94       	ror	r10
    2984:	a4 0e       	add	r10, r20
    2986:	b5 1e       	adc	r11, r21
    2988:	42 a1       	ldd	r20, Z+34	; 0x22
    298a:	53 a1       	ldd	r21, Z+35	; 0x23
    298c:	64 a1       	ldd	r22, Z+36	; 0x24
    298e:	75 a1       	ldd	r23, Z+37	; 0x25
    2990:	c5 01       	movw	r24, r10
    2992:	89 2f       	mov	r24, r25
    2994:	99 27       	eor	r25, r25
    2996:	86 95       	lsr	r24
    2998:	48 0f       	add	r20, r24
    299a:	59 1f       	adc	r21, r25
    299c:	61 1d       	adc	r22, r1
    299e:	71 1d       	adc	r23, r1
    29a0:	cf 01       	movw	r24, r30
    29a2:	39 dc       	rcall	.-1934   	; 0x2216 <_ZL11move_windowP5FATFSm>
    29a4:	81 11       	cpse	r24, r1
    29a6:	93 c0       	rjmp	.+294    	; 0x2ace <_Z7get_fatP5FATFSm+0x1a0>
    29a8:	f5 01       	movw	r30, r10
    29aa:	f1 70       	andi	r31, 0x01	; 1
    29ac:	ec 0f       	add	r30, r28
    29ae:	fd 1f       	adc	r31, r29
    29b0:	02 a9       	ldd	r16, Z+50	; 0x32
    29b2:	10 e0       	ldi	r17, 0x00	; 0
    29b4:	ff ef       	ldi	r31, 0xFF	; 255
    29b6:	af 1a       	sub	r10, r31
    29b8:	bf 0a       	sbc	r11, r31
    29ba:	4a a1       	ldd	r20, Y+34	; 0x22
    29bc:	5b a1       	ldd	r21, Y+35	; 0x23
    29be:	6c a1       	ldd	r22, Y+36	; 0x24
    29c0:	7d a1       	ldd	r23, Y+37	; 0x25
    29c2:	c5 01       	movw	r24, r10
    29c4:	89 2f       	mov	r24, r25
    29c6:	99 27       	eor	r25, r25
    29c8:	86 95       	lsr	r24
    29ca:	48 0f       	add	r20, r24
    29cc:	59 1f       	adc	r21, r25
    29ce:	61 1d       	adc	r22, r1
    29d0:	71 1d       	adc	r23, r1
    29d2:	ce 01       	movw	r24, r28
    29d4:	20 dc       	rcall	.-1984   	; 0x2216 <_ZL11move_windowP5FATFSm>
    29d6:	81 11       	cpse	r24, r1
    29d8:	7e c0       	rjmp	.+252    	; 0x2ad6 <_Z7get_fatP5FATFSm+0x1a8>
    29da:	81 e0       	ldi	r24, 0x01	; 1
    29dc:	b8 22       	and	r11, r24
    29de:	ca 0d       	add	r28, r10
    29e0:	db 1d       	adc	r29, r11
    29e2:	6a a9       	ldd	r22, Y+50	; 0x32
    29e4:	70 e0       	ldi	r23, 0x00	; 0
    29e6:	76 2f       	mov	r23, r22
    29e8:	66 27       	eor	r22, r22
    29ea:	60 2b       	or	r22, r16
    29ec:	71 2b       	or	r23, r17
    29ee:	c0 fe       	sbrs	r12, 0
    29f0:	09 c0       	rjmp	.+18     	; 0x2a04 <_Z7get_fatP5FATFSm+0xd6>
    29f2:	72 95       	swap	r23
    29f4:	62 95       	swap	r22
    29f6:	6f 70       	andi	r22, 0x0F	; 15
    29f8:	67 27       	eor	r22, r23
    29fa:	7f 70       	andi	r23, 0x0F	; 15
    29fc:	67 27       	eor	r22, r23
    29fe:	80 e0       	ldi	r24, 0x00	; 0
    2a00:	90 e0       	ldi	r25, 0x00	; 0
    2a02:	74 c0       	rjmp	.+232    	; 0x2aec <_Z7get_fatP5FATFSm+0x1be>
    2a04:	7f 70       	andi	r23, 0x0F	; 15
    2a06:	80 e0       	ldi	r24, 0x00	; 0
    2a08:	90 e0       	ldi	r25, 0x00	; 0
    2a0a:	70 c0       	rjmp	.+224    	; 0x2aec <_Z7get_fatP5FATFSm+0x1be>
    2a0c:	42 a1       	ldd	r20, Z+34	; 0x22
    2a0e:	53 a1       	ldd	r21, Z+35	; 0x23
    2a10:	64 a1       	ldd	r22, Z+36	; 0x24
    2a12:	75 a1       	ldd	r23, Z+37	; 0x25
    2a14:	bb 27       	eor	r27, r27
    2a16:	af 2d       	mov	r26, r15
    2a18:	9e 2d       	mov	r25, r14
    2a1a:	8d 2d       	mov	r24, r13
    2a1c:	48 0f       	add	r20, r24
    2a1e:	59 1f       	adc	r21, r25
    2a20:	6a 1f       	adc	r22, r26
    2a22:	7b 1f       	adc	r23, r27
    2a24:	cf 01       	movw	r24, r30
    2a26:	f7 db       	rcall	.-2066   	; 0x2216 <_ZL11move_windowP5FATFSm>
    2a28:	81 11       	cpse	r24, r1
    2a2a:	59 c0       	rjmp	.+178    	; 0x2ade <_Z7get_fatP5FATFSm+0x1b0>
    2a2c:	b7 01       	movw	r22, r14
    2a2e:	a6 01       	movw	r20, r12
    2a30:	44 0f       	add	r20, r20
    2a32:	55 1f       	adc	r21, r21
    2a34:	66 1f       	adc	r22, r22
    2a36:	77 1f       	adc	r23, r23
    2a38:	4e 7f       	andi	r20, 0xFE	; 254
    2a3a:	51 70       	andi	r21, 0x01	; 1
    2a3c:	66 27       	eor	r22, r22
    2a3e:	77 27       	eor	r23, r23
    2a40:	4e 5c       	subi	r20, 0xCE	; 206
    2a42:	5f 4f       	sbci	r21, 0xFF	; 255
    2a44:	c4 0f       	add	r28, r20
    2a46:	d5 1f       	adc	r29, r21
    2a48:	68 81       	ld	r22, Y
    2a4a:	79 81       	ldd	r23, Y+1	; 0x01
    2a4c:	80 e0       	ldi	r24, 0x00	; 0
    2a4e:	90 e0       	ldi	r25, 0x00	; 0
    2a50:	4d c0       	rjmp	.+154    	; 0x2aec <_Z7get_fatP5FATFSm+0x1be>
    2a52:	42 a1       	ldd	r20, Z+34	; 0x22
    2a54:	53 a1       	ldd	r21, Z+35	; 0x23
    2a56:	64 a1       	ldd	r22, Z+36	; 0x24
    2a58:	75 a1       	ldd	r23, Z+37	; 0x25
    2a5a:	d7 01       	movw	r26, r14
    2a5c:	c6 01       	movw	r24, r12
    2a5e:	68 94       	set
    2a60:	16 f8       	bld	r1, 6
    2a62:	b6 95       	lsr	r27
    2a64:	a7 95       	ror	r26
    2a66:	97 95       	ror	r25
    2a68:	87 95       	ror	r24
    2a6a:	16 94       	lsr	r1
    2a6c:	d1 f7       	brne	.-12     	; 0x2a62 <_Z7get_fatP5FATFSm+0x134>
    2a6e:	48 0f       	add	r20, r24
    2a70:	59 1f       	adc	r21, r25
    2a72:	6a 1f       	adc	r22, r26
    2a74:	7b 1f       	adc	r23, r27
    2a76:	cf 01       	movw	r24, r30
    2a78:	ce db       	rcall	.-2148   	; 0x2216 <_ZL11move_windowP5FATFSm>
    2a7a:	81 11       	cpse	r24, r1
    2a7c:	34 c0       	rjmp	.+104    	; 0x2ae6 <_Z7get_fatP5FATFSm+0x1b8>
    2a7e:	b7 01       	movw	r22, r14
    2a80:	a6 01       	movw	r20, r12
    2a82:	44 0f       	add	r20, r20
    2a84:	55 1f       	adc	r21, r21
    2a86:	66 1f       	adc	r22, r22
    2a88:	77 1f       	adc	r23, r23
    2a8a:	44 0f       	add	r20, r20
    2a8c:	55 1f       	adc	r21, r21
    2a8e:	66 1f       	adc	r22, r22
    2a90:	77 1f       	adc	r23, r23
    2a92:	4c 7f       	andi	r20, 0xFC	; 252
    2a94:	51 70       	andi	r21, 0x01	; 1
    2a96:	66 27       	eor	r22, r22
    2a98:	77 27       	eor	r23, r23
    2a9a:	4e 5c       	subi	r20, 0xCE	; 206
    2a9c:	5f 4f       	sbci	r21, 0xFF	; 255
    2a9e:	c4 0f       	add	r28, r20
    2aa0:	d5 1f       	adc	r29, r21
    2aa2:	88 81       	ld	r24, Y
    2aa4:	99 81       	ldd	r25, Y+1	; 0x01
    2aa6:	aa 81       	ldd	r26, Y+2	; 0x02
    2aa8:	bb 81       	ldd	r27, Y+3	; 0x03
    2aaa:	bc 01       	movw	r22, r24
    2aac:	cd 01       	movw	r24, r26
    2aae:	9f 70       	andi	r25, 0x0F	; 15
    2ab0:	1d c0       	rjmp	.+58     	; 0x2aec <_Z7get_fatP5FATFSm+0x1be>
    2ab2:	61 e0       	ldi	r22, 0x01	; 1
    2ab4:	70 e0       	ldi	r23, 0x00	; 0
    2ab6:	80 e0       	ldi	r24, 0x00	; 0
    2ab8:	90 e0       	ldi	r25, 0x00	; 0
    2aba:	18 c0       	rjmp	.+48     	; 0x2aec <_Z7get_fatP5FATFSm+0x1be>
    2abc:	61 e0       	ldi	r22, 0x01	; 1
    2abe:	70 e0       	ldi	r23, 0x00	; 0
    2ac0:	80 e0       	ldi	r24, 0x00	; 0
    2ac2:	90 e0       	ldi	r25, 0x00	; 0
    2ac4:	13 c0       	rjmp	.+38     	; 0x2aec <_Z7get_fatP5FATFSm+0x1be>
    2ac6:	6f ef       	ldi	r22, 0xFF	; 255
    2ac8:	7f ef       	ldi	r23, 0xFF	; 255
    2aca:	cb 01       	movw	r24, r22
    2acc:	0f c0       	rjmp	.+30     	; 0x2aec <_Z7get_fatP5FATFSm+0x1be>
    2ace:	6f ef       	ldi	r22, 0xFF	; 255
    2ad0:	7f ef       	ldi	r23, 0xFF	; 255
    2ad2:	cb 01       	movw	r24, r22
    2ad4:	0b c0       	rjmp	.+22     	; 0x2aec <_Z7get_fatP5FATFSm+0x1be>
    2ad6:	6f ef       	ldi	r22, 0xFF	; 255
    2ad8:	7f ef       	ldi	r23, 0xFF	; 255
    2ada:	cb 01       	movw	r24, r22
    2adc:	07 c0       	rjmp	.+14     	; 0x2aec <_Z7get_fatP5FATFSm+0x1be>
    2ade:	6f ef       	ldi	r22, 0xFF	; 255
    2ae0:	7f ef       	ldi	r23, 0xFF	; 255
    2ae2:	cb 01       	movw	r24, r22
    2ae4:	03 c0       	rjmp	.+6      	; 0x2aec <_Z7get_fatP5FATFSm+0x1be>
    2ae6:	6f ef       	ldi	r22, 0xFF	; 255
    2ae8:	7f ef       	ldi	r23, 0xFF	; 255
    2aea:	cb 01       	movw	r24, r22
    2aec:	df 91       	pop	r29
    2aee:	cf 91       	pop	r28
    2af0:	1f 91       	pop	r17
    2af2:	0f 91       	pop	r16
    2af4:	ff 90       	pop	r15
    2af6:	ef 90       	pop	r14
    2af8:	df 90       	pop	r13
    2afa:	cf 90       	pop	r12
    2afc:	bf 90       	pop	r11
    2afe:	af 90       	pop	r10
    2b00:	08 95       	ret

00002b02 <_ZL7dir_sdiP3DIRt>:
    2b02:	ef 92       	push	r14
    2b04:	ff 92       	push	r15
    2b06:	0f 93       	push	r16
    2b08:	1f 93       	push	r17
    2b0a:	cf 93       	push	r28
    2b0c:	df 93       	push	r29
    2b0e:	ec 01       	movw	r28, r24
    2b10:	8b 01       	movw	r16, r22
    2b12:	7d 83       	std	Y+5, r23	; 0x05
    2b14:	6c 83       	std	Y+4, r22	; 0x04
    2b16:	4e 81       	ldd	r20, Y+6	; 0x06
    2b18:	5f 81       	ldd	r21, Y+7	; 0x07
    2b1a:	68 85       	ldd	r22, Y+8	; 0x08
    2b1c:	79 85       	ldd	r23, Y+9	; 0x09
    2b1e:	41 30       	cpi	r20, 0x01	; 1
    2b20:	51 05       	cpc	r21, r1
    2b22:	61 05       	cpc	r22, r1
    2b24:	71 05       	cpc	r23, r1
    2b26:	09 f4       	brne	.+2      	; 0x2b2a <_ZL7dir_sdiP3DIRt+0x28>
    2b28:	91 c0       	rjmp	.+290    	; 0x2c4c <_ZL7dir_sdiP3DIRt+0x14a>
    2b2a:	e8 81       	ld	r30, Y
    2b2c:	f9 81       	ldd	r31, Y+1	; 0x01
    2b2e:	86 89       	ldd	r24, Z+22	; 0x16
    2b30:	97 89       	ldd	r25, Z+23	; 0x17
    2b32:	a0 8d       	ldd	r26, Z+24	; 0x18
    2b34:	b1 8d       	ldd	r27, Z+25	; 0x19
    2b36:	48 17       	cp	r20, r24
    2b38:	59 07       	cpc	r21, r25
    2b3a:	6a 07       	cpc	r22, r26
    2b3c:	7b 07       	cpc	r23, r27
    2b3e:	08 f0       	brcs	.+2      	; 0x2b42 <_ZL7dir_sdiP3DIRt+0x40>
    2b40:	87 c0       	rjmp	.+270    	; 0x2c50 <_ZL7dir_sdiP3DIRt+0x14e>
    2b42:	41 15       	cp	r20, r1
    2b44:	51 05       	cpc	r21, r1
    2b46:	61 05       	cpc	r22, r1
    2b48:	71 05       	cpc	r23, r1
    2b4a:	39 f4       	brne	.+14     	; 0x2b5a <_ZL7dir_sdiP3DIRt+0x58>
    2b4c:	80 81       	ld	r24, Z
    2b4e:	83 30       	cpi	r24, 0x03	; 3
    2b50:	21 f4       	brne	.+8      	; 0x2b5a <_ZL7dir_sdiP3DIRt+0x58>
    2b52:	46 a1       	ldd	r20, Z+38	; 0x26
    2b54:	57 a1       	ldd	r21, Z+39	; 0x27
    2b56:	60 a5       	ldd	r22, Z+40	; 0x28
    2b58:	71 a5       	ldd	r23, Z+41	; 0x29
    2b5a:	41 15       	cp	r20, r1
    2b5c:	51 05       	cpc	r21, r1
    2b5e:	61 05       	cpc	r22, r1
    2b60:	71 05       	cpc	r23, r1
    2b62:	f1 f4       	brne	.+60     	; 0x2ba0 <_ZL7dir_sdiP3DIRt+0x9e>
    2b64:	4a 87       	std	Y+10, r20	; 0x0a
    2b66:	5b 87       	std	Y+11, r21	; 0x0b
    2b68:	6c 87       	std	Y+12, r22	; 0x0c
    2b6a:	7d 87       	std	Y+13, r23	; 0x0d
    2b6c:	80 85       	ldd	r24, Z+8	; 0x08
    2b6e:	91 85       	ldd	r25, Z+9	; 0x09
    2b70:	08 17       	cp	r16, r24
    2b72:	19 07       	cpc	r17, r25
    2b74:	08 f0       	brcs	.+2      	; 0x2b78 <_ZL7dir_sdiP3DIRt+0x76>
    2b76:	6e c0       	rjmp	.+220    	; 0x2c54 <_ZL7dir_sdiP3DIRt+0x152>
    2b78:	86 a1       	ldd	r24, Z+38	; 0x26
    2b7a:	97 a1       	ldd	r25, Z+39	; 0x27
    2b7c:	a0 a5       	ldd	r26, Z+40	; 0x28
    2b7e:	b1 a5       	ldd	r27, Z+41	; 0x29
    2b80:	98 01       	movw	r18, r16
    2b82:	32 95       	swap	r19
    2b84:	22 95       	swap	r18
    2b86:	2f 70       	andi	r18, 0x0F	; 15
    2b88:	23 27       	eor	r18, r19
    2b8a:	3f 70       	andi	r19, 0x0F	; 15
    2b8c:	23 27       	eor	r18, r19
    2b8e:	82 0f       	add	r24, r18
    2b90:	93 1f       	adc	r25, r19
    2b92:	a1 1d       	adc	r26, r1
    2b94:	b1 1d       	adc	r27, r1
    2b96:	8e 87       	std	Y+14, r24	; 0x0e
    2b98:	9f 87       	std	Y+15, r25	; 0x0f
    2b9a:	a8 8b       	std	Y+16, r26	; 0x10
    2b9c:	b9 8b       	std	Y+17, r27	; 0x11
    2b9e:	40 c0       	rjmp	.+128    	; 0x2c20 <_ZL7dir_sdiP3DIRt+0x11e>
    2ba0:	e2 80       	ldd	r14, Z+2	; 0x02
    2ba2:	80 e1       	ldi	r24, 0x10	; 16
    2ba4:	e8 9e       	mul	r14, r24
    2ba6:	70 01       	movw	r14, r0
    2ba8:	11 24       	eor	r1, r1
    2baa:	0e 15       	cp	r16, r14
    2bac:	1f 05       	cpc	r17, r15
    2bae:	00 f1       	brcs	.+64     	; 0x2bf0 <_ZL7dir_sdiP3DIRt+0xee>
    2bb0:	88 81       	ld	r24, Y
    2bb2:	99 81       	ldd	r25, Y+1	; 0x01
    2bb4:	bc de       	rcall	.-648    	; 0x292e <_Z7get_fatP5FATFSm>
    2bb6:	ab 01       	movw	r20, r22
    2bb8:	bc 01       	movw	r22, r24
    2bba:	4f 3f       	cpi	r20, 0xFF	; 255
    2bbc:	8f ef       	ldi	r24, 0xFF	; 255
    2bbe:	58 07       	cpc	r21, r24
    2bc0:	68 07       	cpc	r22, r24
    2bc2:	78 07       	cpc	r23, r24
    2bc4:	09 f4       	brne	.+2      	; 0x2bc8 <_ZL7dir_sdiP3DIRt+0xc6>
    2bc6:	48 c0       	rjmp	.+144    	; 0x2c58 <_ZL7dir_sdiP3DIRt+0x156>
    2bc8:	42 30       	cpi	r20, 0x02	; 2
    2bca:	51 05       	cpc	r21, r1
    2bcc:	61 05       	cpc	r22, r1
    2bce:	71 05       	cpc	r23, r1
    2bd0:	08 f4       	brcc	.+2      	; 0x2bd4 <_ZL7dir_sdiP3DIRt+0xd2>
    2bd2:	44 c0       	rjmp	.+136    	; 0x2c5c <_ZL7dir_sdiP3DIRt+0x15a>
    2bd4:	e8 81       	ld	r30, Y
    2bd6:	f9 81       	ldd	r31, Y+1	; 0x01
    2bd8:	86 89       	ldd	r24, Z+22	; 0x16
    2bda:	97 89       	ldd	r25, Z+23	; 0x17
    2bdc:	a0 8d       	ldd	r26, Z+24	; 0x18
    2bde:	b1 8d       	ldd	r27, Z+25	; 0x19
    2be0:	48 17       	cp	r20, r24
    2be2:	59 07       	cpc	r21, r25
    2be4:	6a 07       	cpc	r22, r26
    2be6:	7b 07       	cpc	r23, r27
    2be8:	d8 f5       	brcc	.+118    	; 0x2c60 <_ZL7dir_sdiP3DIRt+0x15e>
    2bea:	0e 19       	sub	r16, r14
    2bec:	1f 09       	sbc	r17, r15
    2bee:	dd cf       	rjmp	.-70     	; 0x2baa <_ZL7dir_sdiP3DIRt+0xa8>
    2bf0:	4a 87       	std	Y+10, r20	; 0x0a
    2bf2:	5b 87       	std	Y+11, r21	; 0x0b
    2bf4:	6c 87       	std	Y+12, r22	; 0x0c
    2bf6:	7d 87       	std	Y+13, r23	; 0x0d
    2bf8:	88 81       	ld	r24, Y
    2bfa:	99 81       	ldd	r25, Y+1	; 0x01
    2bfc:	70 de       	rcall	.-800    	; 0x28de <_Z10clust2sectP5FATFSm>
    2bfe:	98 01       	movw	r18, r16
    2c00:	32 95       	swap	r19
    2c02:	22 95       	swap	r18
    2c04:	2f 70       	andi	r18, 0x0F	; 15
    2c06:	23 27       	eor	r18, r19
    2c08:	3f 70       	andi	r19, 0x0F	; 15
    2c0a:	23 27       	eor	r18, r19
    2c0c:	dc 01       	movw	r26, r24
    2c0e:	cb 01       	movw	r24, r22
    2c10:	82 0f       	add	r24, r18
    2c12:	93 1f       	adc	r25, r19
    2c14:	a1 1d       	adc	r26, r1
    2c16:	b1 1d       	adc	r27, r1
    2c18:	8e 87       	std	Y+14, r24	; 0x0e
    2c1a:	9f 87       	std	Y+15, r25	; 0x0f
    2c1c:	a8 8b       	std	Y+16, r26	; 0x10
    2c1e:	b9 8b       	std	Y+17, r27	; 0x11
    2c20:	28 81       	ld	r18, Y
    2c22:	39 81       	ldd	r19, Y+1	; 0x01
    2c24:	0f 70       	andi	r16, 0x0F	; 15
    2c26:	11 27       	eor	r17, r17
    2c28:	c8 01       	movw	r24, r16
    2c2a:	88 0f       	add	r24, r24
    2c2c:	99 1f       	adc	r25, r25
    2c2e:	82 95       	swap	r24
    2c30:	92 95       	swap	r25
    2c32:	90 7f       	andi	r25, 0xF0	; 240
    2c34:	98 27       	eor	r25, r24
    2c36:	80 7f       	andi	r24, 0xF0	; 240
    2c38:	98 27       	eor	r25, r24
    2c3a:	89 01       	movw	r16, r18
    2c3c:	0e 5c       	subi	r16, 0xCE	; 206
    2c3e:	1f 4f       	sbci	r17, 0xFF	; 255
    2c40:	08 0f       	add	r16, r24
    2c42:	19 1f       	adc	r17, r25
    2c44:	1b 8b       	std	Y+19, r17	; 0x13
    2c46:	0a 8b       	std	Y+18, r16	; 0x12
    2c48:	80 e0       	ldi	r24, 0x00	; 0
    2c4a:	0b c0       	rjmp	.+22     	; 0x2c62 <_ZL7dir_sdiP3DIRt+0x160>
    2c4c:	82 e0       	ldi	r24, 0x02	; 2
    2c4e:	09 c0       	rjmp	.+18     	; 0x2c62 <_ZL7dir_sdiP3DIRt+0x160>
    2c50:	82 e0       	ldi	r24, 0x02	; 2
    2c52:	07 c0       	rjmp	.+14     	; 0x2c62 <_ZL7dir_sdiP3DIRt+0x160>
    2c54:	82 e0       	ldi	r24, 0x02	; 2
    2c56:	05 c0       	rjmp	.+10     	; 0x2c62 <_ZL7dir_sdiP3DIRt+0x160>
    2c58:	81 e0       	ldi	r24, 0x01	; 1
    2c5a:	03 c0       	rjmp	.+6      	; 0x2c62 <_ZL7dir_sdiP3DIRt+0x160>
    2c5c:	82 e0       	ldi	r24, 0x02	; 2
    2c5e:	01 c0       	rjmp	.+2      	; 0x2c62 <_ZL7dir_sdiP3DIRt+0x160>
    2c60:	82 e0       	ldi	r24, 0x02	; 2
    2c62:	df 91       	pop	r29
    2c64:	cf 91       	pop	r28
    2c66:	1f 91       	pop	r17
    2c68:	0f 91       	pop	r16
    2c6a:	ff 90       	pop	r15
    2c6c:	ef 90       	pop	r14
    2c6e:	08 95       	ret

00002c70 <_Z7put_fatP5FATFSmm>:
    2c70:	4f 92       	push	r4
    2c72:	5f 92       	push	r5
    2c74:	6f 92       	push	r6
    2c76:	7f 92       	push	r7
    2c78:	af 92       	push	r10
    2c7a:	bf 92       	push	r11
    2c7c:	cf 92       	push	r12
    2c7e:	df 92       	push	r13
    2c80:	ef 92       	push	r14
    2c82:	ff 92       	push	r15
    2c84:	0f 93       	push	r16
    2c86:	1f 93       	push	r17
    2c88:	cf 93       	push	r28
    2c8a:	df 93       	push	r29
    2c8c:	00 d0       	rcall	.+0      	; 0x2c8e <_Z7put_fatP5FATFSmm+0x1e>
    2c8e:	00 d0       	rcall	.+0      	; 0x2c90 <_Z7put_fatP5FATFSmm+0x20>
    2c90:	00 d0       	rcall	.+0      	; 0x2c92 <_Z7put_fatP5FATFSmm+0x22>
    2c92:	cd b7       	in	r28, 0x3d	; 61
    2c94:	de b7       	in	r29, 0x3e	; 62
    2c96:	42 30       	cpi	r20, 0x02	; 2
    2c98:	51 05       	cpc	r21, r1
    2c9a:	61 05       	cpc	r22, r1
    2c9c:	71 05       	cpc	r23, r1
    2c9e:	08 f4       	brcc	.+2      	; 0x2ca2 <_Z7put_fatP5FATFSmm+0x32>
    2ca0:	f4 c0       	rjmp	.+488    	; 0x2e8a <_Z7put_fatP5FATFSmm+0x21a>
    2ca2:	fc 01       	movw	r30, r24
    2ca4:	c6 88       	ldd	r12, Z+22	; 0x16
    2ca6:	d7 88       	ldd	r13, Z+23	; 0x17
    2ca8:	e0 8c       	ldd	r14, Z+24	; 0x18
    2caa:	f1 8c       	ldd	r15, Z+25	; 0x19
    2cac:	4c 15       	cp	r20, r12
    2cae:	5d 05       	cpc	r21, r13
    2cb0:	6e 05       	cpc	r22, r14
    2cb2:	7f 05       	cpc	r23, r15
    2cb4:	08 f0       	brcs	.+2      	; 0x2cb8 <_Z7put_fatP5FATFSmm+0x48>
    2cb6:	eb c0       	rjmp	.+470    	; 0x2e8e <_Z7put_fatP5FATFSmm+0x21e>
    2cb8:	28 01       	movw	r4, r16
    2cba:	39 01       	movw	r6, r18
    2cbc:	6a 01       	movw	r12, r20
    2cbe:	7b 01       	movw	r14, r22
    2cc0:	9e 83       	std	Y+6, r25	; 0x06
    2cc2:	8d 83       	std	Y+5, r24	; 0x05
    2cc4:	80 81       	ld	r24, Z
    2cc6:	82 30       	cpi	r24, 0x02	; 2
    2cc8:	09 f4       	brne	.+2      	; 0x2ccc <_Z7put_fatP5FATFSmm+0x5c>
    2cca:	75 c0       	rjmp	.+234    	; 0x2db6 <_Z7put_fatP5FATFSmm+0x146>
    2ccc:	83 30       	cpi	r24, 0x03	; 3
    2cce:	09 f4       	brne	.+2      	; 0x2cd2 <_Z7put_fatP5FATFSmm+0x62>
    2cd0:	98 c0       	rjmp	.+304    	; 0x2e02 <_Z7put_fatP5FATFSmm+0x192>
    2cd2:	81 30       	cpi	r24, 0x01	; 1
    2cd4:	09 f0       	breq	.+2      	; 0x2cd8 <_Z7put_fatP5FATFSmm+0x68>
    2cd6:	d3 c0       	rjmp	.+422    	; 0x2e7e <_Z7put_fatP5FATFSmm+0x20e>
    2cd8:	5a 01       	movw	r10, r20
    2cda:	b6 94       	lsr	r11
    2cdc:	a7 94       	ror	r10
    2cde:	a4 0e       	add	r10, r20
    2ce0:	b5 1e       	adc	r11, r21
    2ce2:	42 a1       	ldd	r20, Z+34	; 0x22
    2ce4:	53 a1       	ldd	r21, Z+35	; 0x23
    2ce6:	64 a1       	ldd	r22, Z+36	; 0x24
    2ce8:	75 a1       	ldd	r23, Z+37	; 0x25
    2cea:	c5 01       	movw	r24, r10
    2cec:	89 2f       	mov	r24, r25
    2cee:	99 27       	eor	r25, r25
    2cf0:	86 95       	lsr	r24
    2cf2:	48 0f       	add	r20, r24
    2cf4:	59 1f       	adc	r21, r25
    2cf6:	61 1d       	adc	r22, r1
    2cf8:	71 1d       	adc	r23, r1
    2cfa:	cf 01       	movw	r24, r30
    2cfc:	8c da       	rcall	.-2792   	; 0x2216 <_ZL11move_windowP5FATFSm>
    2cfe:	81 11       	cpse	r24, r1
    2d00:	bf c0       	rjmp	.+382    	; 0x2e80 <_Z7put_fatP5FATFSmm+0x210>
    2d02:	c5 01       	movw	r24, r10
    2d04:	91 70       	andi	r25, 0x01	; 1
    2d06:	a7 01       	movw	r20, r14
    2d08:	96 01       	movw	r18, r12
    2d0a:	21 70       	andi	r18, 0x01	; 1
    2d0c:	33 27       	eor	r19, r19
    2d0e:	44 27       	eor	r20, r20
    2d10:	55 27       	eor	r21, r21
    2d12:	29 83       	std	Y+1, r18	; 0x01
    2d14:	3a 83       	std	Y+2, r19	; 0x02
    2d16:	4b 83       	std	Y+3, r20	; 0x03
    2d18:	5c 83       	std	Y+4, r21	; 0x04
    2d1a:	c0 fe       	sbrs	r12, 0
    2d1c:	0c c0       	rjmp	.+24     	; 0x2d36 <_Z7put_fatP5FATFSmm+0xc6>
    2d1e:	40 e1       	ldi	r20, 0x10	; 16
    2d20:	44 9e       	mul	r4, r20
    2d22:	90 01       	movw	r18, r0
    2d24:	11 24       	eor	r1, r1
    2d26:	ed 81       	ldd	r30, Y+5	; 0x05
    2d28:	fe 81       	ldd	r31, Y+6	; 0x06
    2d2a:	e8 0f       	add	r30, r24
    2d2c:	f9 1f       	adc	r31, r25
    2d2e:	42 a9       	ldd	r20, Z+50	; 0x32
    2d30:	4f 70       	andi	r20, 0x0F	; 15
    2d32:	24 2b       	or	r18, r20
    2d34:	01 c0       	rjmp	.+2      	; 0x2d38 <_Z7put_fatP5FATFSmm+0xc8>
    2d36:	24 2d       	mov	r18, r4
    2d38:	ed 81       	ldd	r30, Y+5	; 0x05
    2d3a:	fe 81       	ldd	r31, Y+6	; 0x06
    2d3c:	e8 0f       	add	r30, r24
    2d3e:	f9 1f       	adc	r31, r25
    2d40:	22 ab       	std	Z+50, r18	; 0x32
    2d42:	5f ef       	ldi	r21, 0xFF	; 255
    2d44:	a5 1a       	sub	r10, r21
    2d46:	b5 0a       	sbc	r11, r21
    2d48:	81 e0       	ldi	r24, 0x01	; 1
    2d4a:	ed 81       	ldd	r30, Y+5	; 0x05
    2d4c:	fe 81       	ldd	r31, Y+6	; 0x06
    2d4e:	84 83       	std	Z+4, r24	; 0x04
    2d50:	42 a1       	ldd	r20, Z+34	; 0x22
    2d52:	53 a1       	ldd	r21, Z+35	; 0x23
    2d54:	64 a1       	ldd	r22, Z+36	; 0x24
    2d56:	75 a1       	ldd	r23, Z+37	; 0x25
    2d58:	c5 01       	movw	r24, r10
    2d5a:	89 2f       	mov	r24, r25
    2d5c:	99 27       	eor	r25, r25
    2d5e:	86 95       	lsr	r24
    2d60:	48 0f       	add	r20, r24
    2d62:	59 1f       	adc	r21, r25
    2d64:	61 1d       	adc	r22, r1
    2d66:	71 1d       	adc	r23, r1
    2d68:	cf 01       	movw	r24, r30
    2d6a:	55 da       	rcall	.-2902   	; 0x2216 <_ZL11move_windowP5FATFSm>
    2d6c:	81 11       	cpse	r24, r1
    2d6e:	88 c0       	rjmp	.+272    	; 0x2e80 <_Z7put_fatP5FATFSmm+0x210>
    2d70:	f1 e0       	ldi	r31, 0x01	; 1
    2d72:	bf 22       	and	r11, r31
    2d74:	29 81       	ldd	r18, Y+1	; 0x01
    2d76:	3a 81       	ldd	r19, Y+2	; 0x02
    2d78:	4b 81       	ldd	r20, Y+3	; 0x03
    2d7a:	5c 81       	ldd	r21, Y+4	; 0x04
    2d7c:	23 2b       	or	r18, r19
    2d7e:	24 2b       	or	r18, r20
    2d80:	25 2b       	or	r18, r21
    2d82:	49 f0       	breq	.+18     	; 0x2d96 <_Z7put_fatP5FATFSmm+0x126>
    2d84:	68 94       	set
    2d86:	13 f8       	bld	r1, 3
    2d88:	76 94       	lsr	r7
    2d8a:	67 94       	ror	r6
    2d8c:	57 94       	ror	r5
    2d8e:	47 94       	ror	r4
    2d90:	16 94       	lsr	r1
    2d92:	d1 f7       	brne	.-12     	; 0x2d88 <_Z7put_fatP5FATFSmm+0x118>
    2d94:	0a c0       	rjmp	.+20     	; 0x2daa <_Z7put_fatP5FATFSmm+0x13a>
    2d96:	ed 81       	ldd	r30, Y+5	; 0x05
    2d98:	fe 81       	ldd	r31, Y+6	; 0x06
    2d9a:	ea 0d       	add	r30, r10
    2d9c:	fb 1d       	adc	r31, r11
    2d9e:	22 a9       	ldd	r18, Z+50	; 0x32
    2da0:	20 7f       	andi	r18, 0xF0	; 240
    2da2:	95 2d       	mov	r25, r5
    2da4:	9f 70       	andi	r25, 0x0F	; 15
    2da6:	42 2e       	mov	r4, r18
    2da8:	49 2a       	or	r4, r25
    2daa:	ed 81       	ldd	r30, Y+5	; 0x05
    2dac:	fe 81       	ldd	r31, Y+6	; 0x06
    2dae:	ea 0d       	add	r30, r10
    2db0:	fb 1d       	adc	r31, r11
    2db2:	42 aa       	std	Z+50, r4	; 0x32
    2db4:	65 c0       	rjmp	.+202    	; 0x2e80 <_Z7put_fatP5FATFSmm+0x210>
    2db6:	ed 81       	ldd	r30, Y+5	; 0x05
    2db8:	fe 81       	ldd	r31, Y+6	; 0x06
    2dba:	42 a1       	ldd	r20, Z+34	; 0x22
    2dbc:	53 a1       	ldd	r21, Z+35	; 0x23
    2dbe:	64 a1       	ldd	r22, Z+36	; 0x24
    2dc0:	75 a1       	ldd	r23, Z+37	; 0x25
    2dc2:	bb 27       	eor	r27, r27
    2dc4:	af 2d       	mov	r26, r15
    2dc6:	9e 2d       	mov	r25, r14
    2dc8:	8d 2d       	mov	r24, r13
    2dca:	48 0f       	add	r20, r24
    2dcc:	59 1f       	adc	r21, r25
    2dce:	6a 1f       	adc	r22, r26
    2dd0:	7b 1f       	adc	r23, r27
    2dd2:	cf 01       	movw	r24, r30
    2dd4:	20 da       	rcall	.-3008   	; 0x2216 <_ZL11move_windowP5FATFSm>
    2dd6:	81 11       	cpse	r24, r1
    2dd8:	53 c0       	rjmp	.+166    	; 0x2e80 <_Z7put_fatP5FATFSmm+0x210>
    2dda:	cc 0c       	add	r12, r12
    2ddc:	dd 1c       	adc	r13, r13
    2dde:	ee 1c       	adc	r14, r14
    2de0:	ff 1c       	adc	r15, r15
    2de2:	e8 94       	clt
    2de4:	c0 f8       	bld	r12, 0
    2de6:	f1 e0       	ldi	r31, 0x01	; 1
    2de8:	df 22       	and	r13, r31
    2dea:	ee 24       	eor	r14, r14
    2dec:	ff 24       	eor	r15, r15
    2dee:	22 e3       	ldi	r18, 0x32	; 50
    2df0:	c2 0e       	add	r12, r18
    2df2:	d1 1c       	adc	r13, r1
    2df4:	ed 81       	ldd	r30, Y+5	; 0x05
    2df6:	fe 81       	ldd	r31, Y+6	; 0x06
    2df8:	ec 0d       	add	r30, r12
    2dfa:	fd 1d       	adc	r31, r13
    2dfc:	51 82       	std	Z+1, r5	; 0x01
    2dfe:	40 82       	st	Z, r4
    2e00:	3f c0       	rjmp	.+126    	; 0x2e80 <_Z7put_fatP5FATFSmm+0x210>
    2e02:	ed 81       	ldd	r30, Y+5	; 0x05
    2e04:	fe 81       	ldd	r31, Y+6	; 0x06
    2e06:	42 a1       	ldd	r20, Z+34	; 0x22
    2e08:	53 a1       	ldd	r21, Z+35	; 0x23
    2e0a:	64 a1       	ldd	r22, Z+36	; 0x24
    2e0c:	75 a1       	ldd	r23, Z+37	; 0x25
    2e0e:	d7 01       	movw	r26, r14
    2e10:	c6 01       	movw	r24, r12
    2e12:	68 94       	set
    2e14:	16 f8       	bld	r1, 6
    2e16:	b6 95       	lsr	r27
    2e18:	a7 95       	ror	r26
    2e1a:	97 95       	ror	r25
    2e1c:	87 95       	ror	r24
    2e1e:	16 94       	lsr	r1
    2e20:	d1 f7       	brne	.-12     	; 0x2e16 <_Z7put_fatP5FATFSmm+0x1a6>
    2e22:	48 0f       	add	r20, r24
    2e24:	59 1f       	adc	r21, r25
    2e26:	6a 1f       	adc	r22, r26
    2e28:	7b 1f       	adc	r23, r27
    2e2a:	cf 01       	movw	r24, r30
    2e2c:	f4 d9       	rcall	.-3096   	; 0x2216 <_ZL11move_windowP5FATFSm>
    2e2e:	81 11       	cpse	r24, r1
    2e30:	27 c0       	rjmp	.+78     	; 0x2e80 <_Z7put_fatP5FATFSmm+0x210>
    2e32:	cc 0c       	add	r12, r12
    2e34:	dd 1c       	adc	r13, r13
    2e36:	ee 1c       	adc	r14, r14
    2e38:	ff 1c       	adc	r15, r15
    2e3a:	cc 0c       	add	r12, r12
    2e3c:	dd 1c       	adc	r13, r13
    2e3e:	ee 1c       	adc	r14, r14
    2e40:	ff 1c       	adc	r15, r15
    2e42:	fc ef       	ldi	r31, 0xFC	; 252
    2e44:	cf 22       	and	r12, r31
    2e46:	f1 e0       	ldi	r31, 0x01	; 1
    2e48:	df 22       	and	r13, r31
    2e4a:	ee 24       	eor	r14, r14
    2e4c:	ff 24       	eor	r15, r15
    2e4e:	22 e3       	ldi	r18, 0x32	; 50
    2e50:	c2 0e       	add	r12, r18
    2e52:	d1 1c       	adc	r13, r1
    2e54:	ed 81       	ldd	r30, Y+5	; 0x05
    2e56:	fe 81       	ldd	r31, Y+6	; 0x06
    2e58:	ec 0d       	add	r30, r12
    2e5a:	fd 1d       	adc	r31, r13
    2e5c:	00 81       	ld	r16, Z
    2e5e:	11 81       	ldd	r17, Z+1	; 0x01
    2e60:	22 81       	ldd	r18, Z+2	; 0x02
    2e62:	33 81       	ldd	r19, Z+3	; 0x03
    2e64:	00 27       	eor	r16, r16
    2e66:	11 27       	eor	r17, r17
    2e68:	22 27       	eor	r18, r18
    2e6a:	30 7f       	andi	r19, 0xF0	; 240
    2e6c:	40 2a       	or	r4, r16
    2e6e:	51 2a       	or	r5, r17
    2e70:	62 2a       	or	r6, r18
    2e72:	73 2a       	or	r7, r19
    2e74:	40 82       	st	Z, r4
    2e76:	51 82       	std	Z+1, r5	; 0x01
    2e78:	62 82       	std	Z+2, r6	; 0x02
    2e7a:	73 82       	std	Z+3, r7	; 0x03
    2e7c:	01 c0       	rjmp	.+2      	; 0x2e80 <_Z7put_fatP5FATFSmm+0x210>
    2e7e:	82 e0       	ldi	r24, 0x02	; 2
    2e80:	91 e0       	ldi	r25, 0x01	; 1
    2e82:	ed 81       	ldd	r30, Y+5	; 0x05
    2e84:	fe 81       	ldd	r31, Y+6	; 0x06
    2e86:	94 83       	std	Z+4, r25	; 0x04
    2e88:	03 c0       	rjmp	.+6      	; 0x2e90 <_Z7put_fatP5FATFSmm+0x220>
    2e8a:	82 e0       	ldi	r24, 0x02	; 2
    2e8c:	01 c0       	rjmp	.+2      	; 0x2e90 <_Z7put_fatP5FATFSmm+0x220>
    2e8e:	82 e0       	ldi	r24, 0x02	; 2
    2e90:	26 96       	adiw	r28, 0x06	; 6
    2e92:	0f b6       	in	r0, 0x3f	; 63
    2e94:	f8 94       	cli
    2e96:	de bf       	out	0x3e, r29	; 62
    2e98:	0f be       	out	0x3f, r0	; 63
    2e9a:	cd bf       	out	0x3d, r28	; 61
    2e9c:	df 91       	pop	r29
    2e9e:	cf 91       	pop	r28
    2ea0:	1f 91       	pop	r17
    2ea2:	0f 91       	pop	r16
    2ea4:	ff 90       	pop	r15
    2ea6:	ef 90       	pop	r14
    2ea8:	df 90       	pop	r13
    2eaa:	cf 90       	pop	r12
    2eac:	bf 90       	pop	r11
    2eae:	af 90       	pop	r10
    2eb0:	7f 90       	pop	r7
    2eb2:	6f 90       	pop	r6
    2eb4:	5f 90       	pop	r5
    2eb6:	4f 90       	pop	r4
    2eb8:	08 95       	ret

00002eba <_ZL12create_chainP5FATFSm>:
    2eba:	4f 92       	push	r4
    2ebc:	5f 92       	push	r5
    2ebe:	6f 92       	push	r6
    2ec0:	7f 92       	push	r7
    2ec2:	8f 92       	push	r8
    2ec4:	9f 92       	push	r9
    2ec6:	af 92       	push	r10
    2ec8:	bf 92       	push	r11
    2eca:	cf 92       	push	r12
    2ecc:	df 92       	push	r13
    2ece:	ef 92       	push	r14
    2ed0:	ff 92       	push	r15
    2ed2:	0f 93       	push	r16
    2ed4:	1f 93       	push	r17
    2ed6:	cf 93       	push	r28
    2ed8:	df 93       	push	r29
    2eda:	ec 01       	movw	r28, r24
    2edc:	2a 01       	movw	r4, r20
    2ede:	3b 01       	movw	r6, r22
    2ee0:	41 15       	cp	r20, r1
    2ee2:	51 05       	cpc	r21, r1
    2ee4:	61 05       	cpc	r22, r1
    2ee6:	71 05       	cpc	r23, r1
    2ee8:	99 f4       	brne	.+38     	; 0x2f10 <_ZL12create_chainP5FATFSm+0x56>
    2eea:	8a 84       	ldd	r8, Y+10	; 0x0a
    2eec:	9b 84       	ldd	r9, Y+11	; 0x0b
    2eee:	ac 84       	ldd	r10, Y+12	; 0x0c
    2ef0:	bd 84       	ldd	r11, Y+13	; 0x0d
    2ef2:	81 14       	cp	r8, r1
    2ef4:	91 04       	cpc	r9, r1
    2ef6:	a1 04       	cpc	r10, r1
    2ef8:	b1 04       	cpc	r11, r1
    2efa:	f1 f0       	breq	.+60     	; 0x2f38 <_ZL12create_chainP5FATFSm+0x7e>
    2efc:	8e 89       	ldd	r24, Y+22	; 0x16
    2efe:	9f 89       	ldd	r25, Y+23	; 0x17
    2f00:	a8 8d       	ldd	r26, Y+24	; 0x18
    2f02:	b9 8d       	ldd	r27, Y+25	; 0x19
    2f04:	88 16       	cp	r8, r24
    2f06:	99 06       	cpc	r9, r25
    2f08:	aa 06       	cpc	r10, r26
    2f0a:	bb 06       	cpc	r11, r27
    2f0c:	d0 f4       	brcc	.+52     	; 0x2f42 <_ZL12create_chainP5FATFSm+0x88>
    2f0e:	1d c0       	rjmp	.+58     	; 0x2f4a <_ZL12create_chainP5FATFSm+0x90>
    2f10:	0e dd       	rcall	.-1508   	; 0x292e <_Z7get_fatP5FATFSm>
    2f12:	62 30       	cpi	r22, 0x02	; 2
    2f14:	71 05       	cpc	r23, r1
    2f16:	81 05       	cpc	r24, r1
    2f18:	91 05       	cpc	r25, r1
    2f1a:	08 f4       	brcc	.+2      	; 0x2f1e <_ZL12create_chainP5FATFSm+0x64>
    2f1c:	88 c0       	rjmp	.+272    	; 0x302e <_ZL12create_chainP5FATFSm+0x174>
    2f1e:	ce 88       	ldd	r12, Y+22	; 0x16
    2f20:	df 88       	ldd	r13, Y+23	; 0x17
    2f22:	e8 8c       	ldd	r14, Y+24	; 0x18
    2f24:	f9 8c       	ldd	r15, Y+25	; 0x19
    2f26:	6c 15       	cp	r22, r12
    2f28:	7d 05       	cpc	r23, r13
    2f2a:	8e 05       	cpc	r24, r14
    2f2c:	9f 05       	cpc	r25, r15
    2f2e:	08 f4       	brcc	.+2      	; 0x2f32 <_ZL12create_chainP5FATFSm+0x78>
    2f30:	83 c0       	rjmp	.+262    	; 0x3038 <_ZL12create_chainP5FATFSm+0x17e>
    2f32:	53 01       	movw	r10, r6
    2f34:	42 01       	movw	r8, r4
    2f36:	09 c0       	rjmp	.+18     	; 0x2f4a <_ZL12create_chainP5FATFSm+0x90>
    2f38:	81 2c       	mov	r8, r1
    2f3a:	91 2c       	mov	r9, r1
    2f3c:	54 01       	movw	r10, r8
    2f3e:	83 94       	inc	r8
    2f40:	04 c0       	rjmp	.+8      	; 0x2f4a <_ZL12create_chainP5FATFSm+0x90>
    2f42:	81 2c       	mov	r8, r1
    2f44:	91 2c       	mov	r9, r1
    2f46:	54 01       	movw	r10, r8
    2f48:	83 94       	inc	r8
    2f4a:	75 01       	movw	r14, r10
    2f4c:	64 01       	movw	r12, r8
    2f4e:	2f ef       	ldi	r18, 0xFF	; 255
    2f50:	c2 1a       	sub	r12, r18
    2f52:	d2 0a       	sbc	r13, r18
    2f54:	e2 0a       	sbc	r14, r18
    2f56:	f2 0a       	sbc	r15, r18
    2f58:	8e 89       	ldd	r24, Y+22	; 0x16
    2f5a:	9f 89       	ldd	r25, Y+23	; 0x17
    2f5c:	a8 8d       	ldd	r26, Y+24	; 0x18
    2f5e:	b9 8d       	ldd	r27, Y+25	; 0x19
    2f60:	c8 16       	cp	r12, r24
    2f62:	d9 06       	cpc	r13, r25
    2f64:	ea 06       	cpc	r14, r26
    2f66:	fb 06       	cpc	r15, r27
    2f68:	60 f0       	brcs	.+24     	; 0x2f82 <_ZL12create_chainP5FATFSm+0xc8>
    2f6a:	82 e0       	ldi	r24, 0x02	; 2
    2f6c:	88 16       	cp	r8, r24
    2f6e:	91 04       	cpc	r9, r1
    2f70:	a1 04       	cpc	r10, r1
    2f72:	b1 04       	cpc	r11, r1
    2f74:	08 f4       	brcc	.+2      	; 0x2f78 <_ZL12create_chainP5FATFSm+0xbe>
    2f76:	64 c0       	rjmp	.+200    	; 0x3040 <_ZL12create_chainP5FATFSm+0x186>
    2f78:	c1 2c       	mov	r12, r1
    2f7a:	d1 2c       	mov	r13, r1
    2f7c:	76 01       	movw	r14, r12
    2f7e:	68 94       	set
    2f80:	c1 f8       	bld	r12, 1
    2f82:	b7 01       	movw	r22, r14
    2f84:	a6 01       	movw	r20, r12
    2f86:	ce 01       	movw	r24, r28
    2f88:	d2 dc       	rcall	.-1628   	; 0x292e <_Z7get_fatP5FATFSm>
    2f8a:	61 15       	cp	r22, r1
    2f8c:	71 05       	cpc	r23, r1
    2f8e:	81 05       	cpc	r24, r1
    2f90:	91 05       	cpc	r25, r1
    2f92:	99 f0       	breq	.+38     	; 0x2fba <_ZL12create_chainP5FATFSm+0x100>
    2f94:	6f 3f       	cpi	r22, 0xFF	; 255
    2f96:	2f ef       	ldi	r18, 0xFF	; 255
    2f98:	72 07       	cpc	r23, r18
    2f9a:	82 07       	cpc	r24, r18
    2f9c:	92 07       	cpc	r25, r18
    2f9e:	09 f4       	brne	.+2      	; 0x2fa2 <_ZL12create_chainP5FATFSm+0xe8>
    2fa0:	54 c0       	rjmp	.+168    	; 0x304a <_ZL12create_chainP5FATFSm+0x190>
    2fa2:	61 30       	cpi	r22, 0x01	; 1
    2fa4:	71 05       	cpc	r23, r1
    2fa6:	81 05       	cpc	r24, r1
    2fa8:	91 05       	cpc	r25, r1
    2faa:	09 f4       	brne	.+2      	; 0x2fae <_ZL12create_chainP5FATFSm+0xf4>
    2fac:	52 c0       	rjmp	.+164    	; 0x3052 <_ZL12create_chainP5FATFSm+0x198>
    2fae:	c8 14       	cp	r12, r8
    2fb0:	d9 04       	cpc	r13, r9
    2fb2:	ea 04       	cpc	r14, r10
    2fb4:	fb 04       	cpc	r15, r11
    2fb6:	59 f6       	brne	.-106    	; 0x2f4e <_ZL12create_chainP5FATFSm+0x94>
    2fb8:	50 c0       	rjmp	.+160    	; 0x305a <_ZL12create_chainP5FATFSm+0x1a0>
    2fba:	0f ef       	ldi	r16, 0xFF	; 255
    2fbc:	1f ef       	ldi	r17, 0xFF	; 255
    2fbe:	2f ef       	ldi	r18, 0xFF	; 255
    2fc0:	3f e0       	ldi	r19, 0x0F	; 15
    2fc2:	b7 01       	movw	r22, r14
    2fc4:	a6 01       	movw	r20, r12
    2fc6:	ce 01       	movw	r24, r28
    2fc8:	53 de       	rcall	.-858    	; 0x2c70 <_Z7put_fatP5FATFSmm>
    2fca:	81 11       	cpse	r24, r1
    2fcc:	0b c0       	rjmp	.+22     	; 0x2fe4 <_ZL12create_chainP5FATFSm+0x12a>
    2fce:	41 14       	cp	r4, r1
    2fd0:	51 04       	cpc	r5, r1
    2fd2:	61 04       	cpc	r6, r1
    2fd4:	71 04       	cpc	r7, r1
    2fd6:	31 f0       	breq	.+12     	; 0x2fe4 <_ZL12create_chainP5FATFSm+0x12a>
    2fd8:	97 01       	movw	r18, r14
    2fda:	86 01       	movw	r16, r12
    2fdc:	b3 01       	movw	r22, r6
    2fde:	a2 01       	movw	r20, r4
    2fe0:	ce 01       	movw	r24, r28
    2fe2:	46 de       	rcall	.-884    	; 0x2c70 <_Z7put_fatP5FATFSmm>
    2fe4:	81 11       	cpse	r24, r1
    2fe6:	1c c0       	rjmp	.+56     	; 0x3020 <_ZL12create_chainP5FATFSm+0x166>
    2fe8:	ca 86       	std	Y+10, r12	; 0x0a
    2fea:	db 86       	std	Y+11, r13	; 0x0b
    2fec:	ec 86       	std	Y+12, r14	; 0x0c
    2fee:	fd 86       	std	Y+13, r15	; 0x0d
    2ff0:	8e 85       	ldd	r24, Y+14	; 0x0e
    2ff2:	9f 85       	ldd	r25, Y+15	; 0x0f
    2ff4:	a8 89       	ldd	r26, Y+16	; 0x10
    2ff6:	b9 89       	ldd	r27, Y+17	; 0x11
    2ff8:	8f 3f       	cpi	r24, 0xFF	; 255
    2ffa:	2f ef       	ldi	r18, 0xFF	; 255
    2ffc:	92 07       	cpc	r25, r18
    2ffe:	a2 07       	cpc	r26, r18
    3000:	b2 07       	cpc	r27, r18
    3002:	81 f1       	breq	.+96     	; 0x3064 <_ZL12create_chainP5FATFSm+0x1aa>
    3004:	01 97       	sbiw	r24, 0x01	; 1
    3006:	a1 09       	sbc	r26, r1
    3008:	b1 09       	sbc	r27, r1
    300a:	8e 87       	std	Y+14, r24	; 0x0e
    300c:	9f 87       	std	Y+15, r25	; 0x0f
    300e:	a8 8b       	std	Y+16, r26	; 0x10
    3010:	b9 8b       	std	Y+17, r27	; 0x11
    3012:	81 e0       	ldi	r24, 0x01	; 1
    3014:	8d 83       	std	Y+5, r24	; 0x05
    3016:	4c 2d       	mov	r20, r12
    3018:	3d 2d       	mov	r19, r13
    301a:	2e 2d       	mov	r18, r14
    301c:	9f 2d       	mov	r25, r15
    301e:	2b c0       	rjmp	.+86     	; 0x3076 <_ZL12create_chainP5FATFSm+0x1bc>
    3020:	81 30       	cpi	r24, 0x01	; 1
    3022:	29 f5       	brne	.+74     	; 0x306e <_ZL12create_chainP5FATFSm+0x1b4>
    3024:	4f ef       	ldi	r20, 0xFF	; 255
    3026:	3f ef       	ldi	r19, 0xFF	; 255
    3028:	2f ef       	ldi	r18, 0xFF	; 255
    302a:	9f ef       	ldi	r25, 0xFF	; 255
    302c:	24 c0       	rjmp	.+72     	; 0x3076 <_ZL12create_chainP5FATFSm+0x1bc>
    302e:	41 e0       	ldi	r20, 0x01	; 1
    3030:	30 e0       	ldi	r19, 0x00	; 0
    3032:	20 e0       	ldi	r18, 0x00	; 0
    3034:	90 e0       	ldi	r25, 0x00	; 0
    3036:	1f c0       	rjmp	.+62     	; 0x3076 <_ZL12create_chainP5FATFSm+0x1bc>
    3038:	46 2f       	mov	r20, r22
    303a:	37 2f       	mov	r19, r23
    303c:	28 2f       	mov	r18, r24
    303e:	1b c0       	rjmp	.+54     	; 0x3076 <_ZL12create_chainP5FATFSm+0x1bc>
    3040:	40 e0       	ldi	r20, 0x00	; 0
    3042:	30 e0       	ldi	r19, 0x00	; 0
    3044:	20 e0       	ldi	r18, 0x00	; 0
    3046:	90 e0       	ldi	r25, 0x00	; 0
    3048:	16 c0       	rjmp	.+44     	; 0x3076 <_ZL12create_chainP5FATFSm+0x1bc>
    304a:	46 2f       	mov	r20, r22
    304c:	37 2f       	mov	r19, r23
    304e:	28 2f       	mov	r18, r24
    3050:	12 c0       	rjmp	.+36     	; 0x3076 <_ZL12create_chainP5FATFSm+0x1bc>
    3052:	46 2f       	mov	r20, r22
    3054:	37 2f       	mov	r19, r23
    3056:	28 2f       	mov	r18, r24
    3058:	0e c0       	rjmp	.+28     	; 0x3076 <_ZL12create_chainP5FATFSm+0x1bc>
    305a:	40 e0       	ldi	r20, 0x00	; 0
    305c:	30 e0       	ldi	r19, 0x00	; 0
    305e:	20 e0       	ldi	r18, 0x00	; 0
    3060:	90 e0       	ldi	r25, 0x00	; 0
    3062:	09 c0       	rjmp	.+18     	; 0x3076 <_ZL12create_chainP5FATFSm+0x1bc>
    3064:	4c 2d       	mov	r20, r12
    3066:	3d 2d       	mov	r19, r13
    3068:	2e 2d       	mov	r18, r14
    306a:	9f 2d       	mov	r25, r15
    306c:	04 c0       	rjmp	.+8      	; 0x3076 <_ZL12create_chainP5FATFSm+0x1bc>
    306e:	41 e0       	ldi	r20, 0x01	; 1
    3070:	30 e0       	ldi	r19, 0x00	; 0
    3072:	20 e0       	ldi	r18, 0x00	; 0
    3074:	90 e0       	ldi	r25, 0x00	; 0
    3076:	64 2f       	mov	r22, r20
    3078:	73 2f       	mov	r23, r19
    307a:	82 2f       	mov	r24, r18
    307c:	df 91       	pop	r29
    307e:	cf 91       	pop	r28
    3080:	1f 91       	pop	r17
    3082:	0f 91       	pop	r16
    3084:	ff 90       	pop	r15
    3086:	ef 90       	pop	r14
    3088:	df 90       	pop	r13
    308a:	cf 90       	pop	r12
    308c:	bf 90       	pop	r11
    308e:	af 90       	pop	r10
    3090:	9f 90       	pop	r9
    3092:	8f 90       	pop	r8
    3094:	7f 90       	pop	r7
    3096:	6f 90       	pop	r6
    3098:	5f 90       	pop	r5
    309a:	4f 90       	pop	r4
    309c:	08 95       	ret

0000309e <_ZL8dir_nextP3DIRi>:
    309e:	8f 92       	push	r8
    30a0:	9f 92       	push	r9
    30a2:	af 92       	push	r10
    30a4:	bf 92       	push	r11
    30a6:	cf 92       	push	r12
    30a8:	df 92       	push	r13
    30aa:	ef 92       	push	r14
    30ac:	ff 92       	push	r15
    30ae:	0f 93       	push	r16
    30b0:	1f 93       	push	r17
    30b2:	cf 93       	push	r28
    30b4:	df 93       	push	r29
    30b6:	dc 01       	movw	r26, r24
    30b8:	14 96       	adiw	r26, 0x04	; 4
    30ba:	cd 91       	ld	r28, X+
    30bc:	dc 91       	ld	r29, X
    30be:	15 97       	sbiw	r26, 0x05	; 5
    30c0:	21 96       	adiw	r28, 0x01	; 1
    30c2:	09 f4       	brne	.+2      	; 0x30c6 <_ZL8dir_nextP3DIRi+0x28>
    30c4:	f6 c0       	rjmp	.+492    	; 0x32b2 <_ZL8dir_nextP3DIRi+0x214>
    30c6:	1e 96       	adiw	r26, 0x0e	; 14
    30c8:	8d 90       	ld	r8, X+
    30ca:	9d 90       	ld	r9, X+
    30cc:	ad 90       	ld	r10, X+
    30ce:	bc 90       	ld	r11, X
    30d0:	51 97       	sbiw	r26, 0x11	; 17
    30d2:	81 14       	cp	r8, r1
    30d4:	91 04       	cpc	r9, r1
    30d6:	a1 04       	cpc	r10, r1
    30d8:	b1 04       	cpc	r11, r1
    30da:	09 f4       	brne	.+2      	; 0x30de <_ZL8dir_nextP3DIRi+0x40>
    30dc:	ec c0       	rjmp	.+472    	; 0x32b6 <_ZL8dir_nextP3DIRi+0x218>
    30de:	7b 01       	movw	r14, r22
    30e0:	8c 01       	movw	r16, r24
    30e2:	6e 01       	movw	r12, r28
    30e4:	bf e0       	ldi	r27, 0x0F	; 15
    30e6:	cb 22       	and	r12, r27
    30e8:	dd 24       	eor	r13, r13
    30ea:	c1 14       	cp	r12, r1
    30ec:	d1 04       	cpc	r13, r1
    30ee:	09 f0       	breq	.+2      	; 0x30f2 <_ZL8dir_nextP3DIRi+0x54>
    30f0:	ca c0       	rjmp	.+404    	; 0x3286 <_ZL8dir_nextP3DIRi+0x1e8>
    30f2:	ef ef       	ldi	r30, 0xFF	; 255
    30f4:	8e 1a       	sub	r8, r30
    30f6:	9e 0a       	sbc	r9, r30
    30f8:	ae 0a       	sbc	r10, r30
    30fa:	be 0a       	sbc	r11, r30
    30fc:	dc 01       	movw	r26, r24
    30fe:	1e 96       	adiw	r26, 0x0e	; 14
    3100:	8d 92       	st	X+, r8
    3102:	9d 92       	st	X+, r9
    3104:	ad 92       	st	X+, r10
    3106:	bc 92       	st	X, r11
    3108:	51 97       	sbiw	r26, 0x11	; 17
    310a:	1a 96       	adiw	r26, 0x0a	; 10
    310c:	4d 91       	ld	r20, X+
    310e:	5d 91       	ld	r21, X+
    3110:	6d 91       	ld	r22, X+
    3112:	7c 91       	ld	r23, X
    3114:	1d 97       	sbiw	r26, 0x0d	; 13
    3116:	41 15       	cp	r20, r1
    3118:	51 05       	cpc	r21, r1
    311a:	61 05       	cpc	r22, r1
    311c:	71 05       	cpc	r23, r1
    311e:	49 f4       	brne	.+18     	; 0x3132 <_ZL8dir_nextP3DIRi+0x94>
    3120:	ed 91       	ld	r30, X+
    3122:	fc 91       	ld	r31, X
    3124:	80 85       	ldd	r24, Z+8	; 0x08
    3126:	91 85       	ldd	r25, Z+9	; 0x09
    3128:	c8 17       	cp	r28, r24
    312a:	d9 07       	cpc	r29, r25
    312c:	08 f0       	brcs	.+2      	; 0x3130 <_ZL8dir_nextP3DIRi+0x92>
    312e:	c5 c0       	rjmp	.+394    	; 0x32ba <_ZL8dir_nextP3DIRi+0x21c>
    3130:	aa c0       	rjmp	.+340    	; 0x3286 <_ZL8dir_nextP3DIRi+0x1e8>
    3132:	dc 01       	movw	r26, r24
    3134:	ed 91       	ld	r30, X+
    3136:	fc 91       	ld	r31, X
    3138:	22 81       	ldd	r18, Z+2	; 0x02
    313a:	30 e0       	ldi	r19, 0x00	; 0
    313c:	21 50       	subi	r18, 0x01	; 1
    313e:	31 09       	sbc	r19, r1
    3140:	ce 01       	movw	r24, r28
    3142:	92 95       	swap	r25
    3144:	82 95       	swap	r24
    3146:	8f 70       	andi	r24, 0x0F	; 15
    3148:	89 27       	eor	r24, r25
    314a:	9f 70       	andi	r25, 0x0F	; 15
    314c:	89 27       	eor	r24, r25
    314e:	28 23       	and	r18, r24
    3150:	39 23       	and	r19, r25
    3152:	23 2b       	or	r18, r19
    3154:	09 f0       	breq	.+2      	; 0x3158 <_ZL8dir_nextP3DIRi+0xba>
    3156:	97 c0       	rjmp	.+302    	; 0x3286 <_ZL8dir_nextP3DIRi+0x1e8>
    3158:	cf 01       	movw	r24, r30
    315a:	e9 db       	rcall	.-2094   	; 0x292e <_Z7get_fatP5FATFSm>
    315c:	4b 01       	movw	r8, r22
    315e:	5c 01       	movw	r10, r24
    3160:	62 30       	cpi	r22, 0x02	; 2
    3162:	71 05       	cpc	r23, r1
    3164:	81 05       	cpc	r24, r1
    3166:	91 05       	cpc	r25, r1
    3168:	08 f4       	brcc	.+2      	; 0x316c <_ZL8dir_nextP3DIRi+0xce>
    316a:	a9 c0       	rjmp	.+338    	; 0x32be <_ZL8dir_nextP3DIRi+0x220>
    316c:	6f 3f       	cpi	r22, 0xFF	; 255
    316e:	7f 4f       	sbci	r23, 0xFF	; 255
    3170:	8f 4f       	sbci	r24, 0xFF	; 255
    3172:	9f 4f       	sbci	r25, 0xFF	; 255
    3174:	09 f4       	brne	.+2      	; 0x3178 <_ZL8dir_nextP3DIRi+0xda>
    3176:	a5 c0       	rjmp	.+330    	; 0x32c2 <_ZL8dir_nextP3DIRi+0x224>
    3178:	d8 01       	movw	r26, r16
    317a:	ed 91       	ld	r30, X+
    317c:	fc 91       	ld	r31, X
    317e:	86 89       	ldd	r24, Z+22	; 0x16
    3180:	97 89       	ldd	r25, Z+23	; 0x17
    3182:	a0 8d       	ldd	r26, Z+24	; 0x18
    3184:	b1 8d       	ldd	r27, Z+25	; 0x19
    3186:	88 16       	cp	r8, r24
    3188:	99 06       	cpc	r9, r25
    318a:	aa 06       	cpc	r10, r26
    318c:	bb 06       	cpc	r11, r27
    318e:	08 f4       	brcc	.+2      	; 0x3192 <_ZL8dir_nextP3DIRi+0xf4>
    3190:	69 c0       	rjmp	.+210    	; 0x3264 <_ZL8dir_nextP3DIRi+0x1c6>
    3192:	ef 28       	or	r14, r15
    3194:	09 f4       	brne	.+2      	; 0x3198 <_ZL8dir_nextP3DIRi+0xfa>
    3196:	97 c0       	rjmp	.+302    	; 0x32c6 <_ZL8dir_nextP3DIRi+0x228>
    3198:	d8 01       	movw	r26, r16
    319a:	1a 96       	adiw	r26, 0x0a	; 10
    319c:	4d 91       	ld	r20, X+
    319e:	5d 91       	ld	r21, X+
    31a0:	6d 91       	ld	r22, X+
    31a2:	7c 91       	ld	r23, X
    31a4:	1d 97       	sbiw	r26, 0x0d	; 13
    31a6:	cf 01       	movw	r24, r30
    31a8:	88 de       	rcall	.-752    	; 0x2eba <_ZL12create_chainP5FATFSm>
    31aa:	4b 01       	movw	r8, r22
    31ac:	5c 01       	movw	r10, r24
    31ae:	61 15       	cp	r22, r1
    31b0:	71 05       	cpc	r23, r1
    31b2:	81 05       	cpc	r24, r1
    31b4:	91 05       	cpc	r25, r1
    31b6:	09 f4       	brne	.+2      	; 0x31ba <_ZL8dir_nextP3DIRi+0x11c>
    31b8:	88 c0       	rjmp	.+272    	; 0x32ca <_ZL8dir_nextP3DIRi+0x22c>
    31ba:	61 30       	cpi	r22, 0x01	; 1
    31bc:	71 05       	cpc	r23, r1
    31be:	81 05       	cpc	r24, r1
    31c0:	91 05       	cpc	r25, r1
    31c2:	09 f4       	brne	.+2      	; 0x31c6 <_ZL8dir_nextP3DIRi+0x128>
    31c4:	84 c0       	rjmp	.+264    	; 0x32ce <_ZL8dir_nextP3DIRi+0x230>
    31c6:	6f 3f       	cpi	r22, 0xFF	; 255
    31c8:	7f 4f       	sbci	r23, 0xFF	; 255
    31ca:	8f 4f       	sbci	r24, 0xFF	; 255
    31cc:	9f 4f       	sbci	r25, 0xFF	; 255
    31ce:	09 f4       	brne	.+2      	; 0x31d2 <_ZL8dir_nextP3DIRi+0x134>
    31d0:	80 c0       	rjmp	.+256    	; 0x32d2 <_ZL8dir_nextP3DIRi+0x234>
    31d2:	d8 01       	movw	r26, r16
    31d4:	8d 91       	ld	r24, X+
    31d6:	9c 91       	ld	r25, X
    31d8:	0e 94 a4 10 	call	0x2148	; 0x2148 <_ZL11sync_windowP5FATFS>
    31dc:	81 11       	cpse	r24, r1
    31de:	7b c0       	rjmp	.+246    	; 0x32d6 <_ZL8dir_nextP3DIRi+0x238>
    31e0:	f8 01       	movw	r30, r16
    31e2:	80 81       	ld	r24, Z
    31e4:	91 81       	ldd	r25, Z+1	; 0x01
    31e6:	40 e0       	ldi	r20, 0x00	; 0
    31e8:	52 e0       	ldi	r21, 0x02	; 2
    31ea:	60 e0       	ldi	r22, 0x00	; 0
    31ec:	70 e0       	ldi	r23, 0x00	; 0
    31ee:	c2 96       	adiw	r24, 0x32	; 50
    31f0:	0e 94 50 0f 	call	0x1ea0	; 0x1ea0 <_ZL7mem_setPvij>
    31f4:	d8 01       	movw	r26, r16
    31f6:	ed 90       	ld	r14, X+
    31f8:	fc 90       	ld	r15, X
    31fa:	b5 01       	movw	r22, r10
    31fc:	a4 01       	movw	r20, r8
    31fe:	c7 01       	movw	r24, r14
    3200:	6e db       	rcall	.-2340   	; 0x28de <_Z10clust2sectP5FATFSm>
    3202:	f7 01       	movw	r30, r14
    3204:	66 a7       	std	Z+46, r22	; 0x2e
    3206:	77 a7       	std	Z+47, r23	; 0x2f
    3208:	80 ab       	std	Z+48, r24	; 0x30
    320a:	91 ab       	std	Z+49, r25	; 0x31
    320c:	f1 2c       	mov	r15, r1
    320e:	d8 01       	movw	r26, r16
    3210:	ed 91       	ld	r30, X+
    3212:	fc 91       	ld	r31, X
    3214:	11 97       	sbiw	r26, 0x01	; 1
    3216:	82 81       	ldd	r24, Z+2	; 0x02
    3218:	f8 16       	cp	r15, r24
    321a:	c0 f4       	brcc	.+48     	; 0x324c <_ZL8dir_nextP3DIRi+0x1ae>
    321c:	81 e0       	ldi	r24, 0x01	; 1
    321e:	84 83       	std	Z+4, r24	; 0x04
    3220:	8d 91       	ld	r24, X+
    3222:	9c 91       	ld	r25, X
    3224:	0e 94 a4 10 	call	0x2148	; 0x2148 <_ZL11sync_windowP5FATFS>
    3228:	81 11       	cpse	r24, r1
    322a:	57 c0       	rjmp	.+174    	; 0x32da <_ZL8dir_nextP3DIRi+0x23c>
    322c:	d8 01       	movw	r26, r16
    322e:	ed 91       	ld	r30, X+
    3230:	fc 91       	ld	r31, X
    3232:	86 a5       	ldd	r24, Z+46	; 0x2e
    3234:	97 a5       	ldd	r25, Z+47	; 0x2f
    3236:	a0 a9       	ldd	r26, Z+48	; 0x30
    3238:	b1 a9       	ldd	r27, Z+49	; 0x31
    323a:	01 96       	adiw	r24, 0x01	; 1
    323c:	a1 1d       	adc	r26, r1
    323e:	b1 1d       	adc	r27, r1
    3240:	86 a7       	std	Z+46, r24	; 0x2e
    3242:	97 a7       	std	Z+47, r25	; 0x2f
    3244:	a0 ab       	std	Z+48, r26	; 0x30
    3246:	b1 ab       	std	Z+49, r27	; 0x31
    3248:	f3 94       	inc	r15
    324a:	e1 cf       	rjmp	.-62     	; 0x320e <_ZL8dir_nextP3DIRi+0x170>
    324c:	86 a5       	ldd	r24, Z+46	; 0x2e
    324e:	97 a5       	ldd	r25, Z+47	; 0x2f
    3250:	a0 a9       	ldd	r26, Z+48	; 0x30
    3252:	b1 a9       	ldd	r27, Z+49	; 0x31
    3254:	8f 19       	sub	r24, r15
    3256:	91 09       	sbc	r25, r1
    3258:	a1 09       	sbc	r26, r1
    325a:	b1 09       	sbc	r27, r1
    325c:	86 a7       	std	Z+46, r24	; 0x2e
    325e:	97 a7       	std	Z+47, r25	; 0x2f
    3260:	a0 ab       	std	Z+48, r26	; 0x30
    3262:	b1 ab       	std	Z+49, r27	; 0x31
    3264:	f8 01       	movw	r30, r16
    3266:	82 86       	std	Z+10, r8	; 0x0a
    3268:	93 86       	std	Z+11, r9	; 0x0b
    326a:	a4 86       	std	Z+12, r10	; 0x0c
    326c:	b5 86       	std	Z+13, r11	; 0x0d
    326e:	b5 01       	movw	r22, r10
    3270:	a4 01       	movw	r20, r8
    3272:	80 81       	ld	r24, Z
    3274:	91 81       	ldd	r25, Z+1	; 0x01
    3276:	33 db       	rcall	.-2458   	; 0x28de <_Z10clust2sectP5FATFSm>
    3278:	d8 01       	movw	r26, r16
    327a:	1e 96       	adiw	r26, 0x0e	; 14
    327c:	6d 93       	st	X+, r22
    327e:	7d 93       	st	X+, r23
    3280:	8d 93       	st	X+, r24
    3282:	9c 93       	st	X, r25
    3284:	51 97       	sbiw	r26, 0x11	; 17
    3286:	f8 01       	movw	r30, r16
    3288:	d5 83       	std	Z+5, r29	; 0x05
    328a:	c4 83       	std	Z+4, r28	; 0x04
    328c:	80 81       	ld	r24, Z
    328e:	91 81       	ldd	r25, Z+1	; 0x01
    3290:	cc 0c       	add	r12, r12
    3292:	dd 1c       	adc	r13, r13
    3294:	cc 0c       	add	r12, r12
    3296:	dd 1c       	adc	r13, r13
    3298:	cc 0c       	add	r12, r12
    329a:	dd 1c       	adc	r13, r13
    329c:	cc 0c       	add	r12, r12
    329e:	dd 1c       	adc	r13, r13
    32a0:	cc 0c       	add	r12, r12
    32a2:	dd 1c       	adc	r13, r13
    32a4:	c2 96       	adiw	r24, 0x32	; 50
    32a6:	c8 0e       	add	r12, r24
    32a8:	d9 1e       	adc	r13, r25
    32aa:	d3 8a       	std	Z+19, r13	; 0x13
    32ac:	c2 8a       	std	Z+18, r12	; 0x12
    32ae:	80 e0       	ldi	r24, 0x00	; 0
    32b0:	15 c0       	rjmp	.+42     	; 0x32dc <_ZL8dir_nextP3DIRi+0x23e>
    32b2:	84 e0       	ldi	r24, 0x04	; 4
    32b4:	13 c0       	rjmp	.+38     	; 0x32dc <_ZL8dir_nextP3DIRi+0x23e>
    32b6:	84 e0       	ldi	r24, 0x04	; 4
    32b8:	11 c0       	rjmp	.+34     	; 0x32dc <_ZL8dir_nextP3DIRi+0x23e>
    32ba:	84 e0       	ldi	r24, 0x04	; 4
    32bc:	0f c0       	rjmp	.+30     	; 0x32dc <_ZL8dir_nextP3DIRi+0x23e>
    32be:	82 e0       	ldi	r24, 0x02	; 2
    32c0:	0d c0       	rjmp	.+26     	; 0x32dc <_ZL8dir_nextP3DIRi+0x23e>
    32c2:	81 e0       	ldi	r24, 0x01	; 1
    32c4:	0b c0       	rjmp	.+22     	; 0x32dc <_ZL8dir_nextP3DIRi+0x23e>
    32c6:	84 e0       	ldi	r24, 0x04	; 4
    32c8:	09 c0       	rjmp	.+18     	; 0x32dc <_ZL8dir_nextP3DIRi+0x23e>
    32ca:	87 e0       	ldi	r24, 0x07	; 7
    32cc:	07 c0       	rjmp	.+14     	; 0x32dc <_ZL8dir_nextP3DIRi+0x23e>
    32ce:	82 e0       	ldi	r24, 0x02	; 2
    32d0:	05 c0       	rjmp	.+10     	; 0x32dc <_ZL8dir_nextP3DIRi+0x23e>
    32d2:	81 e0       	ldi	r24, 0x01	; 1
    32d4:	03 c0       	rjmp	.+6      	; 0x32dc <_ZL8dir_nextP3DIRi+0x23e>
    32d6:	81 e0       	ldi	r24, 0x01	; 1
    32d8:	01 c0       	rjmp	.+2      	; 0x32dc <_ZL8dir_nextP3DIRi+0x23e>
    32da:	81 e0       	ldi	r24, 0x01	; 1
    32dc:	df 91       	pop	r29
    32de:	cf 91       	pop	r28
    32e0:	1f 91       	pop	r17
    32e2:	0f 91       	pop	r16
    32e4:	ff 90       	pop	r15
    32e6:	ef 90       	pop	r14
    32e8:	df 90       	pop	r13
    32ea:	cf 90       	pop	r12
    32ec:	bf 90       	pop	r11
    32ee:	af 90       	pop	r10
    32f0:	9f 90       	pop	r9
    32f2:	8f 90       	pop	r8
    32f4:	08 95       	ret

000032f6 <_ZL8dir_findP3DIR>:
    32f6:	1f 93       	push	r17
    32f8:	cf 93       	push	r28
    32fa:	df 93       	push	r29
    32fc:	ec 01       	movw	r28, r24
    32fe:	60 e0       	ldi	r22, 0x00	; 0
    3300:	70 e0       	ldi	r23, 0x00	; 0
    3302:	ff db       	rcall	.-2050   	; 0x2b02 <_ZL7dir_sdiP3DIRt>
    3304:	81 11       	cpse	r24, r1
    3306:	2e c0       	rjmp	.+92     	; 0x3364 <_ZL8dir_findP3DIR+0x6e>
    3308:	4e 85       	ldd	r20, Y+14	; 0x0e
    330a:	5f 85       	ldd	r21, Y+15	; 0x0f
    330c:	68 89       	ldd	r22, Y+16	; 0x10
    330e:	79 89       	ldd	r23, Y+17	; 0x11
    3310:	88 81       	ld	r24, Y
    3312:	99 81       	ldd	r25, Y+1	; 0x01
    3314:	0e 94 0b 11 	call	0x2216	; 0x2216 <_ZL11move_windowP5FATFSm>
    3318:	18 2f       	mov	r17, r24
    331a:	81 11       	cpse	r24, r1
    331c:	1f c0       	rjmp	.+62     	; 0x335c <_ZL8dir_findP3DIR+0x66>
    331e:	ea 89       	ldd	r30, Y+18	; 0x12
    3320:	fb 89       	ldd	r31, Y+19	; 0x13
    3322:	80 81       	ld	r24, Z
    3324:	88 23       	and	r24, r24
    3326:	d9 f0       	breq	.+54     	; 0x335e <_ZL8dir_findP3DIR+0x68>
    3328:	83 85       	ldd	r24, Z+11	; 0x0b
    332a:	83 fd       	sbrc	r24, 3
    332c:	0b c0       	rjmp	.+22     	; 0x3344 <_ZL8dir_findP3DIR+0x4e>
    332e:	6c 89       	ldd	r22, Y+20	; 0x14
    3330:	7d 89       	ldd	r23, Y+21	; 0x15
    3332:	4b e0       	ldi	r20, 0x0B	; 11
    3334:	50 e0       	ldi	r21, 0x00	; 0
    3336:	cf 01       	movw	r24, r30
    3338:	0e 94 5a 0f 	call	0x1eb4	; 0x1eb4 <_ZL7mem_cmpPKvS0_j>
    333c:	89 2b       	or	r24, r25
    333e:	21 f4       	brne	.+8      	; 0x3348 <_ZL8dir_findP3DIR+0x52>
    3340:	81 e0       	ldi	r24, 0x01	; 1
    3342:	03 c0       	rjmp	.+6      	; 0x334a <_ZL8dir_findP3DIR+0x54>
    3344:	80 e0       	ldi	r24, 0x00	; 0
    3346:	01 c0       	rjmp	.+2      	; 0x334a <_ZL8dir_findP3DIR+0x54>
    3348:	80 e0       	ldi	r24, 0x00	; 0
    334a:	81 11       	cpse	r24, r1
    334c:	0a c0       	rjmp	.+20     	; 0x3362 <_ZL8dir_findP3DIR+0x6c>
    334e:	60 e0       	ldi	r22, 0x00	; 0
    3350:	70 e0       	ldi	r23, 0x00	; 0
    3352:	ce 01       	movw	r24, r28
    3354:	a4 de       	rcall	.-696    	; 0x309e <_ZL8dir_nextP3DIRi>
    3356:	88 23       	and	r24, r24
    3358:	b9 f2       	breq	.-82     	; 0x3308 <_ZL8dir_findP3DIR+0x12>
    335a:	04 c0       	rjmp	.+8      	; 0x3364 <_ZL8dir_findP3DIR+0x6e>
    335c:	03 c0       	rjmp	.+6      	; 0x3364 <_ZL8dir_findP3DIR+0x6e>
    335e:	84 e0       	ldi	r24, 0x04	; 4
    3360:	01 c0       	rjmp	.+2      	; 0x3364 <_ZL8dir_findP3DIR+0x6e>
    3362:	81 2f       	mov	r24, r17
    3364:	df 91       	pop	r29
    3366:	cf 91       	pop	r28
    3368:	1f 91       	pop	r17
    336a:	08 95       	ret

0000336c <_ZL11follow_pathP3DIRPKc>:
    336c:	0f 93       	push	r16
    336e:	1f 93       	push	r17
    3370:	cf 93       	push	r28
    3372:	df 93       	push	r29
    3374:	00 d0       	rcall	.+0      	; 0x3376 <_ZL11follow_pathP3DIRPKc+0xa>
    3376:	cd b7       	in	r28, 0x3d	; 61
    3378:	de b7       	in	r29, 0x3e	; 62
    337a:	8c 01       	movw	r16, r24
    337c:	7a 83       	std	Y+2, r23	; 0x02
    337e:	69 83       	std	Y+1, r22	; 0x01
    3380:	e6 2f       	mov	r30, r22
    3382:	f7 2f       	mov	r31, r23
    3384:	80 81       	ld	r24, Z
    3386:	8f 32       	cpi	r24, 0x2F	; 47
    3388:	11 f0       	breq	.+4      	; 0x338e <_ZL11follow_pathP3DIRPKc+0x22>
    338a:	8c 35       	cpi	r24, 0x5C	; 92
    338c:	19 f4       	brne	.+6      	; 0x3394 <_ZL11follow_pathP3DIRPKc+0x28>
    338e:	31 96       	adiw	r30, 0x01	; 1
    3390:	fa 83       	std	Y+2, r31	; 0x02
    3392:	e9 83       	std	Y+1, r30	; 0x01
    3394:	d8 01       	movw	r26, r16
    3396:	16 96       	adiw	r26, 0x06	; 6
    3398:	1d 92       	st	X+, r1
    339a:	1d 92       	st	X+, r1
    339c:	1d 92       	st	X+, r1
    339e:	1c 92       	st	X, r1
    33a0:	19 97       	sbiw	r26, 0x09	; 9
    33a2:	e9 81       	ldd	r30, Y+1	; 0x01
    33a4:	fa 81       	ldd	r31, Y+2	; 0x02
    33a6:	80 81       	ld	r24, Z
    33a8:	80 32       	cpi	r24, 0x20	; 32
    33aa:	40 f4       	brcc	.+16     	; 0x33bc <_ZL11follow_pathP3DIRPKc+0x50>
    33ac:	60 e0       	ldi	r22, 0x00	; 0
    33ae:	70 e0       	ldi	r23, 0x00	; 0
    33b0:	c8 01       	movw	r24, r16
    33b2:	a7 db       	rcall	.-2226   	; 0x2b02 <_ZL7dir_sdiP3DIRt>
    33b4:	f8 01       	movw	r30, r16
    33b6:	13 8a       	std	Z+19, r1	; 0x13
    33b8:	12 8a       	std	Z+18, r1	; 0x12
    33ba:	2e c0       	rjmp	.+92     	; 0x3418 <_ZL11follow_pathP3DIRPKc+0xac>
    33bc:	be 01       	movw	r22, r28
    33be:	6f 5f       	subi	r22, 0xFF	; 255
    33c0:	7f 4f       	sbci	r23, 0xFF	; 255
    33c2:	c8 01       	movw	r24, r16
    33c4:	0e 94 ab 0f 	call	0x1f56	; 0x1f56 <_ZL11create_nameP3DIRPPKc>
    33c8:	81 11       	cpse	r24, r1
    33ca:	26 c0       	rjmp	.+76     	; 0x3418 <_ZL11follow_pathP3DIRPKc+0xac>
    33cc:	c8 01       	movw	r24, r16
    33ce:	93 df       	rcall	.-218    	; 0x32f6 <_ZL8dir_findP3DIR>
    33d0:	d8 01       	movw	r26, r16
    33d2:	54 96       	adiw	r26, 0x14	; 20
    33d4:	ed 91       	ld	r30, X+
    33d6:	fc 91       	ld	r31, X
    33d8:	55 97       	sbiw	r26, 0x15	; 21
    33da:	93 85       	ldd	r25, Z+11	; 0x0b
    33dc:	88 23       	and	r24, r24
    33de:	29 f0       	breq	.+10     	; 0x33ea <_ZL11follow_pathP3DIRPKc+0x7e>
    33e0:	84 30       	cpi	r24, 0x04	; 4
    33e2:	d1 f4       	brne	.+52     	; 0x3418 <_ZL11follow_pathP3DIRPKc+0xac>
    33e4:	92 ff       	sbrs	r25, 2
    33e6:	15 c0       	rjmp	.+42     	; 0x3412 <_ZL11follow_pathP3DIRPKc+0xa6>
    33e8:	17 c0       	rjmp	.+46     	; 0x3418 <_ZL11follow_pathP3DIRPKc+0xac>
    33ea:	92 fd       	sbrc	r25, 2
    33ec:	15 c0       	rjmp	.+42     	; 0x3418 <_ZL11follow_pathP3DIRPKc+0xac>
    33ee:	f8 01       	movw	r30, r16
    33f0:	62 89       	ldd	r22, Z+18	; 0x12
    33f2:	73 89       	ldd	r23, Z+19	; 0x13
    33f4:	db 01       	movw	r26, r22
    33f6:	1b 96       	adiw	r26, 0x0b	; 11
    33f8:	8c 91       	ld	r24, X
    33fa:	84 ff       	sbrs	r24, 4
    33fc:	0c c0       	rjmp	.+24     	; 0x3416 <_ZL11follow_pathP3DIRPKc+0xaa>
    33fe:	80 81       	ld	r24, Z
    3400:	91 81       	ldd	r25, Z+1	; 0x01
    3402:	0e 94 8c 0f 	call	0x1f18	; 0x1f18 <_ZL8ld_clustP5FATFSPh>
    3406:	f8 01       	movw	r30, r16
    3408:	66 83       	std	Z+6, r22	; 0x06
    340a:	77 83       	std	Z+7, r23	; 0x07
    340c:	80 87       	std	Z+8, r24	; 0x08
    340e:	91 87       	std	Z+9, r25	; 0x09
    3410:	d5 cf       	rjmp	.-86     	; 0x33bc <_ZL11follow_pathP3DIRPKc+0x50>
    3412:	85 e0       	ldi	r24, 0x05	; 5
    3414:	01 c0       	rjmp	.+2      	; 0x3418 <_ZL11follow_pathP3DIRPKc+0xac>
    3416:	85 e0       	ldi	r24, 0x05	; 5
    3418:	0f 90       	pop	r0
    341a:	0f 90       	pop	r0
    341c:	df 91       	pop	r29
    341e:	cf 91       	pop	r28
    3420:	1f 91       	pop	r17
    3422:	0f 91       	pop	r16
    3424:	08 95       	ret

00003426 <_ZL9dir_allocP3DIRj>:
    3426:	ef 92       	push	r14
    3428:	ff 92       	push	r15
    342a:	0f 93       	push	r16
    342c:	1f 93       	push	r17
    342e:	cf 93       	push	r28
    3430:	df 93       	push	r29
    3432:	ec 01       	movw	r28, r24
    3434:	7b 01       	movw	r14, r22
    3436:	60 e0       	ldi	r22, 0x00	; 0
    3438:	70 e0       	ldi	r23, 0x00	; 0
    343a:	63 db       	rcall	.-2362   	; 0x2b02 <_ZL7dir_sdiP3DIRt>
    343c:	81 11       	cpse	r24, r1
    343e:	21 c0       	rjmp	.+66     	; 0x3482 <_ZL9dir_allocP3DIRj+0x5c>
    3440:	00 e0       	ldi	r16, 0x00	; 0
    3442:	10 e0       	ldi	r17, 0x00	; 0
    3444:	4e 85       	ldd	r20, Y+14	; 0x0e
    3446:	5f 85       	ldd	r21, Y+15	; 0x0f
    3448:	68 89       	ldd	r22, Y+16	; 0x10
    344a:	79 89       	ldd	r23, Y+17	; 0x11
    344c:	88 81       	ld	r24, Y
    344e:	99 81       	ldd	r25, Y+1	; 0x01
    3450:	0e 94 0b 11 	call	0x2216	; 0x2216 <_ZL11move_windowP5FATFSm>
    3454:	81 11       	cpse	r24, r1
    3456:	15 c0       	rjmp	.+42     	; 0x3482 <_ZL9dir_allocP3DIRj+0x5c>
    3458:	ea 89       	ldd	r30, Y+18	; 0x12
    345a:	fb 89       	ldd	r31, Y+19	; 0x13
    345c:	90 81       	ld	r25, Z
    345e:	95 3e       	cpi	r25, 0xE5	; 229
    3460:	11 f0       	breq	.+4      	; 0x3466 <_ZL9dir_allocP3DIRj+0x40>
    3462:	91 11       	cpse	r25, r1
    3464:	06 c0       	rjmp	.+12     	; 0x3472 <_ZL9dir_allocP3DIRj+0x4c>
    3466:	0f 5f       	subi	r16, 0xFF	; 255
    3468:	1f 4f       	sbci	r17, 0xFF	; 255
    346a:	0e 15       	cp	r16, r14
    346c:	1f 05       	cpc	r17, r15
    346e:	19 f4       	brne	.+6      	; 0x3476 <_ZL9dir_allocP3DIRj+0x50>
    3470:	08 c0       	rjmp	.+16     	; 0x3482 <_ZL9dir_allocP3DIRj+0x5c>
    3472:	00 e0       	ldi	r16, 0x00	; 0
    3474:	10 e0       	ldi	r17, 0x00	; 0
    3476:	61 e0       	ldi	r22, 0x01	; 1
    3478:	70 e0       	ldi	r23, 0x00	; 0
    347a:	ce 01       	movw	r24, r28
    347c:	10 de       	rcall	.-992    	; 0x309e <_ZL8dir_nextP3DIRi>
    347e:	88 23       	and	r24, r24
    3480:	09 f3       	breq	.-62     	; 0x3444 <_ZL9dir_allocP3DIRj+0x1e>
    3482:	df 91       	pop	r29
    3484:	cf 91       	pop	r28
    3486:	1f 91       	pop	r17
    3488:	0f 91       	pop	r16
    348a:	ff 90       	pop	r15
    348c:	ef 90       	pop	r14
    348e:	08 95       	ret

00003490 <_ZL12dir_registerP3DIR>:
    3490:	0f 93       	push	r16
    3492:	1f 93       	push	r17
    3494:	cf 93       	push	r28
    3496:	8c 01       	movw	r16, r24
    3498:	61 e0       	ldi	r22, 0x01	; 1
    349a:	70 e0       	ldi	r23, 0x00	; 0
    349c:	c4 df       	rcall	.-120    	; 0x3426 <_ZL9dir_allocP3DIRj>
    349e:	c8 2f       	mov	r28, r24
    34a0:	81 11       	cpse	r24, r1
    34a2:	29 c0       	rjmp	.+82     	; 0x34f6 <_ZL12dir_registerP3DIR+0x66>
    34a4:	d8 01       	movw	r26, r16
    34a6:	1e 96       	adiw	r26, 0x0e	; 14
    34a8:	4d 91       	ld	r20, X+
    34aa:	5d 91       	ld	r21, X+
    34ac:	6d 91       	ld	r22, X+
    34ae:	7c 91       	ld	r23, X
    34b0:	51 97       	sbiw	r26, 0x11	; 17
    34b2:	8d 91       	ld	r24, X+
    34b4:	9c 91       	ld	r25, X
    34b6:	0e 94 0b 11 	call	0x2216	; 0x2216 <_ZL11move_windowP5FATFSm>
    34ba:	c8 2f       	mov	r28, r24
    34bc:	81 11       	cpse	r24, r1
    34be:	1b c0       	rjmp	.+54     	; 0x34f6 <_ZL12dir_registerP3DIR+0x66>
    34c0:	40 e2       	ldi	r20, 0x20	; 32
    34c2:	50 e0       	ldi	r21, 0x00	; 0
    34c4:	60 e0       	ldi	r22, 0x00	; 0
    34c6:	70 e0       	ldi	r23, 0x00	; 0
    34c8:	f8 01       	movw	r30, r16
    34ca:	82 89       	ldd	r24, Z+18	; 0x12
    34cc:	93 89       	ldd	r25, Z+19	; 0x13
    34ce:	0e 94 50 0f 	call	0x1ea0	; 0x1ea0 <_ZL7mem_setPvij>
    34d2:	d8 01       	movw	r26, r16
    34d4:	54 96       	adiw	r26, 0x14	; 20
    34d6:	6d 91       	ld	r22, X+
    34d8:	7c 91       	ld	r23, X
    34da:	55 97       	sbiw	r26, 0x15	; 21
    34dc:	4b e0       	ldi	r20, 0x0B	; 11
    34de:	50 e0       	ldi	r21, 0x00	; 0
    34e0:	52 96       	adiw	r26, 0x12	; 18
    34e2:	8d 91       	ld	r24, X+
    34e4:	9c 91       	ld	r25, X
    34e6:	53 97       	sbiw	r26, 0x13	; 19
    34e8:	0e 94 39 0f 	call	0x1e72	; 0x1e72 <_ZL7mem_cpyPvPKvj>
    34ec:	d8 01       	movw	r26, r16
    34ee:	ed 91       	ld	r30, X+
    34f0:	fc 91       	ld	r31, X
    34f2:	81 e0       	ldi	r24, 0x01	; 1
    34f4:	84 83       	std	Z+4, r24	; 0x04
    34f6:	8c 2f       	mov	r24, r28
    34f8:	cf 91       	pop	r28
    34fa:	1f 91       	pop	r17
    34fc:	0f 91       	pop	r16
    34fe:	08 95       	ret

00003500 <_ZL12remove_chainP5FATFSm>:
    3500:	8f 92       	push	r8
    3502:	9f 92       	push	r9
    3504:	af 92       	push	r10
    3506:	bf 92       	push	r11
    3508:	cf 92       	push	r12
    350a:	df 92       	push	r13
    350c:	ef 92       	push	r14
    350e:	ff 92       	push	r15
    3510:	0f 93       	push	r16
    3512:	1f 93       	push	r17
    3514:	cf 93       	push	r28
    3516:	df 93       	push	r29
    3518:	ec 01       	movw	r28, r24
    351a:	6a 01       	movw	r12, r20
    351c:	7b 01       	movw	r14, r22
    351e:	42 30       	cpi	r20, 0x02	; 2
    3520:	51 05       	cpc	r21, r1
    3522:	61 05       	cpc	r22, r1
    3524:	71 05       	cpc	r23, r1
    3526:	08 f4       	brcc	.+2      	; 0x352a <_ZL12remove_chainP5FATFSm+0x2a>
    3528:	4b c0       	rjmp	.+150    	; 0x35c0 <_ZL12remove_chainP5FATFSm+0xc0>
    352a:	8e 89       	ldd	r24, Y+22	; 0x16
    352c:	9f 89       	ldd	r25, Y+23	; 0x17
    352e:	a8 8d       	ldd	r26, Y+24	; 0x18
    3530:	b9 8d       	ldd	r27, Y+25	; 0x19
    3532:	48 17       	cp	r20, r24
    3534:	59 07       	cpc	r21, r25
    3536:	6a 07       	cpc	r22, r26
    3538:	7b 07       	cpc	r23, r27
    353a:	08 f0       	brcs	.+2      	; 0x353e <_ZL12remove_chainP5FATFSm+0x3e>
    353c:	43 c0       	rjmp	.+134    	; 0x35c4 <_ZL12remove_chainP5FATFSm+0xc4>
    353e:	10 e0       	ldi	r17, 0x00	; 0
    3540:	02 c0       	rjmp	.+4      	; 0x3546 <_ZL12remove_chainP5FATFSm+0x46>
    3542:	75 01       	movw	r14, r10
    3544:	64 01       	movw	r12, r8
    3546:	8e 89       	ldd	r24, Y+22	; 0x16
    3548:	9f 89       	ldd	r25, Y+23	; 0x17
    354a:	a8 8d       	ldd	r26, Y+24	; 0x18
    354c:	b9 8d       	ldd	r27, Y+25	; 0x19
    354e:	c8 16       	cp	r12, r24
    3550:	d9 06       	cpc	r13, r25
    3552:	ea 06       	cpc	r14, r26
    3554:	fb 06       	cpc	r15, r27
    3556:	d8 f5       	brcc	.+118    	; 0x35ce <_ZL12remove_chainP5FATFSm+0xce>
    3558:	b7 01       	movw	r22, r14
    355a:	a6 01       	movw	r20, r12
    355c:	ce 01       	movw	r24, r28
    355e:	e7 d9       	rcall	.-3122   	; 0x292e <_Z7get_fatP5FATFSm>
    3560:	4b 01       	movw	r8, r22
    3562:	5c 01       	movw	r10, r24
    3564:	67 2b       	or	r22, r23
    3566:	68 2b       	or	r22, r24
    3568:	69 2b       	or	r22, r25
    356a:	89 f1       	breq	.+98     	; 0x35ce <_ZL12remove_chainP5FATFSm+0xce>
    356c:	81 e0       	ldi	r24, 0x01	; 1
    356e:	88 16       	cp	r8, r24
    3570:	91 04       	cpc	r9, r1
    3572:	a1 04       	cpc	r10, r1
    3574:	b1 04       	cpc	r11, r1
    3576:	41 f1       	breq	.+80     	; 0x35c8 <_ZL12remove_chainP5FATFSm+0xc8>
    3578:	2f ef       	ldi	r18, 0xFF	; 255
    357a:	82 16       	cp	r8, r18
    357c:	92 06       	cpc	r9, r18
    357e:	a2 06       	cpc	r10, r18
    3580:	b2 06       	cpc	r11, r18
    3582:	21 f1       	breq	.+72     	; 0x35cc <_ZL12remove_chainP5FATFSm+0xcc>
    3584:	00 e0       	ldi	r16, 0x00	; 0
    3586:	10 e0       	ldi	r17, 0x00	; 0
    3588:	98 01       	movw	r18, r16
    358a:	b7 01       	movw	r22, r14
    358c:	a6 01       	movw	r20, r12
    358e:	ce 01       	movw	r24, r28
    3590:	6f db       	rcall	.-2338   	; 0x2c70 <_Z7put_fatP5FATFSmm>
    3592:	18 2f       	mov	r17, r24
    3594:	81 11       	cpse	r24, r1
    3596:	1b c0       	rjmp	.+54     	; 0x35ce <_ZL12remove_chainP5FATFSm+0xce>
    3598:	8e 85       	ldd	r24, Y+14	; 0x0e
    359a:	9f 85       	ldd	r25, Y+15	; 0x0f
    359c:	a8 89       	ldd	r26, Y+16	; 0x10
    359e:	b9 89       	ldd	r27, Y+17	; 0x11
    35a0:	8f 3f       	cpi	r24, 0xFF	; 255
    35a2:	2f ef       	ldi	r18, 0xFF	; 255
    35a4:	92 07       	cpc	r25, r18
    35a6:	a2 07       	cpc	r26, r18
    35a8:	b2 07       	cpc	r27, r18
    35aa:	59 f2       	breq	.-106    	; 0x3542 <_ZL12remove_chainP5FATFSm+0x42>
    35ac:	01 96       	adiw	r24, 0x01	; 1
    35ae:	a1 1d       	adc	r26, r1
    35b0:	b1 1d       	adc	r27, r1
    35b2:	8e 87       	std	Y+14, r24	; 0x0e
    35b4:	9f 87       	std	Y+15, r25	; 0x0f
    35b6:	a8 8b       	std	Y+16, r26	; 0x10
    35b8:	b9 8b       	std	Y+17, r27	; 0x11
    35ba:	81 e0       	ldi	r24, 0x01	; 1
    35bc:	8d 83       	std	Y+5, r24	; 0x05
    35be:	c1 cf       	rjmp	.-126    	; 0x3542 <_ZL12remove_chainP5FATFSm+0x42>
    35c0:	12 e0       	ldi	r17, 0x02	; 2
    35c2:	05 c0       	rjmp	.+10     	; 0x35ce <_ZL12remove_chainP5FATFSm+0xce>
    35c4:	12 e0       	ldi	r17, 0x02	; 2
    35c6:	03 c0       	rjmp	.+6      	; 0x35ce <_ZL12remove_chainP5FATFSm+0xce>
    35c8:	12 e0       	ldi	r17, 0x02	; 2
    35ca:	01 c0       	rjmp	.+2      	; 0x35ce <_ZL12remove_chainP5FATFSm+0xce>
    35cc:	11 e0       	ldi	r17, 0x01	; 1
    35ce:	81 2f       	mov	r24, r17
    35d0:	df 91       	pop	r29
    35d2:	cf 91       	pop	r28
    35d4:	1f 91       	pop	r17
    35d6:	0f 91       	pop	r16
    35d8:	ff 90       	pop	r15
    35da:	ef 90       	pop	r14
    35dc:	df 90       	pop	r13
    35de:	cf 90       	pop	r12
    35e0:	bf 90       	pop	r11
    35e2:	af 90       	pop	r10
    35e4:	9f 90       	pop	r9
    35e6:	8f 90       	pop	r8
    35e8:	08 95       	ret

000035ea <f_mount>:
    35ea:	81 11       	cpse	r24, r1
    35ec:	1a c0       	rjmp	.+52     	; 0x3622 <f_mount+0x38>
    35ee:	90 e0       	ldi	r25, 0x00	; 0
    35f0:	fc 01       	movw	r30, r24
    35f2:	ee 0f       	add	r30, r30
    35f4:	ff 1f       	adc	r31, r31
    35f6:	e8 50       	subi	r30, 0x08	; 8
    35f8:	fc 4f       	sbci	r31, 0xFC	; 252
    35fa:	01 90       	ld	r0, Z+
    35fc:	f0 81       	ld	r31, Z
    35fe:	e0 2d       	mov	r30, r0
    3600:	30 97       	sbiw	r30, 0x00	; 0
    3602:	09 f0       	breq	.+2      	; 0x3606 <f_mount+0x1c>
    3604:	10 82       	st	Z, r1
    3606:	61 15       	cp	r22, r1
    3608:	71 05       	cpc	r23, r1
    360a:	11 f0       	breq	.+4      	; 0x3610 <f_mount+0x26>
    360c:	fb 01       	movw	r30, r22
    360e:	10 82       	st	Z, r1
    3610:	88 0f       	add	r24, r24
    3612:	99 1f       	adc	r25, r25
    3614:	fc 01       	movw	r30, r24
    3616:	e8 50       	subi	r30, 0x08	; 8
    3618:	fc 4f       	sbci	r31, 0xFC	; 252
    361a:	71 83       	std	Z+1, r23	; 0x01
    361c:	60 83       	st	Z, r22
    361e:	80 e0       	ldi	r24, 0x00	; 0
    3620:	08 95       	ret
    3622:	8b e0       	ldi	r24, 0x0B	; 11
    3624:	08 95       	ret

00003626 <f_open>:
    3626:	4f 92       	push	r4
    3628:	5f 92       	push	r5
    362a:	6f 92       	push	r6
    362c:	7f 92       	push	r7
    362e:	af 92       	push	r10
    3630:	bf 92       	push	r11
    3632:	cf 92       	push	r12
    3634:	df 92       	push	r13
    3636:	ef 92       	push	r14
    3638:	ff 92       	push	r15
    363a:	0f 93       	push	r16
    363c:	1f 93       	push	r17
    363e:	cf 93       	push	r28
    3640:	df 93       	push	r29
    3642:	cd b7       	in	r28, 0x3d	; 61
    3644:	de b7       	in	r29, 0x3e	; 62
    3646:	a8 97       	sbiw	r28, 0x28	; 40
    3648:	0f b6       	in	r0, 0x3f	; 63
    364a:	f8 94       	cli
    364c:	de bf       	out	0x3e, r29	; 62
    364e:	0f be       	out	0x3f, r0	; 63
    3650:	cd bf       	out	0x3d, r28	; 61
    3652:	7c a3       	std	Y+36, r23	; 0x24
    3654:	6b a3       	std	Y+35, r22	; 0x23
    3656:	00 97       	sbiw	r24, 0x00	; 0
    3658:	09 f4       	brne	.+2      	; 0x365c <f_open+0x36>
    365a:	d9 c0       	rjmp	.+434    	; 0x380e <f_open+0x1e8>
    365c:	04 2f       	mov	r16, r20
    365e:	7c 01       	movw	r14, r24
    3660:	dc 01       	movw	r26, r24
    3662:	1d 92       	st	X+, r1
    3664:	1c 92       	st	X, r1
    3666:	b4 2f       	mov	r27, r20
    3668:	bf 71       	andi	r27, 0x1F	; 31
    366a:	db 2e       	mov	r13, r27
    366c:	4e 71       	andi	r20, 0x1E	; 30
    366e:	be 01       	movw	r22, r28
    3670:	6f 5f       	subi	r22, 0xFF	; 255
    3672:	7f 4f       	sbci	r23, 0xFF	; 255
    3674:	ce 01       	movw	r24, r28
    3676:	83 96       	adiw	r24, 0x23	; 35
    3678:	0e 94 68 11 	call	0x22d0	; 0x22d0 <_ZL11chk_mountedPPKcPP5FATFSh>
    367c:	81 11       	cpse	r24, r1
    367e:	ca c0       	rjmp	.+404    	; 0x3814 <f_open+0x1ee>
    3680:	ce 01       	movw	r24, r28
    3682:	47 96       	adiw	r24, 0x17	; 23
    3684:	9e 8b       	std	Y+22, r25	; 0x16
    3686:	8d 8b       	std	Y+21, r24	; 0x15
    3688:	6b a1       	ldd	r22, Y+35	; 0x23
    368a:	7c a1       	ldd	r23, Y+36	; 0x24
    368c:	46 97       	sbiw	r24, 0x16	; 22
    368e:	6e de       	rcall	.-804    	; 0x336c <_ZL11follow_pathP3DIRPKc>
    3690:	18 2f       	mov	r17, r24
    3692:	ab 88       	ldd	r10, Y+19	; 0x13
    3694:	bc 88       	ldd	r11, Y+20	; 0x14
    3696:	81 11       	cpse	r24, r1
    3698:	04 c0       	rjmp	.+8      	; 0x36a2 <f_open+0x7c>
    369a:	a1 14       	cp	r10, r1
    369c:	b1 04       	cpc	r11, r1
    369e:	09 f4       	brne	.+2      	; 0x36a2 <f_open+0x7c>
    36a0:	16 e0       	ldi	r17, 0x06	; 6
    36a2:	80 2f       	mov	r24, r16
    36a4:	8c 71       	andi	r24, 0x1C	; 28
    36a6:	09 f4       	brne	.+2      	; 0x36aa <f_open+0x84>
    36a8:	62 c0       	rjmp	.+196    	; 0x376e <f_open+0x148>
    36aa:	11 23       	and	r17, r17
    36ac:	61 f0       	breq	.+24     	; 0x36c6 <f_open+0xa0>
    36ae:	14 30       	cpi	r17, 0x04	; 4
    36b0:	21 f4       	brne	.+8      	; 0x36ba <f_open+0x94>
    36b2:	ce 01       	movw	r24, r28
    36b4:	01 96       	adiw	r24, 0x01	; 1
    36b6:	ec de       	rcall	.-552    	; 0x3490 <_ZL12dir_registerP3DIR>
    36b8:	18 2f       	mov	r17, r24
    36ba:	ed 2d       	mov	r30, r13
    36bc:	e8 60       	ori	r30, 0x08	; 8
    36be:	de 2e       	mov	r13, r30
    36c0:	ab 88       	ldd	r10, Y+19	; 0x13
    36c2:	bc 88       	ldd	r11, Y+20	; 0x14
    36c4:	0b c0       	rjmp	.+22     	; 0x36dc <f_open+0xb6>
    36c6:	d5 01       	movw	r26, r10
    36c8:	1b 96       	adiw	r26, 0x0b	; 11
    36ca:	8c 91       	ld	r24, X
    36cc:	81 71       	andi	r24, 0x11	; 17
    36ce:	19 f4       	brne	.+6      	; 0x36d6 <f_open+0xb0>
    36d0:	02 fd       	sbrc	r16, 2
    36d2:	03 c0       	rjmp	.+6      	; 0x36da <f_open+0xb4>
    36d4:	03 c0       	rjmp	.+6      	; 0x36dc <f_open+0xb6>
    36d6:	17 e0       	ldi	r17, 0x07	; 7
    36d8:	01 c0       	rjmp	.+2      	; 0x36dc <f_open+0xb6>
    36da:	18 e0       	ldi	r17, 0x08	; 8
    36dc:	11 11       	cpse	r17, r1
    36de:	56 c0       	rjmp	.+172    	; 0x378c <f_open+0x166>
    36e0:	d3 fe       	sbrs	r13, 3
    36e2:	54 c0       	rjmp	.+168    	; 0x378c <f_open+0x166>
    36e4:	0e 94 42 01 	call	0x284	; 0x284 <get_fattime>
    36e8:	f5 01       	movw	r30, r10
    36ea:	66 87       	std	Z+14, r22	; 0x0e
    36ec:	77 87       	std	Z+15, r23	; 0x0f
    36ee:	80 8b       	std	Z+16, r24	; 0x10
    36f0:	91 8b       	std	Z+17, r25	; 0x11
    36f2:	13 86       	std	Z+11, r1	; 0x0b
    36f4:	14 8e       	std	Z+28, r1	; 0x1c
    36f6:	15 8e       	std	Z+29, r1	; 0x1d
    36f8:	16 8e       	std	Z+30, r1	; 0x1e
    36fa:	17 8e       	std	Z+31, r1	; 0x1f
    36fc:	b5 01       	movw	r22, r10
    36fe:	89 81       	ldd	r24, Y+1	; 0x01
    3700:	9a 81       	ldd	r25, Y+2	; 0x02
    3702:	0e 94 8c 0f 	call	0x1f18	; 0x1f18 <_ZL8ld_clustP5FATFSPh>
    3706:	2b 01       	movw	r4, r22
    3708:	3c 01       	movw	r6, r24
    370a:	40 e0       	ldi	r20, 0x00	; 0
    370c:	50 e0       	ldi	r21, 0x00	; 0
    370e:	ba 01       	movw	r22, r20
    3710:	c5 01       	movw	r24, r10
    3712:	0e 94 a5 0f 	call	0x1f4a	; 0x1f4a <_ZL8st_clustPhm>
    3716:	e9 81       	ldd	r30, Y+1	; 0x01
    3718:	fa 81       	ldd	r31, Y+2	; 0x02
    371a:	81 e0       	ldi	r24, 0x01	; 1
    371c:	84 83       	std	Z+4, r24	; 0x04
    371e:	41 14       	cp	r4, r1
    3720:	51 04       	cpc	r5, r1
    3722:	61 04       	cpc	r6, r1
    3724:	71 04       	cpc	r7, r1
    3726:	91 f1       	breq	.+100    	; 0x378c <f_open+0x166>
    3728:	86 a5       	ldd	r24, Z+46	; 0x2e
    372a:	97 a5       	ldd	r25, Z+47	; 0x2f
    372c:	a0 a9       	ldd	r26, Z+48	; 0x30
    372e:	b1 a9       	ldd	r27, Z+49	; 0x31
    3730:	8d a3       	std	Y+37, r24	; 0x25
    3732:	9e a3       	std	Y+38, r25	; 0x26
    3734:	af a3       	std	Y+39, r26	; 0x27
    3736:	b8 a7       	std	Y+40, r27	; 0x28
    3738:	b3 01       	movw	r22, r6
    373a:	a2 01       	movw	r20, r4
    373c:	cf 01       	movw	r24, r30
    373e:	e0 de       	rcall	.-576    	; 0x3500 <_ZL12remove_chainP5FATFSm>
    3740:	18 2f       	mov	r17, r24
    3742:	81 11       	cpse	r24, r1
    3744:	23 c0       	rjmp	.+70     	; 0x378c <f_open+0x166>
    3746:	89 81       	ldd	r24, Y+1	; 0x01
    3748:	9a 81       	ldd	r25, Y+2	; 0x02
    374a:	a1 e0       	ldi	r26, 0x01	; 1
    374c:	4a 1a       	sub	r4, r26
    374e:	51 08       	sbc	r5, r1
    3750:	61 08       	sbc	r6, r1
    3752:	71 08       	sbc	r7, r1
    3754:	fc 01       	movw	r30, r24
    3756:	42 86       	std	Z+10, r4	; 0x0a
    3758:	53 86       	std	Z+11, r5	; 0x0b
    375a:	64 86       	std	Z+12, r6	; 0x0c
    375c:	75 86       	std	Z+13, r7	; 0x0d
    375e:	4d a1       	ldd	r20, Y+37	; 0x25
    3760:	5e a1       	ldd	r21, Y+38	; 0x26
    3762:	6f a1       	ldd	r22, Y+39	; 0x27
    3764:	78 a5       	ldd	r23, Y+40	; 0x28
    3766:	0e 94 0b 11 	call	0x2216	; 0x2216 <_ZL11move_windowP5FATFSm>
    376a:	18 2f       	mov	r17, r24
    376c:	0f c0       	rjmp	.+30     	; 0x378c <f_open+0x166>
    376e:	11 11       	cpse	r17, r1
    3770:	0d c0       	rjmp	.+26     	; 0x378c <f_open+0x166>
    3772:	d5 01       	movw	r26, r10
    3774:	1b 96       	adiw	r26, 0x0b	; 11
    3776:	8c 91       	ld	r24, X
    3778:	84 fd       	sbrc	r24, 4
    377a:	05 c0       	rjmp	.+10     	; 0x3786 <f_open+0x160>
    377c:	01 ff       	sbrs	r16, 1
    377e:	06 c0       	rjmp	.+12     	; 0x378c <f_open+0x166>
    3780:	80 fd       	sbrc	r24, 0
    3782:	03 c0       	rjmp	.+6      	; 0x378a <f_open+0x164>
    3784:	03 c0       	rjmp	.+6      	; 0x378c <f_open+0x166>
    3786:	14 e0       	ldi	r17, 0x04	; 4
    3788:	01 c0       	rjmp	.+2      	; 0x378c <f_open+0x166>
    378a:	17 e0       	ldi	r17, 0x07	; 7
    378c:	11 11       	cpse	r17, r1
    378e:	12 c0       	rjmp	.+36     	; 0x37b4 <f_open+0x18e>
    3790:	d3 fe       	sbrs	r13, 3
    3792:	03 c0       	rjmp	.+6      	; 0x379a <f_open+0x174>
    3794:	bd 2d       	mov	r27, r13
    3796:	b0 62       	ori	r27, 0x20	; 32
    3798:	db 2e       	mov	r13, r27
    379a:	e9 81       	ldd	r30, Y+1	; 0x01
    379c:	fa 81       	ldd	r31, Y+2	; 0x02
    379e:	86 a5       	ldd	r24, Z+46	; 0x2e
    37a0:	97 a5       	ldd	r25, Z+47	; 0x2f
    37a2:	a0 a9       	ldd	r26, Z+48	; 0x30
    37a4:	b1 a9       	ldd	r27, Z+49	; 0x31
    37a6:	f7 01       	movw	r30, r14
    37a8:	82 8f       	std	Z+26, r24	; 0x1a
    37aa:	93 8f       	std	Z+27, r25	; 0x1b
    37ac:	a4 8f       	std	Z+28, r26	; 0x1c
    37ae:	b5 8f       	std	Z+29, r27	; 0x1d
    37b0:	b7 8e       	std	Z+31, r11	; 0x1f
    37b2:	a6 8e       	std	Z+30, r10	; 0x1e
    37b4:	11 11       	cpse	r17, r1
    37b6:	2d c0       	rjmp	.+90     	; 0x3812 <f_open+0x1ec>
    37b8:	d7 01       	movw	r26, r14
    37ba:	14 96       	adiw	r26, 0x04	; 4
    37bc:	dc 92       	st	X, r13
    37be:	c9 80       	ldd	r12, Y+1	; 0x01
    37c0:	da 80       	ldd	r13, Y+2	; 0x02
    37c2:	b5 01       	movw	r22, r10
    37c4:	c6 01       	movw	r24, r12
    37c6:	0e 94 8c 0f 	call	0x1f18	; 0x1f18 <_ZL8ld_clustP5FATFSPh>
    37ca:	f7 01       	movw	r30, r14
    37cc:	66 87       	std	Z+14, r22	; 0x0e
    37ce:	77 87       	std	Z+15, r23	; 0x0f
    37d0:	80 8b       	std	Z+16, r24	; 0x10
    37d2:	91 8b       	std	Z+17, r25	; 0x11
    37d4:	f5 01       	movw	r30, r10
    37d6:	84 8d       	ldd	r24, Z+28	; 0x1c
    37d8:	95 8d       	ldd	r25, Z+29	; 0x1d
    37da:	a6 8d       	ldd	r26, Z+30	; 0x1e
    37dc:	b7 8d       	ldd	r27, Z+31	; 0x1f
    37de:	f7 01       	movw	r30, r14
    37e0:	82 87       	std	Z+10, r24	; 0x0a
    37e2:	93 87       	std	Z+11, r25	; 0x0b
    37e4:	a4 87       	std	Z+12, r26	; 0x0c
    37e6:	b5 87       	std	Z+13, r27	; 0x0d
    37e8:	16 82       	std	Z+6, r1	; 0x06
    37ea:	17 82       	std	Z+7, r1	; 0x07
    37ec:	10 86       	std	Z+8, r1	; 0x08
    37ee:	11 86       	std	Z+9, r1	; 0x09
    37f0:	16 8a       	std	Z+22, r1	; 0x16
    37f2:	17 8a       	std	Z+23, r1	; 0x17
    37f4:	10 8e       	std	Z+24, r1	; 0x18
    37f6:	11 8e       	std	Z+25, r1	; 0x19
    37f8:	d1 82       	std	Z+1, r13	; 0x01
    37fa:	c0 82       	st	Z, r12
    37fc:	d6 01       	movw	r26, r12
    37fe:	16 96       	adiw	r26, 0x06	; 6
    3800:	8d 91       	ld	r24, X+
    3802:	9c 91       	ld	r25, X
    3804:	17 97       	sbiw	r26, 0x07	; 7
    3806:	93 83       	std	Z+3, r25	; 0x03
    3808:	82 83       	std	Z+2, r24	; 0x02
    380a:	81 2f       	mov	r24, r17
    380c:	03 c0       	rjmp	.+6      	; 0x3814 <f_open+0x1ee>
    380e:	89 e0       	ldi	r24, 0x09	; 9
    3810:	01 c0       	rjmp	.+2      	; 0x3814 <f_open+0x1ee>
    3812:	81 2f       	mov	r24, r17
    3814:	a8 96       	adiw	r28, 0x28	; 40
    3816:	0f b6       	in	r0, 0x3f	; 63
    3818:	f8 94       	cli
    381a:	de bf       	out	0x3e, r29	; 62
    381c:	0f be       	out	0x3f, r0	; 63
    381e:	cd bf       	out	0x3d, r28	; 61
    3820:	df 91       	pop	r29
    3822:	cf 91       	pop	r28
    3824:	1f 91       	pop	r17
    3826:	0f 91       	pop	r16
    3828:	ff 90       	pop	r15
    382a:	ef 90       	pop	r14
    382c:	df 90       	pop	r13
    382e:	cf 90       	pop	r12
    3830:	bf 90       	pop	r11
    3832:	af 90       	pop	r10
    3834:	7f 90       	pop	r7
    3836:	6f 90       	pop	r6
    3838:	5f 90       	pop	r5
    383a:	4f 90       	pop	r4
    383c:	08 95       	ret

0000383e <f_write>:
	FIL *fp,			/* Pointer to the file object */
	const void *buff,	/* Pointer to the data to be written */
	UINT btw,			/* Number of bytes to write */
	UINT *bw			/* Pointer to number of bytes written */
)
{
    383e:	2f 92       	push	r2
    3840:	3f 92       	push	r3
    3842:	4f 92       	push	r4
    3844:	5f 92       	push	r5
    3846:	6f 92       	push	r6
    3848:	7f 92       	push	r7
    384a:	8f 92       	push	r8
    384c:	9f 92       	push	r9
    384e:	af 92       	push	r10
    3850:	bf 92       	push	r11
    3852:	cf 92       	push	r12
    3854:	df 92       	push	r13
    3856:	ef 92       	push	r14
    3858:	ff 92       	push	r15
    385a:	0f 93       	push	r16
    385c:	1f 93       	push	r17
    385e:	cf 93       	push	r28
    3860:	df 93       	push	r29
    3862:	ec 01       	movw	r28, r24
    3864:	5b 01       	movw	r10, r22
    3866:	6a 01       	movw	r12, r20
    3868:	49 01       	movw	r8, r18
	UINT wcnt, cc;
	const BYTE *wbuff = (const BYTE*)buff;
	BYTE csect;


	*bw = 0;	/* Clear write byte counter */
    386a:	f9 01       	movw	r30, r18
    386c:	11 82       	std	Z+1, r1	; 0x01
    386e:	10 82       	st	Z, r1

	res = validate(fp);						/* Check validity */
    3870:	0e 94 43 11 	call	0x2286	; 0x2286 <_ZL8validatePv>
	if (res != FR_OK) LEAVE_FF(fp->fs, res);
    3874:	81 11       	cpse	r24, r1
    3876:	7b c1       	rjmp	.+758    	; 0x3b6e <f_write+0x330>
	if (fp->flag & FA__ERROR)				/* Aborted file? */
    3878:	8c 81       	ldd	r24, Y+4	; 0x04
    387a:	88 23       	and	r24, r24
    387c:	0c f4       	brge	.+2      	; 0x3880 <f_write+0x42>
    387e:	74 c1       	rjmp	.+744    	; 0x3b68 <f_write+0x32a>
		LEAVE_FF(fp->fs, FR_INT_ERR);
	if (!(fp->flag & FA_WRITE))				/* Check access mode */
    3880:	81 ff       	sbrs	r24, 1
    3882:	74 c1       	rjmp	.+744    	; 0x3b6c <f_write+0x32e>
		LEAVE_FF(fp->fs, FR_DENIED);
	if ((DWORD)(fp->fsize + btw) < fp->fsize) btw = 0;	/* File size cannot reach 4GB */
    3884:	8a 85       	ldd	r24, Y+10	; 0x0a
    3886:	9b 85       	ldd	r25, Y+11	; 0x0b
    3888:	ac 85       	ldd	r26, Y+12	; 0x0c
    388a:	bd 85       	ldd	r27, Y+13	; 0x0d
    388c:	ac 01       	movw	r20, r24
    388e:	bd 01       	movw	r22, r26
    3890:	4c 0d       	add	r20, r12
    3892:	5d 1d       	adc	r21, r13
    3894:	61 1d       	adc	r22, r1
    3896:	71 1d       	adc	r23, r1
    3898:	48 17       	cp	r20, r24
    389a:	59 07       	cpc	r21, r25
    389c:	6a 07       	cpc	r22, r26
    389e:	7b 07       	cpc	r23, r27
    38a0:	10 f4       	brcc	.+4      	; 0x38a6 <f_write+0x68>
    38a2:	c1 2c       	mov	r12, r1
    38a4:	d1 2c       	mov	r13, r1

	for ( ;  btw;							/* Repeat until all data written */
    38a6:	c1 14       	cp	r12, r1
    38a8:	d1 04       	cpc	r13, r1
    38aa:	09 f4       	brne	.+2      	; 0x38ae <f_write+0x70>
    38ac:	47 c1       	rjmp	.+654    	; 0x3b3c <f_write+0x2fe>
		wbuff += wcnt, fp->fptr += wcnt, *bw += wcnt, btw -= wcnt) {
		if ((fp->fptr % SS(fp->fs)) == 0) {	/* On the sector boundary? */
    38ae:	4e 81       	ldd	r20, Y+6	; 0x06
    38b0:	5f 81       	ldd	r21, Y+7	; 0x07
    38b2:	68 85       	ldd	r22, Y+8	; 0x08
    38b4:	79 85       	ldd	r23, Y+9	; 0x09
    38b6:	db 01       	movw	r26, r22
    38b8:	ca 01       	movw	r24, r20
    38ba:	91 70       	andi	r25, 0x01	; 1
    38bc:	aa 27       	eor	r26, r26
    38be:	bb 27       	eor	r27, r27
    38c0:	89 2b       	or	r24, r25
    38c2:	8a 2b       	or	r24, r26
    38c4:	8b 2b       	or	r24, r27
    38c6:	09 f0       	breq	.+2      	; 0x38ca <f_write+0x8c>
    38c8:	ef c0       	rjmp	.+478    	; 0x3aa8 <f_write+0x26a>
			csect = (BYTE)(fp->fptr / SS(fp->fs) & (fp->fs->csize - 1));	/* Sector offset in the cluster */
    38ca:	e8 81       	ld	r30, Y
    38cc:	f9 81       	ldd	r31, Y+1	; 0x01
    38ce:	12 81       	ldd	r17, Z+2	; 0x02
    38d0:	11 50       	subi	r17, 0x01	; 1
    38d2:	db 01       	movw	r26, r22
    38d4:	ca 01       	movw	r24, r20
    38d6:	07 2e       	mov	r0, r23
    38d8:	79 e0       	ldi	r23, 0x09	; 9
    38da:	b6 95       	lsr	r27
    38dc:	a7 95       	ror	r26
    38de:	97 95       	ror	r25
    38e0:	87 95       	ror	r24
    38e2:	7a 95       	dec	r23
    38e4:	d1 f7       	brne	.-12     	; 0x38da <f_write+0x9c>
    38e6:	70 2d       	mov	r23, r0
    38e8:	18 23       	and	r17, r24
			if (!csect) {					/* On the cluster boundary? */
    38ea:	e1 f5       	brne	.+120    	; 0x3964 <f_write+0x126>
				if (fp->fptr == 0) {		/* On the top of the file? */
    38ec:	45 2b       	or	r20, r21
    38ee:	46 2b       	or	r20, r22
    38f0:	47 2b       	or	r20, r23
    38f2:	99 f4       	brne	.+38     	; 0x391a <f_write+0xdc>
					clst = fp->sclust;		/* Follow from the origin */
    38f4:	6e 85       	ldd	r22, Y+14	; 0x0e
    38f6:	7f 85       	ldd	r23, Y+15	; 0x0f
    38f8:	88 89       	ldd	r24, Y+16	; 0x10
    38fa:	99 89       	ldd	r25, Y+17	; 0x11
					if (clst == 0)			/* When no cluster is allocated, */
    38fc:	61 15       	cp	r22, r1
    38fe:	71 05       	cpc	r23, r1
    3900:	81 05       	cpc	r24, r1
    3902:	91 05       	cpc	r25, r1
    3904:	81 f4       	brne	.+32     	; 0x3926 <f_write+0xe8>
						fp->sclust = clst = create_chain(fp->fs, 0);	/* Create a new cluster chain */
    3906:	40 e0       	ldi	r20, 0x00	; 0
    3908:	50 e0       	ldi	r21, 0x00	; 0
    390a:	ba 01       	movw	r22, r20
    390c:	cf 01       	movw	r24, r30
    390e:	d5 da       	rcall	.-2646   	; 0x2eba <_ZL12create_chainP5FATFSm>
    3910:	6e 87       	std	Y+14, r22	; 0x0e
    3912:	7f 87       	std	Y+15, r23	; 0x0f
    3914:	88 8b       	std	Y+16, r24	; 0x10
    3916:	99 8b       	std	Y+17, r25	; 0x11
    3918:	06 c0       	rjmp	.+12     	; 0x3926 <f_write+0xe8>
#if _USE_FASTSEEK
					if (fp->cltbl)
						clst = clmt_clust(fp, fp->fptr);	/* Get cluster# from the CLMT */
					else
#endif
						clst = create_chain(fp->fs, fp->clust);	/* Follow or stretch cluster chain on the FAT */
    391a:	4a 89       	ldd	r20, Y+18	; 0x12
    391c:	5b 89       	ldd	r21, Y+19	; 0x13
    391e:	6c 89       	ldd	r22, Y+20	; 0x14
    3920:	7d 89       	ldd	r23, Y+21	; 0x15
    3922:	cf 01       	movw	r24, r30
    3924:	ca da       	rcall	.-2668   	; 0x2eba <_ZL12create_chainP5FATFSm>
				}
				if (clst == 0) break;		/* Could not allocate a new cluster (disk full) */
    3926:	61 15       	cp	r22, r1
    3928:	71 05       	cpc	r23, r1
    392a:	81 05       	cpc	r24, r1
    392c:	91 05       	cpc	r25, r1
    392e:	09 f4       	brne	.+2      	; 0x3932 <f_write+0xf4>
    3930:	05 c1       	rjmp	.+522    	; 0x3b3c <f_write+0x2fe>
				if (clst == 1) ABORT(fp->fs, FR_INT_ERR);
    3932:	61 30       	cpi	r22, 0x01	; 1
    3934:	71 05       	cpc	r23, r1
    3936:	81 05       	cpc	r24, r1
    3938:	91 05       	cpc	r25, r1
    393a:	29 f4       	brne	.+10     	; 0x3946 <f_write+0x108>
    393c:	8c 81       	ldd	r24, Y+4	; 0x04
    393e:	80 68       	ori	r24, 0x80	; 128
    3940:	8c 83       	std	Y+4, r24	; 0x04
    3942:	82 e0       	ldi	r24, 0x02	; 2
    3944:	14 c1       	rjmp	.+552    	; 0x3b6e <f_write+0x330>
				if (clst == 0xFFFFFFFF) ABORT(fp->fs, FR_DISK_ERR);
    3946:	6f 3f       	cpi	r22, 0xFF	; 255
    3948:	ff ef       	ldi	r31, 0xFF	; 255
    394a:	7f 07       	cpc	r23, r31
    394c:	8f 07       	cpc	r24, r31
    394e:	9f 07       	cpc	r25, r31
    3950:	29 f4       	brne	.+10     	; 0x395c <f_write+0x11e>
    3952:	8c 81       	ldd	r24, Y+4	; 0x04
    3954:	80 68       	ori	r24, 0x80	; 128
    3956:	8c 83       	std	Y+4, r24	; 0x04
    3958:	81 e0       	ldi	r24, 0x01	; 1
    395a:	09 c1       	rjmp	.+530    	; 0x3b6e <f_write+0x330>
				fp->clust = clst;			/* Update current cluster */
    395c:	6a 8b       	std	Y+18, r22	; 0x12
    395e:	7b 8b       	std	Y+19, r23	; 0x13
    3960:	8c 8b       	std	Y+20, r24	; 0x14
    3962:	9d 8b       	std	Y+21, r25	; 0x15
			}
#if _FS_TINY
			if (fp->fs->winsect == fp->dsect && sync_window(fp->fs))	/* Write-back sector cache */
    3964:	e8 81       	ld	r30, Y
    3966:	f9 81       	ldd	r31, Y+1	; 0x01
    3968:	46 a5       	ldd	r20, Z+46	; 0x2e
    396a:	57 a5       	ldd	r21, Z+47	; 0x2f
    396c:	60 a9       	ldd	r22, Z+48	; 0x30
    396e:	71 a9       	ldd	r23, Z+49	; 0x31
    3970:	8e 89       	ldd	r24, Y+22	; 0x16
    3972:	9f 89       	ldd	r25, Y+23	; 0x17
    3974:	a8 8d       	ldd	r26, Y+24	; 0x18
    3976:	b9 8d       	ldd	r27, Y+25	; 0x19
    3978:	48 17       	cp	r20, r24
    397a:	59 07       	cpc	r21, r25
    397c:	6a 07       	cpc	r22, r26
    397e:	7b 07       	cpc	r23, r27
    3980:	39 f4       	brne	.+14     	; 0x3990 <f_write+0x152>
    3982:	cf 01       	movw	r24, r30
    3984:	0e 94 a4 10 	call	0x2148	; 0x2148 <_ZL11sync_windowP5FATFS>
    3988:	88 23       	and	r24, r24
    398a:	21 f0       	breq	.+8      	; 0x3994 <f_write+0x156>
    398c:	81 e0       	ldi	r24, 0x01	; 1
    398e:	03 c0       	rjmp	.+6      	; 0x3996 <f_write+0x158>
    3990:	80 e0       	ldi	r24, 0x00	; 0
    3992:	01 c0       	rjmp	.+2      	; 0x3996 <f_write+0x158>
    3994:	80 e0       	ldi	r24, 0x00	; 0
    3996:	88 23       	and	r24, r24
    3998:	29 f0       	breq	.+10     	; 0x39a4 <f_write+0x166>
				ABORT(fp->fs, FR_DISK_ERR);
    399a:	8c 81       	ldd	r24, Y+4	; 0x04
    399c:	80 68       	ori	r24, 0x80	; 128
    399e:	8c 83       	std	Y+4, r24	; 0x04
    39a0:	81 e0       	ldi	r24, 0x01	; 1
    39a2:	e5 c0       	rjmp	.+458    	; 0x3b6e <f_write+0x330>
				if (disk_write(fp->fs->drv, fp->buf, fp->dsect, 1) != RES_OK)
					ABORT(fp->fs, FR_DISK_ERR);
				fp->flag &= ~FA__DIRTY;
			}
#endif
			sect = clust2sect(fp->fs, fp->clust);	/* Get current sector */
    39a4:	4a 89       	ldd	r20, Y+18	; 0x12
    39a6:	5b 89       	ldd	r21, Y+19	; 0x13
    39a8:	6c 89       	ldd	r22, Y+20	; 0x14
    39aa:	7d 89       	ldd	r23, Y+21	; 0x15
    39ac:	28 80       	ld	r2, Y
    39ae:	39 80       	ldd	r3, Y+1	; 0x01
    39b0:	c1 01       	movw	r24, r2
    39b2:	0e 94 6f 14 	call	0x28de	; 0x28de <_Z10clust2sectP5FATFSm>
			if (!sect) ABORT(fp->fs, FR_INT_ERR);
    39b6:	61 15       	cp	r22, r1
    39b8:	71 05       	cpc	r23, r1
    39ba:	81 05       	cpc	r24, r1
    39bc:	91 05       	cpc	r25, r1
    39be:	29 f4       	brne	.+10     	; 0x39ca <f_write+0x18c>
    39c0:	8c 81       	ldd	r24, Y+4	; 0x04
    39c2:	80 68       	ori	r24, 0x80	; 128
    39c4:	8c 83       	std	Y+4, r24	; 0x04
    39c6:	82 e0       	ldi	r24, 0x02	; 2
    39c8:	d2 c0       	rjmp	.+420    	; 0x3b6e <f_write+0x330>
			sect += csect;
    39ca:	2b 01       	movw	r4, r22
    39cc:	3c 01       	movw	r6, r24
    39ce:	41 0e       	add	r4, r17
    39d0:	51 1c       	adc	r5, r1
    39d2:	61 1c       	adc	r6, r1
    39d4:	71 1c       	adc	r7, r1
			cc = btw / SS(fp->fs);			/* When remaining bytes >= sector size, */
    39d6:	76 01       	movw	r14, r12
    39d8:	ef 2c       	mov	r14, r15
    39da:	ff 24       	eor	r15, r15
    39dc:	e6 94       	lsr	r14
			if (cc) {						/* Write maximum contiguous sectors directly */
    39de:	e1 14       	cp	r14, r1
    39e0:	f1 04       	cpc	r15, r1
    39e2:	09 f4       	brne	.+2      	; 0x39e6 <f_write+0x1a8>
    39e4:	40 c0       	rjmp	.+128    	; 0x3a66 <f_write+0x228>
				if (csect + cc > fp->fs->csize)	/* Clip at cluster boundary */
    39e6:	f1 01       	movw	r30, r2
    39e8:	42 81       	ldd	r20, Z+2	; 0x02
    39ea:	24 2f       	mov	r18, r20
    39ec:	30 e0       	ldi	r19, 0x00	; 0
    39ee:	c7 01       	movw	r24, r14
    39f0:	81 0f       	add	r24, r17
    39f2:	91 1d       	adc	r25, r1
    39f4:	28 17       	cp	r18, r24
    39f6:	39 07       	cpc	r19, r25
    39f8:	18 f4       	brcc	.+6      	; 0x3a00 <f_write+0x1c2>
					cc = fp->fs->csize - csect;
    39fa:	79 01       	movw	r14, r18
    39fc:	e1 1a       	sub	r14, r17
    39fe:	f1 08       	sbc	r15, r1
				if (disk_write(fp->fs->drv, wbuff, sect, (BYTE)cc) != RES_OK)
    3a00:	0e 2d       	mov	r16, r14
    3a02:	a3 01       	movw	r20, r6
    3a04:	92 01       	movw	r18, r4
    3a06:	b5 01       	movw	r22, r10
    3a08:	f1 01       	movw	r30, r2
    3a0a:	81 81       	ldd	r24, Z+1	; 0x01
    3a0c:	14 d6       	rcall	.+3112   	; 0x4636 <disk_write>
    3a0e:	88 23       	and	r24, r24
    3a10:	29 f0       	breq	.+10     	; 0x3a1c <f_write+0x1de>
					ABORT(fp->fs, FR_DISK_ERR);
    3a12:	8c 81       	ldd	r24, Y+4	; 0x04
    3a14:	80 68       	ori	r24, 0x80	; 128
    3a16:	8c 83       	std	Y+4, r24	; 0x04
    3a18:	81 e0       	ldi	r24, 0x01	; 1
    3a1a:	a9 c0       	rjmp	.+338    	; 0x3b6e <f_write+0x330>
#if _FS_TINY
				if (fp->fs->winsect - sect < cc) {	/* Refill sector cache if it gets invalidated by the direct write */
    3a1c:	e8 81       	ld	r30, Y
    3a1e:	f9 81       	ldd	r31, Y+1	; 0x01
    3a20:	86 a5       	ldd	r24, Z+46	; 0x2e
    3a22:	97 a5       	ldd	r25, Z+47	; 0x2f
    3a24:	a0 a9       	ldd	r26, Z+48	; 0x30
    3a26:	b1 a9       	ldd	r27, Z+49	; 0x31
    3a28:	84 19       	sub	r24, r4
    3a2a:	95 09       	sbc	r25, r5
    3a2c:	a6 09       	sbc	r26, r6
    3a2e:	b7 09       	sbc	r27, r7
    3a30:	a7 01       	movw	r20, r14
    3a32:	60 e0       	ldi	r22, 0x00	; 0
    3a34:	70 e0       	ldi	r23, 0x00	; 0
    3a36:	84 17       	cp	r24, r20
    3a38:	95 07       	cpc	r25, r21
    3a3a:	a6 07       	cpc	r26, r22
    3a3c:	b7 07       	cpc	r27, r23
    3a3e:	78 f4       	brcc	.+30     	; 0x3a5e <f_write+0x220>
					mem_cpy(fp->fs->win, wbuff + ((fp->fs->winsect - sect) * SS(fp->fs)), SS(fp->fs));
    3a40:	98 2f       	mov	r25, r24
    3a42:	88 27       	eor	r24, r24
    3a44:	99 0f       	add	r25, r25
    3a46:	b5 01       	movw	r22, r10
    3a48:	68 0f       	add	r22, r24
    3a4a:	79 1f       	adc	r23, r25
    3a4c:	40 e0       	ldi	r20, 0x00	; 0
    3a4e:	52 e0       	ldi	r21, 0x02	; 2
    3a50:	cf 01       	movw	r24, r30
    3a52:	c2 96       	adiw	r24, 0x32	; 50
    3a54:	0e 94 39 0f 	call	0x1e72	; 0x1e72 <_ZL7mem_cpyPvPKvj>
					fp->fs->wflag = 0;
    3a58:	e8 81       	ld	r30, Y
    3a5a:	f9 81       	ldd	r31, Y+1	; 0x01
    3a5c:	14 82       	std	Z+4, r1	; 0x04
				if (fp->dsect - sect < cc) { /* Refill sector cache if it gets invalidated by the direct write */
					mem_cpy(fp->buf, wbuff + ((fp->dsect - sect) * SS(fp->fs)), SS(fp->fs));
					fp->flag &= ~FA__DIRTY;
				}
#endif
				wcnt = SS(fp->fs) * cc;		/* Number of bytes transferred */
    3a5e:	fe 2c       	mov	r15, r14
    3a60:	ee 24       	eor	r14, r14
    3a62:	ff 0c       	add	r15, r15
				continue;
    3a64:	53 c0       	rjmp	.+166    	; 0x3b0c <f_write+0x2ce>
			}
#if _FS_TINY
			if (fp->fptr >= fp->fsize) {	/* Avoid silly cache filling at growing edge */
    3a66:	4e 81       	ldd	r20, Y+6	; 0x06
    3a68:	5f 81       	ldd	r21, Y+7	; 0x07
    3a6a:	68 85       	ldd	r22, Y+8	; 0x08
    3a6c:	79 85       	ldd	r23, Y+9	; 0x09
    3a6e:	8a 85       	ldd	r24, Y+10	; 0x0a
    3a70:	9b 85       	ldd	r25, Y+11	; 0x0b
    3a72:	ac 85       	ldd	r26, Y+12	; 0x0c
    3a74:	bd 85       	ldd	r27, Y+13	; 0x0d
    3a76:	48 17       	cp	r20, r24
    3a78:	59 07       	cpc	r21, r25
    3a7a:	6a 07       	cpc	r22, r26
    3a7c:	7b 07       	cpc	r23, r27
    3a7e:	80 f0       	brcs	.+32     	; 0x3aa0 <f_write+0x262>
				if (sync_window(fp->fs)) ABORT(fp->fs, FR_DISK_ERR);
    3a80:	c1 01       	movw	r24, r2
    3a82:	0e 94 a4 10 	call	0x2148	; 0x2148 <_ZL11sync_windowP5FATFS>
    3a86:	88 23       	and	r24, r24
    3a88:	29 f0       	breq	.+10     	; 0x3a94 <f_write+0x256>
    3a8a:	8c 81       	ldd	r24, Y+4	; 0x04
    3a8c:	80 68       	ori	r24, 0x80	; 128
    3a8e:	8c 83       	std	Y+4, r24	; 0x04
    3a90:	81 e0       	ldi	r24, 0x01	; 1
    3a92:	6d c0       	rjmp	.+218    	; 0x3b6e <f_write+0x330>
				fp->fs->winsect = sect;
    3a94:	e8 81       	ld	r30, Y
    3a96:	f9 81       	ldd	r31, Y+1	; 0x01
    3a98:	46 a6       	std	Z+46, r4	; 0x2e
    3a9a:	57 a6       	std	Z+47, r5	; 0x2f
    3a9c:	60 aa       	std	Z+48, r6	; 0x30
    3a9e:	71 aa       	std	Z+49, r7	; 0x31
				if (fp->fptr < fp->fsize &&
					disk_read(fp->fs->drv, fp->buf, sect, 1) != RES_OK)
						ABORT(fp->fs, FR_DISK_ERR);
			}
#endif
			fp->dsect = sect;
    3aa0:	4e 8a       	std	Y+22, r4	; 0x16
    3aa2:	5f 8a       	std	Y+23, r5	; 0x17
    3aa4:	68 8e       	std	Y+24, r6	; 0x18
    3aa6:	79 8e       	std	Y+25, r7	; 0x19
		}
		wcnt = SS(fp->fs) - ((UINT)fp->fptr % SS(fp->fs));/* Put partial sector into file I/O buffer */
    3aa8:	8e 81       	ldd	r24, Y+6	; 0x06
    3aaa:	9f 81       	ldd	r25, Y+7	; 0x07
    3aac:	a8 85       	ldd	r26, Y+8	; 0x08
    3aae:	b9 85       	ldd	r27, Y+9	; 0x09
    3ab0:	91 70       	andi	r25, 0x01	; 1
    3ab2:	20 e0       	ldi	r18, 0x00	; 0
    3ab4:	32 e0       	ldi	r19, 0x02	; 2
    3ab6:	79 01       	movw	r14, r18
    3ab8:	e8 1a       	sub	r14, r24
    3aba:	f9 0a       	sbc	r15, r25
		if (wcnt > btw) wcnt = btw;
    3abc:	ce 14       	cp	r12, r14
    3abe:	df 04       	cpc	r13, r15
    3ac0:	08 f4       	brcc	.+2      	; 0x3ac4 <f_write+0x286>
    3ac2:	76 01       	movw	r14, r12
#if _FS_TINY
		if (move_window(fp->fs, fp->dsect))	/* Move sector window */
    3ac4:	4e 89       	ldd	r20, Y+22	; 0x16
    3ac6:	5f 89       	ldd	r21, Y+23	; 0x17
    3ac8:	68 8d       	ldd	r22, Y+24	; 0x18
    3aca:	79 8d       	ldd	r23, Y+25	; 0x19
    3acc:	88 81       	ld	r24, Y
    3ace:	99 81       	ldd	r25, Y+1	; 0x01
    3ad0:	0e 94 0b 11 	call	0x2216	; 0x2216 <_ZL11move_windowP5FATFSm>
    3ad4:	88 23       	and	r24, r24
    3ad6:	29 f0       	breq	.+10     	; 0x3ae2 <f_write+0x2a4>
			ABORT(fp->fs, FR_DISK_ERR);
    3ad8:	8c 81       	ldd	r24, Y+4	; 0x04
    3ada:	80 68       	ori	r24, 0x80	; 128
    3adc:	8c 83       	std	Y+4, r24	; 0x04
    3ade:	81 e0       	ldi	r24, 0x01	; 1
    3ae0:	46 c0       	rjmp	.+140    	; 0x3b6e <f_write+0x330>
		mem_cpy(&fp->fs->win[fp->fptr % SS(fp->fs)], wbuff, wcnt);	/* Fit partial sector */
    3ae2:	28 81       	ld	r18, Y
    3ae4:	39 81       	ldd	r19, Y+1	; 0x01
    3ae6:	4e 81       	ldd	r20, Y+6	; 0x06
    3ae8:	5f 81       	ldd	r21, Y+7	; 0x07
    3aea:	68 85       	ldd	r22, Y+8	; 0x08
    3aec:	79 85       	ldd	r23, Y+9	; 0x09
    3aee:	51 70       	andi	r21, 0x01	; 1
    3af0:	66 27       	eor	r22, r22
    3af2:	77 27       	eor	r23, r23
    3af4:	ca 01       	movw	r24, r20
    3af6:	c2 96       	adiw	r24, 0x32	; 50
    3af8:	a7 01       	movw	r20, r14
    3afa:	b5 01       	movw	r22, r10
    3afc:	82 0f       	add	r24, r18
    3afe:	93 1f       	adc	r25, r19
    3b00:	0e 94 39 0f 	call	0x1e72	; 0x1e72 <_ZL7mem_cpyPvPKvj>
		fp->fs->wflag = 1;
    3b04:	e8 81       	ld	r30, Y
    3b06:	f9 81       	ldd	r31, Y+1	; 0x01
    3b08:	81 e0       	ldi	r24, 0x01	; 1
    3b0a:	84 83       	std	Z+4, r24	; 0x04
		LEAVE_FF(fp->fs, FR_INT_ERR);
	if (!(fp->flag & FA_WRITE))				/* Check access mode */
		LEAVE_FF(fp->fs, FR_DENIED);
	if ((DWORD)(fp->fsize + btw) < fp->fsize) btw = 0;	/* File size cannot reach 4GB */

	for ( ;  btw;							/* Repeat until all data written */
    3b0c:	ae 0c       	add	r10, r14
    3b0e:	bf 1c       	adc	r11, r15
    3b10:	8e 81       	ldd	r24, Y+6	; 0x06
    3b12:	9f 81       	ldd	r25, Y+7	; 0x07
    3b14:	a8 85       	ldd	r26, Y+8	; 0x08
    3b16:	b9 85       	ldd	r27, Y+9	; 0x09
    3b18:	8e 0d       	add	r24, r14
    3b1a:	9f 1d       	adc	r25, r15
    3b1c:	a1 1d       	adc	r26, r1
    3b1e:	b1 1d       	adc	r27, r1
    3b20:	8e 83       	std	Y+6, r24	; 0x06
    3b22:	9f 83       	std	Y+7, r25	; 0x07
    3b24:	a8 87       	std	Y+8, r26	; 0x08
    3b26:	b9 87       	std	Y+9, r27	; 0x09
    3b28:	f4 01       	movw	r30, r8
    3b2a:	80 81       	ld	r24, Z
    3b2c:	91 81       	ldd	r25, Z+1	; 0x01
    3b2e:	8e 0d       	add	r24, r14
    3b30:	9f 1d       	adc	r25, r15
    3b32:	91 83       	std	Z+1, r25	; 0x01
    3b34:	80 83       	st	Z, r24
    3b36:	ce 18       	sub	r12, r14
    3b38:	df 08       	sbc	r13, r15
    3b3a:	b5 ce       	rjmp	.-662    	; 0x38a6 <f_write+0x68>
		mem_cpy(&fp->buf[fp->fptr % SS(fp->fs)], wbuff, wcnt);	/* Fit partial sector */
		fp->flag |= FA__DIRTY;
#endif
	}

	if (fp->fptr > fp->fsize) fp->fsize = fp->fptr;	/* Update file size if needed */
    3b3c:	8e 81       	ldd	r24, Y+6	; 0x06
    3b3e:	9f 81       	ldd	r25, Y+7	; 0x07
    3b40:	a8 85       	ldd	r26, Y+8	; 0x08
    3b42:	b9 85       	ldd	r27, Y+9	; 0x09
    3b44:	4a 85       	ldd	r20, Y+10	; 0x0a
    3b46:	5b 85       	ldd	r21, Y+11	; 0x0b
    3b48:	6c 85       	ldd	r22, Y+12	; 0x0c
    3b4a:	7d 85       	ldd	r23, Y+13	; 0x0d
    3b4c:	48 17       	cp	r20, r24
    3b4e:	59 07       	cpc	r21, r25
    3b50:	6a 07       	cpc	r22, r26
    3b52:	7b 07       	cpc	r23, r27
    3b54:	20 f4       	brcc	.+8      	; 0x3b5e <f_write+0x320>
    3b56:	8a 87       	std	Y+10, r24	; 0x0a
    3b58:	9b 87       	std	Y+11, r25	; 0x0b
    3b5a:	ac 87       	std	Y+12, r26	; 0x0c
    3b5c:	bd 87       	std	Y+13, r27	; 0x0d
	fp->flag |= FA__WRITTEN;						/* Set file change flag */
    3b5e:	8c 81       	ldd	r24, Y+4	; 0x04
    3b60:	80 62       	ori	r24, 0x20	; 32
    3b62:	8c 83       	std	Y+4, r24	; 0x04

	LEAVE_FF(fp->fs, FR_OK);
    3b64:	80 e0       	ldi	r24, 0x00	; 0
    3b66:	03 c0       	rjmp	.+6      	; 0x3b6e <f_write+0x330>
	*bw = 0;	/* Clear write byte counter */

	res = validate(fp);						/* Check validity */
	if (res != FR_OK) LEAVE_FF(fp->fs, res);
	if (fp->flag & FA__ERROR)				/* Aborted file? */
		LEAVE_FF(fp->fs, FR_INT_ERR);
    3b68:	82 e0       	ldi	r24, 0x02	; 2
    3b6a:	01 c0       	rjmp	.+2      	; 0x3b6e <f_write+0x330>
	if (!(fp->flag & FA_WRITE))				/* Check access mode */
		LEAVE_FF(fp->fs, FR_DENIED);
    3b6c:	87 e0       	ldi	r24, 0x07	; 7

	if (fp->fptr > fp->fsize) fp->fsize = fp->fptr;	/* Update file size if needed */
	fp->flag |= FA__WRITTEN;						/* Set file change flag */

	LEAVE_FF(fp->fs, FR_OK);
}
    3b6e:	df 91       	pop	r29
    3b70:	cf 91       	pop	r28
    3b72:	1f 91       	pop	r17
    3b74:	0f 91       	pop	r16
    3b76:	ff 90       	pop	r15
    3b78:	ef 90       	pop	r14
    3b7a:	df 90       	pop	r13
    3b7c:	cf 90       	pop	r12
    3b7e:	bf 90       	pop	r11
    3b80:	af 90       	pop	r10
    3b82:	9f 90       	pop	r9
    3b84:	8f 90       	pop	r8
    3b86:	7f 90       	pop	r7
    3b88:	6f 90       	pop	r6
    3b8a:	5f 90       	pop	r5
    3b8c:	4f 90       	pop	r4
    3b8e:	3f 90       	pop	r3
    3b90:	2f 90       	pop	r2
    3b92:	08 95       	ret

00003b94 <f_sync>:
/*-----------------------------------------------------------------------*/

FRESULT f_sync (
	FIL *fp		/* Pointer to the file object */
)
{
    3b94:	0f 93       	push	r16
    3b96:	1f 93       	push	r17
    3b98:	cf 93       	push	r28
    3b9a:	df 93       	push	r29
    3b9c:	ec 01       	movw	r28, r24
	FRESULT res;
	DWORD tm;
	BYTE *dir;


	res = validate(fp);					/* Check validity of the object */
    3b9e:	0e 94 43 11 	call	0x2286	; 0x2286 <_ZL8validatePv>
	if (res == FR_OK) {
    3ba2:	81 11       	cpse	r24, r1
    3ba4:	36 c0       	rjmp	.+108    	; 0x3c12 <f_sync+0x7e>
		if (fp->flag & FA__WRITTEN) {	/* Has the file been written? */
    3ba6:	9c 81       	ldd	r25, Y+4	; 0x04
    3ba8:	95 ff       	sbrs	r25, 5
    3baa:	33 c0       	rjmp	.+102    	; 0x3c12 <f_sync+0x7e>
					LEAVE_FF(fp->fs, FR_DISK_ERR);
				fp->flag &= ~FA__DIRTY;
			}
#endif
			/* Update the directory entry */
			res = move_window(fp->fs, fp->dir_sect);
    3bac:	4a 8d       	ldd	r20, Y+26	; 0x1a
    3bae:	5b 8d       	ldd	r21, Y+27	; 0x1b
    3bb0:	6c 8d       	ldd	r22, Y+28	; 0x1c
    3bb2:	7d 8d       	ldd	r23, Y+29	; 0x1d
    3bb4:	88 81       	ld	r24, Y
    3bb6:	99 81       	ldd	r25, Y+1	; 0x01
    3bb8:	0e 94 0b 11 	call	0x2216	; 0x2216 <_ZL11move_windowP5FATFSm>
			if (res == FR_OK) {
    3bbc:	81 11       	cpse	r24, r1
    3bbe:	29 c0       	rjmp	.+82     	; 0x3c12 <f_sync+0x7e>
				dir = fp->dir_ptr;
    3bc0:	0e 8d       	ldd	r16, Y+30	; 0x1e
    3bc2:	1f 8d       	ldd	r17, Y+31	; 0x1f
				dir[DIR_Attr] |= AM_ARC;					/* Set archive bit */
    3bc4:	f8 01       	movw	r30, r16
    3bc6:	83 85       	ldd	r24, Z+11	; 0x0b
    3bc8:	80 62       	ori	r24, 0x20	; 32
    3bca:	83 87       	std	Z+11, r24	; 0x0b
				ST_DWORD(dir+DIR_FileSize, fp->fsize);		/* Update file size */
    3bcc:	8a 85       	ldd	r24, Y+10	; 0x0a
    3bce:	9b 85       	ldd	r25, Y+11	; 0x0b
    3bd0:	ac 85       	ldd	r26, Y+12	; 0x0c
    3bd2:	bd 85       	ldd	r27, Y+13	; 0x0d
    3bd4:	84 8f       	std	Z+28, r24	; 0x1c
    3bd6:	95 8f       	std	Z+29, r25	; 0x1d
    3bd8:	a6 8f       	std	Z+30, r26	; 0x1e
    3bda:	b7 8f       	std	Z+31, r27	; 0x1f
				st_clust(dir, fp->sclust);					/* Update start cluster */
    3bdc:	4e 85       	ldd	r20, Y+14	; 0x0e
    3bde:	5f 85       	ldd	r21, Y+15	; 0x0f
    3be0:	68 89       	ldd	r22, Y+16	; 0x10
    3be2:	79 89       	ldd	r23, Y+17	; 0x11
    3be4:	c8 01       	movw	r24, r16
    3be6:	0e 94 a5 0f 	call	0x1f4a	; 0x1f4a <_ZL8st_clustPhm>
				tm = get_fattime();							/* Update updated time */
    3bea:	0e 94 42 01 	call	0x284	; 0x284 <get_fattime>
				ST_DWORD(dir+DIR_WrtTime, tm);
    3bee:	f8 01       	movw	r30, r16
    3bf0:	66 8b       	std	Z+22, r22	; 0x16
    3bf2:	77 8b       	std	Z+23, r23	; 0x17
    3bf4:	80 8f       	std	Z+24, r24	; 0x18
    3bf6:	91 8f       	std	Z+25, r25	; 0x19
				ST_WORD(dir+DIR_LstAccDate, 0);
    3bf8:	13 8a       	std	Z+19, r1	; 0x13
    3bfa:	12 8a       	std	Z+18, r1	; 0x12
				fp->flag &= ~FA__WRITTEN;
    3bfc:	8c 81       	ldd	r24, Y+4	; 0x04
    3bfe:	8f 7d       	andi	r24, 0xDF	; 223
    3c00:	8c 83       	std	Y+4, r24	; 0x04
				fp->fs->wflag = 1;
    3c02:	e8 81       	ld	r30, Y
    3c04:	f9 81       	ldd	r31, Y+1	; 0x01
    3c06:	81 e0       	ldi	r24, 0x01	; 1
    3c08:	84 83       	std	Z+4, r24	; 0x04
				res = sync_fs(fp->fs);
    3c0a:	88 81       	ld	r24, Y
    3c0c:	99 81       	ldd	r25, Y+1	; 0x01
    3c0e:	0e 94 0a 14 	call	0x2814	; 0x2814 <_ZL7sync_fsP5FATFS>
			}
		}
	}

	LEAVE_FF(fp->fs, res);
}
    3c12:	df 91       	pop	r29
    3c14:	cf 91       	pop	r28
    3c16:	1f 91       	pop	r17
    3c18:	0f 91       	pop	r16
    3c1a:	08 95       	ret

00003c1c <f_close>:
/*-----------------------------------------------------------------------*/

FRESULT f_close (
	FIL *fp		/* Pointer to the file object to be closed */
)
{
    3c1c:	cf 93       	push	r28
    3c1e:	df 93       	push	r29
    3c20:	ec 01       	movw	r28, r24
#endif
		if (res == FR_OK) fp->fs = 0;	/* Discard file object */
		LEAVE_FF(fs, res);
	}
#else
	res = f_sync(fp);		/* Flush cached data */
    3c22:	b8 df       	rcall	.-144    	; 0x3b94 <f_sync>
#else
		res = dec_lock(fp->lockid);
#endif
	}
#endif
	if (res == FR_OK) fp->fs = 0;	/* Discard file object */
    3c24:	81 11       	cpse	r24, r1
    3c26:	02 c0       	rjmp	.+4      	; 0x3c2c <f_close+0x10>
    3c28:	19 82       	std	Y+1, r1	; 0x01
    3c2a:	18 82       	st	Y, r1
	return res;
#endif
}
    3c2c:	df 91       	pop	r29
    3c2e:	cf 91       	pop	r28
    3c30:	08 95       	ret

00003c32 <f_lseek>:

FRESULT f_lseek (
	FIL *fp,		/* Pointer to the file object */
	DWORD ofs		/* File pointer from top of file */
)
{
    3c32:	2f 92       	push	r2
    3c34:	3f 92       	push	r3
    3c36:	4f 92       	push	r4
    3c38:	5f 92       	push	r5
    3c3a:	6f 92       	push	r6
    3c3c:	7f 92       	push	r7
    3c3e:	8f 92       	push	r8
    3c40:	9f 92       	push	r9
    3c42:	af 92       	push	r10
    3c44:	bf 92       	push	r11
    3c46:	cf 92       	push	r12
    3c48:	df 92       	push	r13
    3c4a:	ef 92       	push	r14
    3c4c:	ff 92       	push	r15
    3c4e:	1f 93       	push	r17
    3c50:	cf 93       	push	r28
    3c52:	df 93       	push	r29
    3c54:	00 d0       	rcall	.+0      	; 0x3c56 <f_lseek+0x24>
    3c56:	00 d0       	rcall	.+0      	; 0x3c58 <f_lseek+0x26>
    3c58:	00 d0       	rcall	.+0      	; 0x3c5a <f_lseek+0x28>
    3c5a:	cd b7       	in	r28, 0x3d	; 61
    3c5c:	de b7       	in	r29, 0x3e	; 62
    3c5e:	9e 83       	std	Y+6, r25	; 0x06
    3c60:	8d 83       	std	Y+5, r24	; 0x05
    3c62:	6a 01       	movw	r12, r20
    3c64:	7b 01       	movw	r14, r22
	FRESULT res;


	res = validate(fp);					/* Check validity of the object */
    3c66:	0e 94 43 11 	call	0x2286	; 0x2286 <_ZL8validatePv>
    3c6a:	18 2f       	mov	r17, r24
	if (res != FR_OK) LEAVE_FF(fp->fs, res);
    3c6c:	81 11       	cpse	r24, r1
    3c6e:	92 c1       	rjmp	.+804    	; 0x3f94 <f_lseek+0x362>
	if (fp->flag & FA__ERROR)			/* Check abort flag */
    3c70:	ad 81       	ldd	r26, Y+5	; 0x05
    3c72:	be 81       	ldd	r27, Y+6	; 0x06
    3c74:	14 96       	adiw	r26, 0x04	; 4
    3c76:	8c 91       	ld	r24, X
    3c78:	14 97       	sbiw	r26, 0x04	; 4
    3c7a:	88 23       	and	r24, r24
    3c7c:	0c f4       	brge	.+2      	; 0x3c80 <f_lseek+0x4e>
    3c7e:	8b c1       	rjmp	.+790    	; 0x3f96 <f_lseek+0x364>

	/* Normal Seek */
	{
		DWORD clst, bcs, nsect, ifptr;

		if (ofs > fp->fsize					/* In read-only mode, clip offset with the file size */
    3c80:	1a 96       	adiw	r26, 0x0a	; 10
    3c82:	4d 91       	ld	r20, X+
    3c84:	5d 91       	ld	r21, X+
    3c86:	6d 91       	ld	r22, X+
    3c88:	7c 91       	ld	r23, X
    3c8a:	1d 97       	sbiw	r26, 0x0d	; 13
    3c8c:	4c 15       	cp	r20, r12
    3c8e:	5d 05       	cpc	r21, r13
    3c90:	6e 05       	cpc	r22, r14
    3c92:	7f 05       	cpc	r23, r15
    3c94:	20 f4       	brcc	.+8      	; 0x3c9e <f_lseek+0x6c>
#if !_FS_READONLY
			 && !(fp->flag & FA_WRITE)
    3c96:	81 fd       	sbrc	r24, 1
    3c98:	02 c0       	rjmp	.+4      	; 0x3c9e <f_lseek+0x6c>
#endif
			) ofs = fp->fsize;
    3c9a:	6a 01       	movw	r12, r20
    3c9c:	7b 01       	movw	r14, r22

		ifptr = fp->fptr;
    3c9e:	ed 81       	ldd	r30, Y+5	; 0x05
    3ca0:	fe 81       	ldd	r31, Y+6	; 0x06
    3ca2:	46 80       	ldd	r4, Z+6	; 0x06
    3ca4:	57 80       	ldd	r5, Z+7	; 0x07
    3ca6:	60 84       	ldd	r6, Z+8	; 0x08
    3ca8:	71 84       	ldd	r7, Z+9	; 0x09
		fp->fptr = nsect = 0;
    3caa:	16 82       	std	Z+6, r1	; 0x06
    3cac:	17 82       	std	Z+7, r1	; 0x07
    3cae:	10 86       	std	Z+8, r1	; 0x08
    3cb0:	11 86       	std	Z+9, r1	; 0x09
		if (ofs) {
    3cb2:	c1 14       	cp	r12, r1
    3cb4:	d1 04       	cpc	r13, r1
    3cb6:	e1 04       	cpc	r14, r1
    3cb8:	f1 04       	cpc	r15, r1
    3cba:	09 f4       	brne	.+2      	; 0x3cbe <f_lseek+0x8c>
    3cbc:	30 c1       	rjmp	.+608    	; 0x3f1e <f_lseek+0x2ec>
			bcs = (DWORD)fp->fs->csize * SS(fp->fs);	/* Cluster size (byte) */
    3cbe:	20 80       	ld	r2, Z
    3cc0:	31 80       	ldd	r3, Z+1	; 0x01
    3cc2:	f1 01       	movw	r30, r2
    3cc4:	82 80       	ldd	r8, Z+2	; 0x02
    3cc6:	91 2c       	mov	r9, r1
    3cc8:	a1 2c       	mov	r10, r1
    3cca:	b1 2c       	mov	r11, r1
    3ccc:	07 2e       	mov	r0, r23
    3cce:	79 e0       	ldi	r23, 0x09	; 9
    3cd0:	88 0c       	add	r8, r8
    3cd2:	99 1c       	adc	r9, r9
    3cd4:	aa 1c       	adc	r10, r10
    3cd6:	bb 1c       	adc	r11, r11
    3cd8:	7a 95       	dec	r23
    3cda:	d1 f7       	brne	.-12     	; 0x3cd0 <f_lseek+0x9e>
    3cdc:	70 2d       	mov	r23, r0
			if (ifptr > 0 &&
    3cde:	41 14       	cp	r4, r1
    3ce0:	51 04       	cpc	r5, r1
    3ce2:	61 04       	cpc	r6, r1
    3ce4:	71 04       	cpc	r7, r1
    3ce6:	09 f4       	brne	.+2      	; 0x3cea <f_lseek+0xb8>
    3ce8:	3e c0       	rjmp	.+124    	; 0x3d66 <f_lseek+0x134>
				(ofs - 1) / bcs >= (ifptr - 1) / bcs) {	/* When seek to same or following cluster, */
    3cea:	c7 01       	movw	r24, r14
    3cec:	b6 01       	movw	r22, r12
    3cee:	61 50       	subi	r22, 0x01	; 1
    3cf0:	71 09       	sbc	r23, r1
    3cf2:	81 09       	sbc	r24, r1
    3cf4:	91 09       	sbc	r25, r1
    3cf6:	a5 01       	movw	r20, r10
    3cf8:	94 01       	movw	r18, r8
    3cfa:	c4 d5       	rcall	.+2952   	; 0x4884 <__udivmodsi4>
    3cfc:	29 83       	std	Y+1, r18	; 0x01
    3cfe:	3a 83       	std	Y+2, r19	; 0x02
    3d00:	4b 83       	std	Y+3, r20	; 0x03
    3d02:	5c 83       	std	Y+4, r21	; 0x04
    3d04:	f1 e0       	ldi	r31, 0x01	; 1
    3d06:	4f 1a       	sub	r4, r31
    3d08:	51 08       	sbc	r5, r1
    3d0a:	61 08       	sbc	r6, r1
    3d0c:	71 08       	sbc	r7, r1
    3d0e:	c3 01       	movw	r24, r6
    3d10:	b2 01       	movw	r22, r4
    3d12:	a5 01       	movw	r20, r10
    3d14:	94 01       	movw	r18, r8
    3d16:	b6 d5       	rcall	.+2924   	; 0x4884 <__udivmodsi4>

		ifptr = fp->fptr;
		fp->fptr = nsect = 0;
		if (ofs) {
			bcs = (DWORD)fp->fs->csize * SS(fp->fs);	/* Cluster size (byte) */
			if (ifptr > 0 &&
    3d18:	89 81       	ldd	r24, Y+1	; 0x01
    3d1a:	9a 81       	ldd	r25, Y+2	; 0x02
    3d1c:	ab 81       	ldd	r26, Y+3	; 0x03
    3d1e:	bc 81       	ldd	r27, Y+4	; 0x04
    3d20:	82 17       	cp	r24, r18
    3d22:	93 07       	cpc	r25, r19
    3d24:	a4 07       	cpc	r26, r20
    3d26:	b5 07       	cpc	r27, r21
    3d28:	f0 f0       	brcs	.+60     	; 0x3d66 <f_lseek+0x134>
				(ofs - 1) / bcs >= (ifptr - 1) / bcs) {	/* When seek to same or following cluster, */
				fp->fptr = (ifptr - 1) & ~(bcs - 1);	/* start from the current cluster */
    3d2a:	88 27       	eor	r24, r24
    3d2c:	99 27       	eor	r25, r25
    3d2e:	dc 01       	movw	r26, r24
    3d30:	88 19       	sub	r24, r8
    3d32:	99 09       	sbc	r25, r9
    3d34:	aa 09       	sbc	r26, r10
    3d36:	bb 09       	sbc	r27, r11
    3d38:	48 22       	and	r4, r24
    3d3a:	59 22       	and	r5, r25
    3d3c:	6a 22       	and	r6, r26
    3d3e:	7b 22       	and	r7, r27
    3d40:	ad 81       	ldd	r26, Y+5	; 0x05
    3d42:	be 81       	ldd	r27, Y+6	; 0x06
    3d44:	16 96       	adiw	r26, 0x06	; 6
    3d46:	4d 92       	st	X+, r4
    3d48:	5d 92       	st	X+, r5
    3d4a:	6d 92       	st	X+, r6
    3d4c:	7c 92       	st	X, r7
    3d4e:	19 97       	sbiw	r26, 0x09	; 9
				ofs -= fp->fptr;
    3d50:	c4 18       	sub	r12, r4
    3d52:	d5 08       	sbc	r13, r5
    3d54:	e6 08       	sbc	r14, r6
    3d56:	f7 08       	sbc	r15, r7
				clst = fp->clust;
    3d58:	52 96       	adiw	r26, 0x12	; 18
    3d5a:	4d 91       	ld	r20, X+
    3d5c:	5d 91       	ld	r21, X+
    3d5e:	6d 91       	ld	r22, X+
    3d60:	7c 91       	ld	r23, X
    3d62:	55 97       	sbiw	r26, 0x15	; 21
    3d64:	3c c0       	rjmp	.+120    	; 0x3dde <f_lseek+0x1ac>
			} else {									/* When seek to back cluster, */
				clst = fp->sclust;						/* start from the first cluster */
    3d66:	ed 81       	ldd	r30, Y+5	; 0x05
    3d68:	fe 81       	ldd	r31, Y+6	; 0x06
    3d6a:	46 85       	ldd	r20, Z+14	; 0x0e
    3d6c:	57 85       	ldd	r21, Z+15	; 0x0f
    3d6e:	60 89       	ldd	r22, Z+16	; 0x10
    3d70:	71 89       	ldd	r23, Z+17	; 0x11
#if !_FS_READONLY
				if (clst == 0) {						/* If no cluster chain, create a new chain */
    3d72:	41 15       	cp	r20, r1
    3d74:	51 05       	cpc	r21, r1
    3d76:	61 05       	cpc	r22, r1
    3d78:	71 05       	cpc	r23, r1
    3d7a:	59 f5       	brne	.+86     	; 0x3dd2 <f_lseek+0x1a0>
					clst = create_chain(fp->fs, 0);
    3d7c:	40 e0       	ldi	r20, 0x00	; 0
    3d7e:	50 e0       	ldi	r21, 0x00	; 0
    3d80:	ba 01       	movw	r22, r20
    3d82:	c1 01       	movw	r24, r2
    3d84:	9a d8       	rcall	.-3788   	; 0x2eba <_ZL12create_chainP5FATFSm>
    3d86:	ab 01       	movw	r20, r22
    3d88:	bc 01       	movw	r22, r24
					if (clst == 1) ABORT(fp->fs, FR_INT_ERR);
    3d8a:	41 30       	cpi	r20, 0x01	; 1
    3d8c:	51 05       	cpc	r21, r1
    3d8e:	61 05       	cpc	r22, r1
    3d90:	71 05       	cpc	r23, r1
    3d92:	51 f4       	brne	.+20     	; 0x3da8 <f_lseek+0x176>
    3d94:	ad 81       	ldd	r26, Y+5	; 0x05
    3d96:	be 81       	ldd	r27, Y+6	; 0x06
    3d98:	14 96       	adiw	r26, 0x04	; 4
    3d9a:	8c 91       	ld	r24, X
    3d9c:	14 97       	sbiw	r26, 0x04	; 4
    3d9e:	80 68       	ori	r24, 0x80	; 128
    3da0:	14 96       	adiw	r26, 0x04	; 4
    3da2:	8c 93       	st	X, r24
    3da4:	82 e0       	ldi	r24, 0x02	; 2
    3da6:	fa c0       	rjmp	.+500    	; 0x3f9c <f_lseek+0x36a>
					if (clst == 0xFFFFFFFF) ABORT(fp->fs, FR_DISK_ERR);
    3da8:	4f 3f       	cpi	r20, 0xFF	; 255
    3daa:	bf ef       	ldi	r27, 0xFF	; 255
    3dac:	5b 07       	cpc	r21, r27
    3dae:	6b 07       	cpc	r22, r27
    3db0:	7b 07       	cpc	r23, r27
    3db2:	39 f4       	brne	.+14     	; 0x3dc2 <f_lseek+0x190>
    3db4:	ed 81       	ldd	r30, Y+5	; 0x05
    3db6:	fe 81       	ldd	r31, Y+6	; 0x06
    3db8:	84 81       	ldd	r24, Z+4	; 0x04
    3dba:	80 68       	ori	r24, 0x80	; 128
    3dbc:	84 83       	std	Z+4, r24	; 0x04
    3dbe:	81 e0       	ldi	r24, 0x01	; 1
    3dc0:	ed c0       	rjmp	.+474    	; 0x3f9c <f_lseek+0x36a>
					fp->sclust = clst;
    3dc2:	ad 81       	ldd	r26, Y+5	; 0x05
    3dc4:	be 81       	ldd	r27, Y+6	; 0x06
    3dc6:	1e 96       	adiw	r26, 0x0e	; 14
    3dc8:	4d 93       	st	X+, r20
    3dca:	5d 93       	st	X+, r21
    3dcc:	6d 93       	st	X+, r22
    3dce:	7c 93       	st	X, r23
    3dd0:	51 97       	sbiw	r26, 0x11	; 17
				}
#endif
				fp->clust = clst;
    3dd2:	ed 81       	ldd	r30, Y+5	; 0x05
    3dd4:	fe 81       	ldd	r31, Y+6	; 0x06
    3dd6:	42 8b       	std	Z+18, r20	; 0x12
    3dd8:	53 8b       	std	Z+19, r21	; 0x13
    3dda:	64 8b       	std	Z+20, r22	; 0x14
    3ddc:	75 8b       	std	Z+21, r23	; 0x15
			}
			if (clst != 0) {
    3dde:	41 15       	cp	r20, r1
    3de0:	51 05       	cpc	r21, r1
    3de2:	61 05       	cpc	r22, r1
    3de4:	71 05       	cpc	r23, r1
    3de6:	09 f4       	brne	.+2      	; 0x3dea <f_lseek+0x1b8>
    3de8:	9e c0       	rjmp	.+316    	; 0x3f26 <f_lseek+0x2f4>
				while (ofs > bcs) {						/* Cluster following loop */
    3dea:	8c 14       	cp	r8, r12
    3dec:	9d 04       	cpc	r9, r13
    3dee:	ae 04       	cpc	r10, r14
    3df0:	bf 04       	cpc	r11, r15
    3df2:	08 f0       	brcs	.+2      	; 0x3df6 <f_lseek+0x1c4>
    3df4:	5c c0       	rjmp	.+184    	; 0x3eae <f_lseek+0x27c>
#if !_FS_READONLY
					if (fp->flag & FA_WRITE) {			/* Check if in write mode or not */
    3df6:	ad 81       	ldd	r26, Y+5	; 0x05
    3df8:	be 81       	ldd	r27, Y+6	; 0x06
    3dfa:	14 96       	adiw	r26, 0x04	; 4
    3dfc:	8c 91       	ld	r24, X
    3dfe:	14 97       	sbiw	r26, 0x04	; 4
    3e00:	81 ff       	sbrs	r24, 1
						clst = create_chain(fp->fs, clst);	/* Force stretch if in write mode */
    3e02:	0d c0       	rjmp	.+26     	; 0x3e1e <f_lseek+0x1ec>
    3e04:	8d 91       	ld	r24, X+
    3e06:	9c 91       	ld	r25, X
    3e08:	58 d8       	rcall	.-3920   	; 0x2eba <_ZL12create_chainP5FATFSm>
    3e0a:	ab 01       	movw	r20, r22
    3e0c:	bc 01       	movw	r22, r24
						if (clst == 0) {				/* When disk gets full, clip file size */
    3e0e:	41 15       	cp	r20, r1
    3e10:	51 05       	cpc	r21, r1
    3e12:	61 05       	cpc	r22, r1
    3e14:	71 05       	cpc	r23, r1
    3e16:	59 f4       	brne	.+22     	; 0x3e2e <f_lseek+0x1fc>
							ofs = bcs; break;
    3e18:	75 01       	movw	r14, r10
    3e1a:	64 01       	movw	r12, r8
    3e1c:	48 c0       	rjmp	.+144    	; 0x3eae <f_lseek+0x27c>
						}
					} else
#endif
						clst = get_fat(fp->fs, clst);	/* Follow cluster chain if not in write mode */
    3e1e:	ad 81       	ldd	r26, Y+5	; 0x05
    3e20:	be 81       	ldd	r27, Y+6	; 0x06
    3e22:	8d 91       	ld	r24, X+
    3e24:	9c 91       	ld	r25, X
    3e26:	0e 94 97 14 	call	0x292e	; 0x292e <_Z7get_fatP5FATFSm>
    3e2a:	ab 01       	movw	r20, r22
    3e2c:	bc 01       	movw	r22, r24
					if (clst == 0xFFFFFFFF) ABORT(fp->fs, FR_DISK_ERR);
    3e2e:	4f 3f       	cpi	r20, 0xFF	; 255
    3e30:	bf ef       	ldi	r27, 0xFF	; 255
    3e32:	5b 07       	cpc	r21, r27
    3e34:	6b 07       	cpc	r22, r27
    3e36:	7b 07       	cpc	r23, r27
    3e38:	39 f4       	brne	.+14     	; 0x3e48 <f_lseek+0x216>
    3e3a:	ed 81       	ldd	r30, Y+5	; 0x05
    3e3c:	fe 81       	ldd	r31, Y+6	; 0x06
    3e3e:	84 81       	ldd	r24, Z+4	; 0x04
    3e40:	80 68       	ori	r24, 0x80	; 128
    3e42:	84 83       	std	Z+4, r24	; 0x04
    3e44:	81 e0       	ldi	r24, 0x01	; 1
    3e46:	aa c0       	rjmp	.+340    	; 0x3f9c <f_lseek+0x36a>
					if (clst <= 1 || clst >= fp->fs->n_fatent) ABORT(fp->fs, FR_INT_ERR);
    3e48:	42 30       	cpi	r20, 0x02	; 2
    3e4a:	51 05       	cpc	r21, r1
    3e4c:	61 05       	cpc	r22, r1
    3e4e:	71 05       	cpc	r23, r1
    3e50:	68 f0       	brcs	.+26     	; 0x3e6c <f_lseek+0x23a>
    3e52:	ad 81       	ldd	r26, Y+5	; 0x05
    3e54:	be 81       	ldd	r27, Y+6	; 0x06
    3e56:	ed 91       	ld	r30, X+
    3e58:	fc 91       	ld	r31, X
    3e5a:	86 89       	ldd	r24, Z+22	; 0x16
    3e5c:	97 89       	ldd	r25, Z+23	; 0x17
    3e5e:	a0 8d       	ldd	r26, Z+24	; 0x18
    3e60:	b1 8d       	ldd	r27, Z+25	; 0x19
    3e62:	48 17       	cp	r20, r24
    3e64:	59 07       	cpc	r21, r25
    3e66:	6a 07       	cpc	r22, r26
    3e68:	7b 07       	cpc	r23, r27
    3e6a:	38 f0       	brcs	.+14     	; 0x3e7a <f_lseek+0x248>
    3e6c:	ed 81       	ldd	r30, Y+5	; 0x05
    3e6e:	fe 81       	ldd	r31, Y+6	; 0x06
    3e70:	84 81       	ldd	r24, Z+4	; 0x04
    3e72:	80 68       	ori	r24, 0x80	; 128
    3e74:	84 83       	std	Z+4, r24	; 0x04
    3e76:	82 e0       	ldi	r24, 0x02	; 2
    3e78:	91 c0       	rjmp	.+290    	; 0x3f9c <f_lseek+0x36a>
					fp->clust = clst;
    3e7a:	ad 81       	ldd	r26, Y+5	; 0x05
    3e7c:	be 81       	ldd	r27, Y+6	; 0x06
    3e7e:	52 96       	adiw	r26, 0x12	; 18
    3e80:	4d 93       	st	X+, r20
    3e82:	5d 93       	st	X+, r21
    3e84:	6d 93       	st	X+, r22
    3e86:	7c 93       	st	X, r23
    3e88:	55 97       	sbiw	r26, 0x15	; 21
					fp->fptr += bcs;
    3e8a:	fd 01       	movw	r30, r26
    3e8c:	86 81       	ldd	r24, Z+6	; 0x06
    3e8e:	97 81       	ldd	r25, Z+7	; 0x07
    3e90:	a0 85       	ldd	r26, Z+8	; 0x08
    3e92:	b1 85       	ldd	r27, Z+9	; 0x09
    3e94:	88 0d       	add	r24, r8
    3e96:	99 1d       	adc	r25, r9
    3e98:	aa 1d       	adc	r26, r10
    3e9a:	bb 1d       	adc	r27, r11
    3e9c:	86 83       	std	Z+6, r24	; 0x06
    3e9e:	97 83       	std	Z+7, r25	; 0x07
    3ea0:	a0 87       	std	Z+8, r26	; 0x08
    3ea2:	b1 87       	std	Z+9, r27	; 0x09
					ofs -= bcs;
    3ea4:	c8 18       	sub	r12, r8
    3ea6:	d9 08       	sbc	r13, r9
    3ea8:	ea 08       	sbc	r14, r10
    3eaa:	fb 08       	sbc	r15, r11
				}
#endif
				fp->clust = clst;
			}
			if (clst != 0) {
				while (ofs > bcs) {						/* Cluster following loop */
    3eac:	9e cf       	rjmp	.-196    	; 0x3dea <f_lseek+0x1b8>
					if (clst <= 1 || clst >= fp->fs->n_fatent) ABORT(fp->fs, FR_INT_ERR);
					fp->clust = clst;
					fp->fptr += bcs;
					ofs -= bcs;
				}
				fp->fptr += ofs;
    3eae:	ed 81       	ldd	r30, Y+5	; 0x05
    3eb0:	fe 81       	ldd	r31, Y+6	; 0x06
    3eb2:	86 81       	ldd	r24, Z+6	; 0x06
    3eb4:	97 81       	ldd	r25, Z+7	; 0x07
    3eb6:	a0 85       	ldd	r26, Z+8	; 0x08
    3eb8:	b1 85       	ldd	r27, Z+9	; 0x09
    3eba:	8c 0d       	add	r24, r12
    3ebc:	9d 1d       	adc	r25, r13
    3ebe:	ae 1d       	adc	r26, r14
    3ec0:	bf 1d       	adc	r27, r15
    3ec2:	86 83       	std	Z+6, r24	; 0x06
    3ec4:	97 83       	std	Z+7, r25	; 0x07
    3ec6:	a0 87       	std	Z+8, r26	; 0x08
    3ec8:	b1 87       	std	Z+9, r27	; 0x09
				if (ofs % SS(fp->fs)) {
    3eca:	d7 01       	movw	r26, r14
    3ecc:	c6 01       	movw	r24, r12
    3ece:	91 70       	andi	r25, 0x01	; 1
    3ed0:	aa 27       	eor	r26, r26
    3ed2:	bb 27       	eor	r27, r27
    3ed4:	89 2b       	or	r24, r25
    3ed6:	8a 2b       	or	r24, r26
    3ed8:	8b 2b       	or	r24, r27
    3eda:	49 f1       	breq	.+82     	; 0x3f2e <f_lseek+0x2fc>
					nsect = clust2sect(fp->fs, clst);	/* Current sector */
    3edc:	80 81       	ld	r24, Z
    3ede:	91 81       	ldd	r25, Z+1	; 0x01
    3ee0:	0e 94 6f 14 	call	0x28de	; 0x28de <_Z10clust2sectP5FATFSm>
					if (!nsect) ABORT(fp->fs, FR_INT_ERR);
    3ee4:	61 15       	cp	r22, r1
    3ee6:	71 05       	cpc	r23, r1
    3ee8:	81 05       	cpc	r24, r1
    3eea:	91 05       	cpc	r25, r1
    3eec:	51 f4       	brne	.+20     	; 0x3f02 <f_lseek+0x2d0>
    3eee:	ad 81       	ldd	r26, Y+5	; 0x05
    3ef0:	be 81       	ldd	r27, Y+6	; 0x06
    3ef2:	14 96       	adiw	r26, 0x04	; 4
    3ef4:	8c 91       	ld	r24, X
    3ef6:	14 97       	sbiw	r26, 0x04	; 4
    3ef8:	80 68       	ori	r24, 0x80	; 128
    3efa:	14 96       	adiw	r26, 0x04	; 4
    3efc:	8c 93       	st	X, r24
    3efe:	82 e0       	ldi	r24, 0x02	; 2
    3f00:	4d c0       	rjmp	.+154    	; 0x3f9c <f_lseek+0x36a>
					nsect += ofs / SS(fp->fs);
    3f02:	0b 2e       	mov	r0, r27
    3f04:	b9 e0       	ldi	r27, 0x09	; 9
    3f06:	f6 94       	lsr	r15
    3f08:	e7 94       	ror	r14
    3f0a:	d7 94       	ror	r13
    3f0c:	c7 94       	ror	r12
    3f0e:	ba 95       	dec	r27
    3f10:	d1 f7       	brne	.-12     	; 0x3f06 <f_lseek+0x2d4>
    3f12:	b0 2d       	mov	r27, r0
    3f14:	c6 0e       	add	r12, r22
    3f16:	d7 1e       	adc	r13, r23
    3f18:	e8 1e       	adc	r14, r24
    3f1a:	f9 1e       	adc	r15, r25
    3f1c:	0b c0       	rjmp	.+22     	; 0x3f34 <f_lseek+0x302>
			 && !(fp->flag & FA_WRITE)
#endif
			) ofs = fp->fsize;

		ifptr = fp->fptr;
		fp->fptr = nsect = 0;
    3f1e:	c1 2c       	mov	r12, r1
    3f20:	d1 2c       	mov	r13, r1
    3f22:	76 01       	movw	r14, r12
    3f24:	07 c0       	rjmp	.+14     	; 0x3f34 <f_lseek+0x302>
    3f26:	c1 2c       	mov	r12, r1
    3f28:	d1 2c       	mov	r13, r1
    3f2a:	76 01       	movw	r14, r12
    3f2c:	03 c0       	rjmp	.+6      	; 0x3f34 <f_lseek+0x302>
    3f2e:	c1 2c       	mov	r12, r1
    3f30:	d1 2c       	mov	r13, r1
    3f32:	76 01       	movw	r14, r12
					if (!nsect) ABORT(fp->fs, FR_INT_ERR);
					nsect += ofs / SS(fp->fs);
				}
			}
		}
		if (fp->fptr % SS(fp->fs) && nsect != fp->dsect) {	/* Fill sector cache if needed */
    3f34:	ed 81       	ldd	r30, Y+5	; 0x05
    3f36:	fe 81       	ldd	r31, Y+6	; 0x06
    3f38:	86 81       	ldd	r24, Z+6	; 0x06
    3f3a:	97 81       	ldd	r25, Z+7	; 0x07
    3f3c:	a0 85       	ldd	r26, Z+8	; 0x08
    3f3e:	b1 85       	ldd	r27, Z+9	; 0x09
    3f40:	ac 01       	movw	r20, r24
    3f42:	bd 01       	movw	r22, r26
    3f44:	51 70       	andi	r21, 0x01	; 1
    3f46:	66 27       	eor	r22, r22
    3f48:	77 27       	eor	r23, r23
    3f4a:	45 2b       	or	r20, r21
    3f4c:	46 2b       	or	r20, r22
    3f4e:	47 2b       	or	r20, r23
    3f50:	69 f0       	breq	.+26     	; 0x3f6c <f_lseek+0x33a>
    3f52:	46 89       	ldd	r20, Z+22	; 0x16
    3f54:	57 89       	ldd	r21, Z+23	; 0x17
    3f56:	60 8d       	ldd	r22, Z+24	; 0x18
    3f58:	71 8d       	ldd	r23, Z+25	; 0x19
    3f5a:	c4 16       	cp	r12, r20
    3f5c:	d5 06       	cpc	r13, r21
    3f5e:	e6 06       	cpc	r14, r22
    3f60:	f7 06       	cpc	r15, r23
    3f62:	21 f0       	breq	.+8      	; 0x3f6c <f_lseek+0x33a>
			}
#endif
			if (disk_read(fp->fs->drv, fp->buf, nsect, 1) != RES_OK)	/* Fill sector cache */
				ABORT(fp->fs, FR_DISK_ERR);
#endif
			fp->dsect = nsect;
    3f64:	c6 8a       	std	Z+22, r12	; 0x16
    3f66:	d7 8a       	std	Z+23, r13	; 0x17
    3f68:	e0 8e       	std	Z+24, r14	; 0x18
    3f6a:	f1 8e       	std	Z+25, r15	; 0x19
		}
#if !_FS_READONLY
		if (fp->fptr > fp->fsize) {			/* Set file change flag if the file size is extended */
    3f6c:	ed 81       	ldd	r30, Y+5	; 0x05
    3f6e:	fe 81       	ldd	r31, Y+6	; 0x06
    3f70:	42 85       	ldd	r20, Z+10	; 0x0a
    3f72:	53 85       	ldd	r21, Z+11	; 0x0b
    3f74:	64 85       	ldd	r22, Z+12	; 0x0c
    3f76:	75 85       	ldd	r23, Z+13	; 0x0d
    3f78:	48 17       	cp	r20, r24
    3f7a:	59 07       	cpc	r21, r25
    3f7c:	6a 07       	cpc	r22, r26
    3f7e:	7b 07       	cpc	r23, r27
    3f80:	60 f4       	brcc	.+24     	; 0x3f9a <f_lseek+0x368>
			fp->fsize = fp->fptr;
    3f82:	82 87       	std	Z+10, r24	; 0x0a
    3f84:	93 87       	std	Z+11, r25	; 0x0b
    3f86:	a4 87       	std	Z+12, r26	; 0x0c
    3f88:	b5 87       	std	Z+13, r27	; 0x0d
			fp->flag |= FA__WRITTEN;
    3f8a:	84 81       	ldd	r24, Z+4	; 0x04
    3f8c:	80 62       	ori	r24, 0x20	; 32
    3f8e:	84 83       	std	Z+4, r24	; 0x04
		}
#endif
	}

	LEAVE_FF(fp->fs, res);
    3f90:	81 2f       	mov	r24, r17
    3f92:	04 c0       	rjmp	.+8      	; 0x3f9c <f_lseek+0x36a>
    3f94:	03 c0       	rjmp	.+6      	; 0x3f9c <f_lseek+0x36a>


	res = validate(fp);					/* Check validity of the object */
	if (res != FR_OK) LEAVE_FF(fp->fs, res);
	if (fp->flag & FA__ERROR)			/* Check abort flag */
		LEAVE_FF(fp->fs, FR_INT_ERR);
    3f96:	82 e0       	ldi	r24, 0x02	; 2
    3f98:	01 c0       	rjmp	.+2      	; 0x3f9c <f_lseek+0x36a>
			fp->flag |= FA__WRITTEN;
		}
#endif
	}

	LEAVE_FF(fp->fs, res);
    3f9a:	81 2f       	mov	r24, r17
}
    3f9c:	26 96       	adiw	r28, 0x06	; 6
    3f9e:	0f b6       	in	r0, 0x3f	; 63
    3fa0:	f8 94       	cli
    3fa2:	de bf       	out	0x3e, r29	; 62
    3fa4:	0f be       	out	0x3f, r0	; 63
    3fa6:	cd bf       	out	0x3d, r28	; 61
    3fa8:	df 91       	pop	r29
    3faa:	cf 91       	pop	r28
    3fac:	1f 91       	pop	r17
    3fae:	ff 90       	pop	r15
    3fb0:	ef 90       	pop	r14
    3fb2:	df 90       	pop	r13
    3fb4:	cf 90       	pop	r12
    3fb6:	bf 90       	pop	r11
    3fb8:	af 90       	pop	r10
    3fba:	9f 90       	pop	r9
    3fbc:	8f 90       	pop	r8
    3fbe:	7f 90       	pop	r7
    3fc0:	6f 90       	pop	r6
    3fc2:	5f 90       	pop	r5
    3fc4:	4f 90       	pop	r4
    3fc6:	3f 90       	pop	r3
    3fc8:	2f 90       	pop	r2
    3fca:	08 95       	ret

00003fcc <_ZL6dly_usj>:
    3fcc:	23 b1       	in	r18, 0x03	; 3
    3fce:	01 97       	sbiw	r24, 0x01	; 1
    3fd0:	e9 f7       	brne	.-6      	; 0x3fcc <_ZL6dly_usj>
    3fd2:	08 95       	ret

00003fd4 <_ZL8xmit_mmcPKhj>:
    3fd4:	fc 01       	movw	r30, r24
    3fd6:	9f 01       	movw	r18, r30
    3fd8:	2f 5f       	subi	r18, 0xFF	; 255
    3fda:	3f 4f       	sbci	r19, 0xFF	; 255
    3fdc:	80 81       	ld	r24, Z
    3fde:	88 23       	and	r24, r24
    3fe0:	24 f4       	brge	.+8      	; 0x3fea <_ZL8xmit_mmcPKhj+0x16>
    3fe2:	95 b1       	in	r25, 0x05	; 5
    3fe4:	90 62       	ori	r25, 0x20	; 32
    3fe6:	95 b9       	out	0x05, r25	; 5
    3fe8:	03 c0       	rjmp	.+6      	; 0x3ff0 <_ZL8xmit_mmcPKhj+0x1c>
    3fea:	95 b1       	in	r25, 0x05	; 5
    3fec:	9f 7d       	andi	r25, 0xDF	; 223
    3fee:	95 b9       	out	0x05, r25	; 5
    3ff0:	95 b1       	in	r25, 0x05	; 5
    3ff2:	90 68       	ori	r25, 0x80	; 128
    3ff4:	95 b9       	out	0x05, r25	; 5
    3ff6:	95 b1       	in	r25, 0x05	; 5
    3ff8:	9f 77       	andi	r25, 0x7F	; 127
    3ffa:	95 b9       	out	0x05, r25	; 5
    3ffc:	86 ff       	sbrs	r24, 6
    3ffe:	04 c0       	rjmp	.+8      	; 0x4008 <__DATA_REGION_LENGTH__+0x8>
    4000:	95 b1       	in	r25, 0x05	; 5
    4002:	90 62       	ori	r25, 0x20	; 32
    4004:	95 b9       	out	0x05, r25	; 5
    4006:	03 c0       	rjmp	.+6      	; 0x400e <__DATA_REGION_LENGTH__+0xe>
    4008:	95 b1       	in	r25, 0x05	; 5
    400a:	9f 7d       	andi	r25, 0xDF	; 223
    400c:	95 b9       	out	0x05, r25	; 5
    400e:	95 b1       	in	r25, 0x05	; 5
    4010:	90 68       	ori	r25, 0x80	; 128
    4012:	95 b9       	out	0x05, r25	; 5
    4014:	95 b1       	in	r25, 0x05	; 5
    4016:	9f 77       	andi	r25, 0x7F	; 127
    4018:	95 b9       	out	0x05, r25	; 5
    401a:	85 ff       	sbrs	r24, 5
    401c:	04 c0       	rjmp	.+8      	; 0x4026 <__DATA_REGION_LENGTH__+0x26>
    401e:	95 b1       	in	r25, 0x05	; 5
    4020:	90 62       	ori	r25, 0x20	; 32
    4022:	95 b9       	out	0x05, r25	; 5
    4024:	03 c0       	rjmp	.+6      	; 0x402c <__DATA_REGION_LENGTH__+0x2c>
    4026:	95 b1       	in	r25, 0x05	; 5
    4028:	9f 7d       	andi	r25, 0xDF	; 223
    402a:	95 b9       	out	0x05, r25	; 5
    402c:	95 b1       	in	r25, 0x05	; 5
    402e:	90 68       	ori	r25, 0x80	; 128
    4030:	95 b9       	out	0x05, r25	; 5
    4032:	95 b1       	in	r25, 0x05	; 5
    4034:	9f 77       	andi	r25, 0x7F	; 127
    4036:	95 b9       	out	0x05, r25	; 5
    4038:	84 ff       	sbrs	r24, 4
    403a:	04 c0       	rjmp	.+8      	; 0x4044 <__DATA_REGION_LENGTH__+0x44>
    403c:	95 b1       	in	r25, 0x05	; 5
    403e:	90 62       	ori	r25, 0x20	; 32
    4040:	95 b9       	out	0x05, r25	; 5
    4042:	03 c0       	rjmp	.+6      	; 0x404a <__DATA_REGION_LENGTH__+0x4a>
    4044:	95 b1       	in	r25, 0x05	; 5
    4046:	9f 7d       	andi	r25, 0xDF	; 223
    4048:	95 b9       	out	0x05, r25	; 5
    404a:	95 b1       	in	r25, 0x05	; 5
    404c:	90 68       	ori	r25, 0x80	; 128
    404e:	95 b9       	out	0x05, r25	; 5
    4050:	95 b1       	in	r25, 0x05	; 5
    4052:	9f 77       	andi	r25, 0x7F	; 127
    4054:	95 b9       	out	0x05, r25	; 5
    4056:	83 ff       	sbrs	r24, 3
    4058:	04 c0       	rjmp	.+8      	; 0x4062 <__DATA_REGION_LENGTH__+0x62>
    405a:	95 b1       	in	r25, 0x05	; 5
    405c:	90 62       	ori	r25, 0x20	; 32
    405e:	95 b9       	out	0x05, r25	; 5
    4060:	03 c0       	rjmp	.+6      	; 0x4068 <__DATA_REGION_LENGTH__+0x68>
    4062:	95 b1       	in	r25, 0x05	; 5
    4064:	9f 7d       	andi	r25, 0xDF	; 223
    4066:	95 b9       	out	0x05, r25	; 5
    4068:	95 b1       	in	r25, 0x05	; 5
    406a:	90 68       	ori	r25, 0x80	; 128
    406c:	95 b9       	out	0x05, r25	; 5
    406e:	95 b1       	in	r25, 0x05	; 5
    4070:	9f 77       	andi	r25, 0x7F	; 127
    4072:	95 b9       	out	0x05, r25	; 5
    4074:	82 ff       	sbrs	r24, 2
    4076:	04 c0       	rjmp	.+8      	; 0x4080 <__DATA_REGION_LENGTH__+0x80>
    4078:	95 b1       	in	r25, 0x05	; 5
    407a:	90 62       	ori	r25, 0x20	; 32
    407c:	95 b9       	out	0x05, r25	; 5
    407e:	03 c0       	rjmp	.+6      	; 0x4086 <__DATA_REGION_LENGTH__+0x86>
    4080:	95 b1       	in	r25, 0x05	; 5
    4082:	9f 7d       	andi	r25, 0xDF	; 223
    4084:	95 b9       	out	0x05, r25	; 5
    4086:	95 b1       	in	r25, 0x05	; 5
    4088:	90 68       	ori	r25, 0x80	; 128
    408a:	95 b9       	out	0x05, r25	; 5
    408c:	95 b1       	in	r25, 0x05	; 5
    408e:	9f 77       	andi	r25, 0x7F	; 127
    4090:	95 b9       	out	0x05, r25	; 5
    4092:	81 ff       	sbrs	r24, 1
    4094:	04 c0       	rjmp	.+8      	; 0x409e <__DATA_REGION_LENGTH__+0x9e>
    4096:	95 b1       	in	r25, 0x05	; 5
    4098:	90 62       	ori	r25, 0x20	; 32
    409a:	95 b9       	out	0x05, r25	; 5
    409c:	03 c0       	rjmp	.+6      	; 0x40a4 <__DATA_REGION_LENGTH__+0xa4>
    409e:	95 b1       	in	r25, 0x05	; 5
    40a0:	9f 7d       	andi	r25, 0xDF	; 223
    40a2:	95 b9       	out	0x05, r25	; 5
    40a4:	95 b1       	in	r25, 0x05	; 5
    40a6:	90 68       	ori	r25, 0x80	; 128
    40a8:	95 b9       	out	0x05, r25	; 5
    40aa:	95 b1       	in	r25, 0x05	; 5
    40ac:	9f 77       	andi	r25, 0x7F	; 127
    40ae:	95 b9       	out	0x05, r25	; 5
    40b0:	80 ff       	sbrs	r24, 0
    40b2:	04 c0       	rjmp	.+8      	; 0x40bc <__DATA_REGION_LENGTH__+0xbc>
    40b4:	85 b1       	in	r24, 0x05	; 5
    40b6:	80 62       	ori	r24, 0x20	; 32
    40b8:	85 b9       	out	0x05, r24	; 5
    40ba:	03 c0       	rjmp	.+6      	; 0x40c2 <__DATA_REGION_LENGTH__+0xc2>
    40bc:	85 b1       	in	r24, 0x05	; 5
    40be:	8f 7d       	andi	r24, 0xDF	; 223
    40c0:	85 b9       	out	0x05, r24	; 5
    40c2:	85 b1       	in	r24, 0x05	; 5
    40c4:	80 68       	ori	r24, 0x80	; 128
    40c6:	85 b9       	out	0x05, r24	; 5
    40c8:	85 b1       	in	r24, 0x05	; 5
    40ca:	8f 77       	andi	r24, 0x7F	; 127
    40cc:	85 b9       	out	0x05, r24	; 5
    40ce:	61 50       	subi	r22, 0x01	; 1
    40d0:	71 09       	sbc	r23, r1
    40d2:	f9 01       	movw	r30, r18
    40d4:	09 f0       	breq	.+2      	; 0x40d8 <__DATA_REGION_LENGTH__+0xd8>
    40d6:	7f cf       	rjmp	.-258    	; 0x3fd6 <_ZL8xmit_mmcPKhj+0x2>
    40d8:	08 95       	ret

000040da <_ZL8rcvr_mmcPhj>:
    40da:	fc 01       	movw	r30, r24
    40dc:	85 b1       	in	r24, 0x05	; 5
    40de:	80 62       	ori	r24, 0x20	; 32
    40e0:	85 b9       	out	0x05, r24	; 5
    40e2:	01 c0       	rjmp	.+2      	; 0x40e6 <_ZL8rcvr_mmcPhj+0xc>
    40e4:	f9 01       	movw	r30, r18
    40e6:	1e 99       	sbic	0x03, 6	; 3
    40e8:	02 c0       	rjmp	.+4      	; 0x40ee <_ZL8rcvr_mmcPhj+0x14>
    40ea:	90 e0       	ldi	r25, 0x00	; 0
    40ec:	01 c0       	rjmp	.+2      	; 0x40f0 <_ZL8rcvr_mmcPhj+0x16>
    40ee:	91 e0       	ldi	r25, 0x01	; 1
    40f0:	85 b1       	in	r24, 0x05	; 5
    40f2:	80 68       	ori	r24, 0x80	; 128
    40f4:	85 b9       	out	0x05, r24	; 5
    40f6:	85 b1       	in	r24, 0x05	; 5
    40f8:	8f 77       	andi	r24, 0x7F	; 127
    40fa:	85 b9       	out	0x05, r24	; 5
    40fc:	99 0f       	add	r25, r25
    40fe:	1e 99       	sbic	0x03, 6	; 3
    4100:	9f 5f       	subi	r25, 0xFF	; 255
    4102:	85 b1       	in	r24, 0x05	; 5
    4104:	80 68       	ori	r24, 0x80	; 128
    4106:	85 b9       	out	0x05, r24	; 5
    4108:	85 b1       	in	r24, 0x05	; 5
    410a:	8f 77       	andi	r24, 0x7F	; 127
    410c:	85 b9       	out	0x05, r24	; 5
    410e:	99 0f       	add	r25, r25
    4110:	1e 99       	sbic	0x03, 6	; 3
    4112:	9f 5f       	subi	r25, 0xFF	; 255
    4114:	85 b1       	in	r24, 0x05	; 5
    4116:	80 68       	ori	r24, 0x80	; 128
    4118:	85 b9       	out	0x05, r24	; 5
    411a:	85 b1       	in	r24, 0x05	; 5
    411c:	8f 77       	andi	r24, 0x7F	; 127
    411e:	85 b9       	out	0x05, r24	; 5
    4120:	99 0f       	add	r25, r25
    4122:	1e 99       	sbic	0x03, 6	; 3
    4124:	9f 5f       	subi	r25, 0xFF	; 255
    4126:	85 b1       	in	r24, 0x05	; 5
    4128:	80 68       	ori	r24, 0x80	; 128
    412a:	85 b9       	out	0x05, r24	; 5
    412c:	85 b1       	in	r24, 0x05	; 5
    412e:	8f 77       	andi	r24, 0x7F	; 127
    4130:	85 b9       	out	0x05, r24	; 5
    4132:	99 0f       	add	r25, r25
    4134:	1e 99       	sbic	0x03, 6	; 3
    4136:	9f 5f       	subi	r25, 0xFF	; 255
    4138:	85 b1       	in	r24, 0x05	; 5
    413a:	80 68       	ori	r24, 0x80	; 128
    413c:	85 b9       	out	0x05, r24	; 5
    413e:	85 b1       	in	r24, 0x05	; 5
    4140:	8f 77       	andi	r24, 0x7F	; 127
    4142:	85 b9       	out	0x05, r24	; 5
    4144:	99 0f       	add	r25, r25
    4146:	1e 99       	sbic	0x03, 6	; 3
    4148:	9f 5f       	subi	r25, 0xFF	; 255
    414a:	85 b1       	in	r24, 0x05	; 5
    414c:	80 68       	ori	r24, 0x80	; 128
    414e:	85 b9       	out	0x05, r24	; 5
    4150:	85 b1       	in	r24, 0x05	; 5
    4152:	8f 77       	andi	r24, 0x7F	; 127
    4154:	85 b9       	out	0x05, r24	; 5
    4156:	99 0f       	add	r25, r25
    4158:	1e 99       	sbic	0x03, 6	; 3
    415a:	9f 5f       	subi	r25, 0xFF	; 255
    415c:	85 b1       	in	r24, 0x05	; 5
    415e:	80 68       	ori	r24, 0x80	; 128
    4160:	85 b9       	out	0x05, r24	; 5
    4162:	85 b1       	in	r24, 0x05	; 5
    4164:	8f 77       	andi	r24, 0x7F	; 127
    4166:	85 b9       	out	0x05, r24	; 5
    4168:	99 0f       	add	r25, r25
    416a:	1e 99       	sbic	0x03, 6	; 3
    416c:	9f 5f       	subi	r25, 0xFF	; 255
    416e:	25 b1       	in	r18, 0x05	; 5
    4170:	20 68       	ori	r18, 0x80	; 128
    4172:	25 b9       	out	0x05, r18	; 5
    4174:	25 b1       	in	r18, 0x05	; 5
    4176:	2f 77       	andi	r18, 0x7F	; 127
    4178:	25 b9       	out	0x05, r18	; 5
    417a:	9f 01       	movw	r18, r30
    417c:	2f 5f       	subi	r18, 0xFF	; 255
    417e:	3f 4f       	sbci	r19, 0xFF	; 255
    4180:	90 83       	st	Z, r25
    4182:	61 50       	subi	r22, 0x01	; 1
    4184:	71 09       	sbc	r23, r1
    4186:	09 f0       	breq	.+2      	; 0x418a <__stack+0x8b>
    4188:	ad cf       	rjmp	.-166    	; 0x40e4 <_ZL8rcvr_mmcPhj+0xa>
    418a:	08 95       	ret

0000418c <_ZL10wait_readyv>:
    418c:	0f 93       	push	r16
    418e:	1f 93       	push	r17
    4190:	cf 93       	push	r28
    4192:	df 93       	push	r29
    4194:	1f 92       	push	r1
    4196:	cd b7       	in	r28, 0x3d	; 61
    4198:	de b7       	in	r29, 0x3e	; 62
    419a:	08 e8       	ldi	r16, 0x88	; 136
    419c:	13 e1       	ldi	r17, 0x13	; 19
    419e:	01 15       	cp	r16, r1
    41a0:	11 05       	cpc	r17, r1
    41a2:	71 f0       	breq	.+28     	; 0x41c0 <_ZL10wait_readyv+0x34>
    41a4:	61 e0       	ldi	r22, 0x01	; 1
    41a6:	70 e0       	ldi	r23, 0x00	; 0
    41a8:	ce 01       	movw	r24, r28
    41aa:	01 96       	adiw	r24, 0x01	; 1
    41ac:	96 df       	rcall	.-212    	; 0x40da <_ZL8rcvr_mmcPhj>
    41ae:	89 81       	ldd	r24, Y+1	; 0x01
    41b0:	8f 3f       	cpi	r24, 0xFF	; 255
    41b2:	31 f0       	breq	.+12     	; 0x41c0 <_ZL10wait_readyv+0x34>
    41b4:	84 e6       	ldi	r24, 0x64	; 100
    41b6:	90 e0       	ldi	r25, 0x00	; 0
    41b8:	09 df       	rcall	.-494    	; 0x3fcc <_ZL6dly_usj>
    41ba:	01 50       	subi	r16, 0x01	; 1
    41bc:	11 09       	sbc	r17, r1
    41be:	ef cf       	rjmp	.-34     	; 0x419e <_ZL10wait_readyv+0x12>
    41c0:	01 2b       	or	r16, r17
    41c2:	19 f0       	breq	.+6      	; 0x41ca <_ZL10wait_readyv+0x3e>
    41c4:	81 e0       	ldi	r24, 0x01	; 1
    41c6:	90 e0       	ldi	r25, 0x00	; 0
    41c8:	02 c0       	rjmp	.+4      	; 0x41ce <_ZL10wait_readyv+0x42>
    41ca:	80 e0       	ldi	r24, 0x00	; 0
    41cc:	90 e0       	ldi	r25, 0x00	; 0
    41ce:	0f 90       	pop	r0
    41d0:	df 91       	pop	r29
    41d2:	cf 91       	pop	r28
    41d4:	1f 91       	pop	r17
    41d6:	0f 91       	pop	r16
    41d8:	08 95       	ret

000041da <_ZL8deselectv>:
    41da:	cf 93       	push	r28
    41dc:	df 93       	push	r29
    41de:	1f 92       	push	r1
    41e0:	cd b7       	in	r28, 0x3d	; 61
    41e2:	de b7       	in	r29, 0x3e	; 62
    41e4:	85 b1       	in	r24, 0x05	; 5
    41e6:	82 60       	ori	r24, 0x02	; 2
    41e8:	85 b9       	out	0x05, r24	; 5
    41ea:	61 e0       	ldi	r22, 0x01	; 1
    41ec:	70 e0       	ldi	r23, 0x00	; 0
    41ee:	ce 01       	movw	r24, r28
    41f0:	01 96       	adiw	r24, 0x01	; 1
    41f2:	73 df       	rcall	.-282    	; 0x40da <_ZL8rcvr_mmcPhj>
    41f4:	0f 90       	pop	r0
    41f6:	df 91       	pop	r29
    41f8:	cf 91       	pop	r28
    41fa:	08 95       	ret

000041fc <_ZL6selectv>:
    41fc:	0f 93       	push	r16
    41fe:	1f 93       	push	r17
    4200:	cf 93       	push	r28
    4202:	df 93       	push	r29
    4204:	1f 92       	push	r1
    4206:	cd b7       	in	r28, 0x3d	; 61
    4208:	de b7       	in	r29, 0x3e	; 62
    420a:	85 b1       	in	r24, 0x05	; 5
    420c:	8d 7f       	andi	r24, 0xFD	; 253
    420e:	85 b9       	out	0x05, r24	; 5
    4210:	61 e0       	ldi	r22, 0x01	; 1
    4212:	70 e0       	ldi	r23, 0x00	; 0
    4214:	ce 01       	movw	r24, r28
    4216:	01 96       	adiw	r24, 0x01	; 1
    4218:	60 df       	rcall	.-320    	; 0x40da <_ZL8rcvr_mmcPhj>
    421a:	b8 df       	rcall	.-144    	; 0x418c <_ZL10wait_readyv>
    421c:	8c 01       	movw	r16, r24
    421e:	89 2b       	or	r24, r25
    4220:	11 f4       	brne	.+4      	; 0x4226 <_ZL6selectv+0x2a>
    4222:	db df       	rcall	.-74     	; 0x41da <_ZL8deselectv>
    4224:	02 c0       	rjmp	.+4      	; 0x422a <_ZL6selectv+0x2e>
    4226:	01 e0       	ldi	r16, 0x01	; 1
    4228:	10 e0       	ldi	r17, 0x00	; 0
    422a:	c8 01       	movw	r24, r16
    422c:	0f 90       	pop	r0
    422e:	df 91       	pop	r29
    4230:	cf 91       	pop	r28
    4232:	1f 91       	pop	r17
    4234:	0f 91       	pop	r16
    4236:	08 95       	ret

00004238 <_ZL14rcvr_datablockPhj>:
    4238:	cf 92       	push	r12
    423a:	df 92       	push	r13
    423c:	ef 92       	push	r14
    423e:	ff 92       	push	r15
    4240:	0f 93       	push	r16
    4242:	1f 93       	push	r17
    4244:	cf 93       	push	r28
    4246:	df 93       	push	r29
    4248:	00 d0       	rcall	.+0      	; 0x424a <_ZL14rcvr_datablockPhj+0x12>
    424a:	cd b7       	in	r28, 0x3d	; 61
    424c:	de b7       	in	r29, 0x3e	; 62
    424e:	7c 01       	movw	r14, r24
    4250:	6b 01       	movw	r12, r22
    4252:	08 ee       	ldi	r16, 0xE8	; 232
    4254:	13 e0       	ldi	r17, 0x03	; 3
    4256:	01 15       	cp	r16, r1
    4258:	11 05       	cpc	r17, r1
    425a:	71 f0       	breq	.+28     	; 0x4278 <_ZL14rcvr_datablockPhj+0x40>
    425c:	61 e0       	ldi	r22, 0x01	; 1
    425e:	70 e0       	ldi	r23, 0x00	; 0
    4260:	ce 01       	movw	r24, r28
    4262:	01 96       	adiw	r24, 0x01	; 1
    4264:	3a df       	rcall	.-396    	; 0x40da <_ZL8rcvr_mmcPhj>
    4266:	89 81       	ldd	r24, Y+1	; 0x01
    4268:	8f 3f       	cpi	r24, 0xFF	; 255
    426a:	31 f4       	brne	.+12     	; 0x4278 <_ZL14rcvr_datablockPhj+0x40>
    426c:	84 e6       	ldi	r24, 0x64	; 100
    426e:	90 e0       	ldi	r25, 0x00	; 0
    4270:	ad de       	rcall	.-678    	; 0x3fcc <_ZL6dly_usj>
    4272:	01 50       	subi	r16, 0x01	; 1
    4274:	11 09       	sbc	r17, r1
    4276:	ef cf       	rjmp	.-34     	; 0x4256 <_ZL14rcvr_datablockPhj+0x1e>
    4278:	89 81       	ldd	r24, Y+1	; 0x01
    427a:	8e 3f       	cpi	r24, 0xFE	; 254
    427c:	59 f4       	brne	.+22     	; 0x4294 <_ZL14rcvr_datablockPhj+0x5c>
    427e:	b6 01       	movw	r22, r12
    4280:	c7 01       	movw	r24, r14
    4282:	2b df       	rcall	.-426    	; 0x40da <_ZL8rcvr_mmcPhj>
    4284:	62 e0       	ldi	r22, 0x02	; 2
    4286:	70 e0       	ldi	r23, 0x00	; 0
    4288:	ce 01       	movw	r24, r28
    428a:	01 96       	adiw	r24, 0x01	; 1
    428c:	26 df       	rcall	.-436    	; 0x40da <_ZL8rcvr_mmcPhj>
    428e:	81 e0       	ldi	r24, 0x01	; 1
    4290:	90 e0       	ldi	r25, 0x00	; 0
    4292:	02 c0       	rjmp	.+4      	; 0x4298 <_ZL14rcvr_datablockPhj+0x60>
    4294:	80 e0       	ldi	r24, 0x00	; 0
    4296:	90 e0       	ldi	r25, 0x00	; 0
    4298:	0f 90       	pop	r0
    429a:	0f 90       	pop	r0
    429c:	df 91       	pop	r29
    429e:	cf 91       	pop	r28
    42a0:	1f 91       	pop	r17
    42a2:	0f 91       	pop	r16
    42a4:	ff 90       	pop	r15
    42a6:	ef 90       	pop	r14
    42a8:	df 90       	pop	r13
    42aa:	cf 90       	pop	r12
    42ac:	08 95       	ret

000042ae <_ZL14xmit_datablockPKhh>:
    42ae:	ef 92       	push	r14
    42b0:	ff 92       	push	r15
    42b2:	1f 93       	push	r17
    42b4:	cf 93       	push	r28
    42b6:	df 93       	push	r29
    42b8:	00 d0       	rcall	.+0      	; 0x42ba <_ZL14xmit_datablockPKhh+0xc>
    42ba:	cd b7       	in	r28, 0x3d	; 61
    42bc:	de b7       	in	r29, 0x3e	; 62
    42be:	7c 01       	movw	r14, r24
    42c0:	16 2f       	mov	r17, r22
    42c2:	64 df       	rcall	.-312    	; 0x418c <_ZL10wait_readyv>
    42c4:	00 97       	sbiw	r24, 0x00	; 0
    42c6:	11 f1       	breq	.+68     	; 0x430c <_ZL14xmit_datablockPKhh+0x5e>
    42c8:	19 83       	std	Y+1, r17	; 0x01
    42ca:	61 e0       	ldi	r22, 0x01	; 1
    42cc:	70 e0       	ldi	r23, 0x00	; 0
    42ce:	ce 01       	movw	r24, r28
    42d0:	01 96       	adiw	r24, 0x01	; 1
    42d2:	80 de       	rcall	.-768    	; 0x3fd4 <_ZL8xmit_mmcPKhj>
    42d4:	1d 3f       	cpi	r17, 0xFD	; 253
    42d6:	a9 f0       	breq	.+42     	; 0x4302 <_ZL14xmit_datablockPKhh+0x54>
    42d8:	60 e0       	ldi	r22, 0x00	; 0
    42da:	72 e0       	ldi	r23, 0x02	; 2
    42dc:	c7 01       	movw	r24, r14
    42de:	7a de       	rcall	.-780    	; 0x3fd4 <_ZL8xmit_mmcPKhj>
    42e0:	62 e0       	ldi	r22, 0x02	; 2
    42e2:	70 e0       	ldi	r23, 0x00	; 0
    42e4:	ce 01       	movw	r24, r28
    42e6:	01 96       	adiw	r24, 0x01	; 1
    42e8:	f8 de       	rcall	.-528    	; 0x40da <_ZL8rcvr_mmcPhj>
    42ea:	61 e0       	ldi	r22, 0x01	; 1
    42ec:	70 e0       	ldi	r23, 0x00	; 0
    42ee:	ce 01       	movw	r24, r28
    42f0:	01 96       	adiw	r24, 0x01	; 1
    42f2:	f3 de       	rcall	.-538    	; 0x40da <_ZL8rcvr_mmcPhj>
    42f4:	89 81       	ldd	r24, Y+1	; 0x01
    42f6:	8f 71       	andi	r24, 0x1F	; 31
    42f8:	85 30       	cpi	r24, 0x05	; 5
    42fa:	31 f0       	breq	.+12     	; 0x4308 <_ZL14xmit_datablockPKhh+0x5a>
    42fc:	80 e0       	ldi	r24, 0x00	; 0
    42fe:	90 e0       	ldi	r25, 0x00	; 0
    4300:	05 c0       	rjmp	.+10     	; 0x430c <_ZL14xmit_datablockPKhh+0x5e>
    4302:	81 e0       	ldi	r24, 0x01	; 1
    4304:	90 e0       	ldi	r25, 0x00	; 0
    4306:	02 c0       	rjmp	.+4      	; 0x430c <_ZL14xmit_datablockPKhh+0x5e>
    4308:	81 e0       	ldi	r24, 0x01	; 1
    430a:	90 e0       	ldi	r25, 0x00	; 0
    430c:	0f 90       	pop	r0
    430e:	0f 90       	pop	r0
    4310:	df 91       	pop	r29
    4312:	cf 91       	pop	r28
    4314:	1f 91       	pop	r17
    4316:	ff 90       	pop	r15
    4318:	ef 90       	pop	r14
    431a:	08 95       	ret

0000431c <_ZL8send_cmdhm>:
    431c:	df 92       	push	r13
    431e:	ef 92       	push	r14
    4320:	ff 92       	push	r15
    4322:	0f 93       	push	r16
    4324:	1f 93       	push	r17
    4326:	cf 93       	push	r28
    4328:	df 93       	push	r29
    432a:	cd b7       	in	r28, 0x3d	; 61
    432c:	de b7       	in	r29, 0x3e	; 62
    432e:	27 97       	sbiw	r28, 0x07	; 7
    4330:	0f b6       	in	r0, 0x3f	; 63
    4332:	f8 94       	cli
    4334:	de bf       	out	0x3e, r29	; 62
    4336:	0f be       	out	0x3f, r0	; 63
    4338:	cd bf       	out	0x3d, r28	; 61
    433a:	18 2f       	mov	r17, r24
    433c:	04 2f       	mov	r16, r20
    433e:	f5 2e       	mov	r15, r21
    4340:	e6 2e       	mov	r14, r22
    4342:	d7 2e       	mov	r13, r23
    4344:	88 23       	and	r24, r24
    4346:	44 f4       	brge	.+16     	; 0x4358 <_ZL8send_cmdhm+0x3c>
    4348:	1f 77       	andi	r17, 0x7F	; 127
    434a:	40 e0       	ldi	r20, 0x00	; 0
    434c:	50 e0       	ldi	r21, 0x00	; 0
    434e:	ba 01       	movw	r22, r20
    4350:	87 e3       	ldi	r24, 0x37	; 55
    4352:	e4 df       	rcall	.-56     	; 0x431c <_ZL8send_cmdhm>
    4354:	82 30       	cpi	r24, 0x02	; 2
    4356:	a0 f5       	brcc	.+104    	; 0x43c0 <_ZL8send_cmdhm+0xa4>
    4358:	40 df       	rcall	.-384    	; 0x41da <_ZL8deselectv>
    435a:	50 df       	rcall	.-352    	; 0x41fc <_ZL6selectv>
    435c:	89 2b       	or	r24, r25
    435e:	79 f1       	breq	.+94     	; 0x43be <_ZL8send_cmdhm+0xa2>
    4360:	81 2f       	mov	r24, r17
    4362:	80 64       	ori	r24, 0x40	; 64
    4364:	8a 83       	std	Y+2, r24	; 0x02
    4366:	db 82       	std	Y+3, r13	; 0x03
    4368:	ec 82       	std	Y+4, r14	; 0x04
    436a:	fd 82       	std	Y+5, r15	; 0x05
    436c:	0e 83       	std	Y+6, r16	; 0x06
    436e:	11 23       	and	r17, r17
    4370:	11 f0       	breq	.+4      	; 0x4376 <_ZL8send_cmdhm+0x5a>
    4372:	81 e0       	ldi	r24, 0x01	; 1
    4374:	01 c0       	rjmp	.+2      	; 0x4378 <_ZL8send_cmdhm+0x5c>
    4376:	85 e9       	ldi	r24, 0x95	; 149
    4378:	18 30       	cpi	r17, 0x08	; 8
    437a:	09 f4       	brne	.+2      	; 0x437e <_ZL8send_cmdhm+0x62>
    437c:	87 e8       	ldi	r24, 0x87	; 135
    437e:	8f 83       	std	Y+7, r24	; 0x07
    4380:	66 e0       	ldi	r22, 0x06	; 6
    4382:	70 e0       	ldi	r23, 0x00	; 0
    4384:	ce 01       	movw	r24, r28
    4386:	02 96       	adiw	r24, 0x02	; 2
    4388:	25 de       	rcall	.-950    	; 0x3fd4 <_ZL8xmit_mmcPKhj>
    438a:	1c 30       	cpi	r17, 0x0C	; 12
    438c:	29 f4       	brne	.+10     	; 0x4398 <_ZL8send_cmdhm+0x7c>
    438e:	61 e0       	ldi	r22, 0x01	; 1
    4390:	70 e0       	ldi	r23, 0x00	; 0
    4392:	ce 01       	movw	r24, r28
    4394:	01 96       	adiw	r24, 0x01	; 1
    4396:	a1 de       	rcall	.-702    	; 0x40da <_ZL8rcvr_mmcPhj>
    4398:	1a e0       	ldi	r17, 0x0A	; 10
    439a:	61 e0       	ldi	r22, 0x01	; 1
    439c:	70 e0       	ldi	r23, 0x00	; 0
    439e:	ce 01       	movw	r24, r28
    43a0:	01 96       	adiw	r24, 0x01	; 1
    43a2:	9b de       	rcall	.-714    	; 0x40da <_ZL8rcvr_mmcPhj>
    43a4:	89 81       	ldd	r24, Y+1	; 0x01
    43a6:	88 23       	and	r24, r24
    43a8:	24 f4       	brge	.+8      	; 0x43b2 <_ZL8send_cmdhm+0x96>
    43aa:	11 50       	subi	r17, 0x01	; 1
    43ac:	21 f0       	breq	.+8      	; 0x43b6 <_ZL8send_cmdhm+0x9a>
    43ae:	91 e0       	ldi	r25, 0x01	; 1
    43b0:	03 c0       	rjmp	.+6      	; 0x43b8 <_ZL8send_cmdhm+0x9c>
    43b2:	90 e0       	ldi	r25, 0x00	; 0
    43b4:	01 c0       	rjmp	.+2      	; 0x43b8 <_ZL8send_cmdhm+0x9c>
    43b6:	90 e0       	ldi	r25, 0x00	; 0
    43b8:	91 11       	cpse	r25, r1
    43ba:	ef cf       	rjmp	.-34     	; 0x439a <_ZL8send_cmdhm+0x7e>
    43bc:	01 c0       	rjmp	.+2      	; 0x43c0 <_ZL8send_cmdhm+0xa4>
    43be:	8f ef       	ldi	r24, 0xFF	; 255
    43c0:	27 96       	adiw	r28, 0x07	; 7
    43c2:	0f b6       	in	r0, 0x3f	; 63
    43c4:	f8 94       	cli
    43c6:	de bf       	out	0x3e, r29	; 62
    43c8:	0f be       	out	0x3f, r0	; 63
    43ca:	cd bf       	out	0x3d, r28	; 61
    43cc:	df 91       	pop	r29
    43ce:	cf 91       	pop	r28
    43d0:	1f 91       	pop	r17
    43d2:	0f 91       	pop	r16
    43d4:	ff 90       	pop	r15
    43d6:	ef 90       	pop	r14
    43d8:	df 90       	pop	r13
    43da:	08 95       	ret

000043dc <disk_status>:
    43dc:	81 11       	cpse	r24, r1
    43de:	03 c0       	rjmp	.+6      	; 0x43e6 <disk_status+0xa>
    43e0:	80 91 06 01 	lds	r24, 0x0106	; 0x800106 <_ZL4Stat>
    43e4:	08 95       	ret
    43e6:	81 e0       	ldi	r24, 0x01	; 1
    43e8:	08 95       	ret

000043ea <disk_initialize>:
    43ea:	ef 92       	push	r14
    43ec:	ff 92       	push	r15
    43ee:	0f 93       	push	r16
    43f0:	1f 93       	push	r17
    43f2:	cf 93       	push	r28
    43f4:	df 93       	push	r29
    43f6:	00 d0       	rcall	.+0      	; 0x43f8 <disk_initialize+0xe>
    43f8:	00 d0       	rcall	.+0      	; 0x43fa <disk_initialize+0x10>
    43fa:	cd b7       	in	r28, 0x3d	; 61
    43fc:	de b7       	in	r29, 0x3e	; 62
    43fe:	81 11       	cpse	r24, r1
    4400:	b8 c0       	rjmp	.+368    	; 0x4572 <disk_initialize+0x188>
    4402:	80 e1       	ldi	r24, 0x10	; 16
    4404:	97 e2       	ldi	r25, 0x27	; 39
    4406:	e2 dd       	rcall	.-1084   	; 0x3fcc <_ZL6dly_usj>
    4408:	84 b1       	in	r24, 0x04	; 4
    440a:	82 60       	ori	r24, 0x02	; 2
    440c:	84 b9       	out	0x04, r24	; 4
    440e:	85 b1       	in	r24, 0x05	; 5
    4410:	82 60       	ori	r24, 0x02	; 2
    4412:	85 b9       	out	0x05, r24	; 5
    4414:	84 b1       	in	r24, 0x04	; 4
    4416:	80 68       	ori	r24, 0x80	; 128
    4418:	84 b9       	out	0x04, r24	; 4
    441a:	85 b1       	in	r24, 0x05	; 5
    441c:	8f 77       	andi	r24, 0x7F	; 127
    441e:	85 b9       	out	0x05, r24	; 5
    4420:	84 b1       	in	r24, 0x04	; 4
    4422:	80 62       	ori	r24, 0x20	; 32
    4424:	84 b9       	out	0x04, r24	; 4
    4426:	1a e0       	ldi	r17, 0x0A	; 10
    4428:	11 23       	and	r17, r17
    442a:	39 f0       	breq	.+14     	; 0x443a <disk_initialize+0x50>
    442c:	61 e0       	ldi	r22, 0x01	; 1
    442e:	70 e0       	ldi	r23, 0x00	; 0
    4430:	ce 01       	movw	r24, r28
    4432:	01 96       	adiw	r24, 0x01	; 1
    4434:	52 de       	rcall	.-860    	; 0x40da <_ZL8rcvr_mmcPhj>
    4436:	11 50       	subi	r17, 0x01	; 1
    4438:	f7 cf       	rjmp	.-18     	; 0x4428 <disk_initialize+0x3e>
    443a:	40 e0       	ldi	r20, 0x00	; 0
    443c:	50 e0       	ldi	r21, 0x00	; 0
    443e:	ba 01       	movw	r22, r20
    4440:	80 e0       	ldi	r24, 0x00	; 0
    4442:	6c df       	rcall	.-296    	; 0x431c <_ZL8send_cmdhm>
    4444:	81 30       	cpi	r24, 0x01	; 1
    4446:	09 f0       	breq	.+2      	; 0x444a <disk_initialize+0x60>
    4448:	7d c0       	rjmp	.+250    	; 0x4544 <disk_initialize+0x15a>
    444a:	4a ea       	ldi	r20, 0xAA	; 170
    444c:	51 e0       	ldi	r21, 0x01	; 1
    444e:	60 e0       	ldi	r22, 0x00	; 0
    4450:	70 e0       	ldi	r23, 0x00	; 0
    4452:	88 e0       	ldi	r24, 0x08	; 8
    4454:	63 df       	rcall	.-314    	; 0x431c <_ZL8send_cmdhm>
    4456:	81 30       	cpi	r24, 0x01	; 1
    4458:	09 f0       	breq	.+2      	; 0x445c <disk_initialize+0x72>
    445a:	3e c0       	rjmp	.+124    	; 0x44d8 <disk_initialize+0xee>
    445c:	64 e0       	ldi	r22, 0x04	; 4
    445e:	70 e0       	ldi	r23, 0x00	; 0
    4460:	ce 01       	movw	r24, r28
    4462:	01 96       	adiw	r24, 0x01	; 1
    4464:	3a de       	rcall	.-908    	; 0x40da <_ZL8rcvr_mmcPhj>
    4466:	8b 81       	ldd	r24, Y+3	; 0x03
    4468:	81 30       	cpi	r24, 0x01	; 1
    446a:	09 f0       	breq	.+2      	; 0x446e <disk_initialize+0x84>
    446c:	6d c0       	rjmp	.+218    	; 0x4548 <disk_initialize+0x15e>
    446e:	8c 81       	ldd	r24, Y+4	; 0x04
    4470:	8a 3a       	cpi	r24, 0xAA	; 170
    4472:	09 f0       	breq	.+2      	; 0x4476 <disk_initialize+0x8c>
    4474:	6b c0       	rjmp	.+214    	; 0x454c <disk_initialize+0x162>
    4476:	08 ee       	ldi	r16, 0xE8	; 232
    4478:	13 e0       	ldi	r17, 0x03	; 3
    447a:	01 15       	cp	r16, r1
    447c:	11 05       	cpc	r17, r1
    447e:	71 f0       	breq	.+28     	; 0x449c <disk_initialize+0xb2>
    4480:	40 e0       	ldi	r20, 0x00	; 0
    4482:	50 e0       	ldi	r21, 0x00	; 0
    4484:	60 e0       	ldi	r22, 0x00	; 0
    4486:	70 e4       	ldi	r23, 0x40	; 64
    4488:	89 ea       	ldi	r24, 0xA9	; 169
    448a:	48 df       	rcall	.-368    	; 0x431c <_ZL8send_cmdhm>
    448c:	88 23       	and	r24, r24
    448e:	31 f0       	breq	.+12     	; 0x449c <disk_initialize+0xb2>
    4490:	88 ee       	ldi	r24, 0xE8	; 232
    4492:	93 e0       	ldi	r25, 0x03	; 3
    4494:	9b dd       	rcall	.-1226   	; 0x3fcc <_ZL6dly_usj>
    4496:	01 50       	subi	r16, 0x01	; 1
    4498:	11 09       	sbc	r17, r1
    449a:	ef cf       	rjmp	.-34     	; 0x447a <disk_initialize+0x90>
    449c:	01 2b       	or	r16, r17
    449e:	49 f0       	breq	.+18     	; 0x44b2 <disk_initialize+0xc8>
    44a0:	40 e0       	ldi	r20, 0x00	; 0
    44a2:	50 e0       	ldi	r21, 0x00	; 0
    44a4:	ba 01       	movw	r22, r20
    44a6:	8a e3       	ldi	r24, 0x3A	; 58
    44a8:	39 df       	rcall	.-398    	; 0x431c <_ZL8send_cmdhm>
    44aa:	81 11       	cpse	r24, r1
    44ac:	04 c0       	rjmp	.+8      	; 0x44b6 <disk_initialize+0xcc>
    44ae:	81 e0       	ldi	r24, 0x01	; 1
    44b0:	03 c0       	rjmp	.+6      	; 0x44b8 <disk_initialize+0xce>
    44b2:	80 e0       	ldi	r24, 0x00	; 0
    44b4:	01 c0       	rjmp	.+2      	; 0x44b8 <disk_initialize+0xce>
    44b6:	80 e0       	ldi	r24, 0x00	; 0
    44b8:	88 23       	and	r24, r24
    44ba:	09 f4       	brne	.+2      	; 0x44be <disk_initialize+0xd4>
    44bc:	49 c0       	rjmp	.+146    	; 0x4550 <disk_initialize+0x166>
    44be:	64 e0       	ldi	r22, 0x04	; 4
    44c0:	70 e0       	ldi	r23, 0x00	; 0
    44c2:	ce 01       	movw	r24, r28
    44c4:	01 96       	adiw	r24, 0x01	; 1
    44c6:	09 de       	rcall	.-1006   	; 0x40da <_ZL8rcvr_mmcPhj>
    44c8:	89 81       	ldd	r24, Y+1	; 0x01
    44ca:	86 ff       	sbrs	r24, 6
    44cc:	43 c0       	rjmp	.+134    	; 0x4554 <disk_initialize+0x16a>
    44ce:	0f 2e       	mov	r0, r31
    44d0:	fc e0       	ldi	r31, 0x0C	; 12
    44d2:	ff 2e       	mov	r15, r31
    44d4:	f0 2d       	mov	r31, r0
    44d6:	43 c0       	rjmp	.+134    	; 0x455e <disk_initialize+0x174>
    44d8:	40 e0       	ldi	r20, 0x00	; 0
    44da:	50 e0       	ldi	r21, 0x00	; 0
    44dc:	ba 01       	movw	r22, r20
    44de:	89 ea       	ldi	r24, 0xA9	; 169
    44e0:	1d df       	rcall	.-454    	; 0x431c <_ZL8send_cmdhm>
    44e2:	82 30       	cpi	r24, 0x02	; 2
    44e4:	40 f4       	brcc	.+16     	; 0x44f6 <disk_initialize+0x10c>
    44e6:	0f 2e       	mov	r0, r31
    44e8:	f9 ea       	ldi	r31, 0xA9	; 169
    44ea:	ef 2e       	mov	r14, r31
    44ec:	f0 2d       	mov	r31, r0
    44ee:	68 94       	set
    44f0:	ff 24       	eor	r15, r15
    44f2:	f1 f8       	bld	r15, 1
    44f4:	04 c0       	rjmp	.+8      	; 0x44fe <disk_initialize+0x114>
    44f6:	ee 24       	eor	r14, r14
    44f8:	e3 94       	inc	r14
    44fa:	ff 24       	eor	r15, r15
    44fc:	f3 94       	inc	r15
    44fe:	08 ee       	ldi	r16, 0xE8	; 232
    4500:	13 e0       	ldi	r17, 0x03	; 3
    4502:	01 15       	cp	r16, r1
    4504:	11 05       	cpc	r17, r1
    4506:	69 f0       	breq	.+26     	; 0x4522 <disk_initialize+0x138>
    4508:	40 e0       	ldi	r20, 0x00	; 0
    450a:	50 e0       	ldi	r21, 0x00	; 0
    450c:	ba 01       	movw	r22, r20
    450e:	8e 2d       	mov	r24, r14
    4510:	05 df       	rcall	.-502    	; 0x431c <_ZL8send_cmdhm>
    4512:	88 23       	and	r24, r24
    4514:	31 f0       	breq	.+12     	; 0x4522 <disk_initialize+0x138>
    4516:	88 ee       	ldi	r24, 0xE8	; 232
    4518:	93 e0       	ldi	r25, 0x03	; 3
    451a:	58 dd       	rcall	.-1360   	; 0x3fcc <_ZL6dly_usj>
    451c:	01 50       	subi	r16, 0x01	; 1
    451e:	11 09       	sbc	r17, r1
    4520:	f0 cf       	rjmp	.-32     	; 0x4502 <disk_initialize+0x118>
    4522:	01 2b       	or	r16, r17
    4524:	49 f0       	breq	.+18     	; 0x4538 <disk_initialize+0x14e>
    4526:	40 e0       	ldi	r20, 0x00	; 0
    4528:	52 e0       	ldi	r21, 0x02	; 2
    452a:	60 e0       	ldi	r22, 0x00	; 0
    452c:	70 e0       	ldi	r23, 0x00	; 0
    452e:	80 e1       	ldi	r24, 0x10	; 16
    4530:	f5 de       	rcall	.-534    	; 0x431c <_ZL8send_cmdhm>
    4532:	81 11       	cpse	r24, r1
    4534:	03 c0       	rjmp	.+6      	; 0x453c <disk_initialize+0x152>
    4536:	03 c0       	rjmp	.+6      	; 0x453e <disk_initialize+0x154>
    4538:	81 e0       	ldi	r24, 0x01	; 1
    453a:	01 c0       	rjmp	.+2      	; 0x453e <disk_initialize+0x154>
    453c:	81 e0       	ldi	r24, 0x01	; 1
    453e:	81 11       	cpse	r24, r1
    4540:	0d c0       	rjmp	.+26     	; 0x455c <disk_initialize+0x172>
    4542:	0d c0       	rjmp	.+26     	; 0x455e <disk_initialize+0x174>
    4544:	f1 2c       	mov	r15, r1
    4546:	0b c0       	rjmp	.+22     	; 0x455e <disk_initialize+0x174>
    4548:	f1 2c       	mov	r15, r1
    454a:	09 c0       	rjmp	.+18     	; 0x455e <disk_initialize+0x174>
    454c:	f1 2c       	mov	r15, r1
    454e:	07 c0       	rjmp	.+14     	; 0x455e <disk_initialize+0x174>
    4550:	f1 2c       	mov	r15, r1
    4552:	05 c0       	rjmp	.+10     	; 0x455e <disk_initialize+0x174>
    4554:	68 94       	set
    4556:	ff 24       	eor	r15, r15
    4558:	f2 f8       	bld	r15, 2
    455a:	01 c0       	rjmp	.+2      	; 0x455e <disk_initialize+0x174>
    455c:	f1 2c       	mov	r15, r1
    455e:	f0 92 fa 03 	sts	0x03FA, r15	; 0x8003fa <_ZL8CardType>
    4562:	11 e0       	ldi	r17, 0x01	; 1
    4564:	f1 10       	cpse	r15, r1
    4566:	10 e0       	ldi	r17, 0x00	; 0
    4568:	10 93 06 01 	sts	0x0106, r17	; 0x800106 <_ZL4Stat>
    456c:	36 de       	rcall	.-916    	; 0x41da <_ZL8deselectv>
    456e:	81 2f       	mov	r24, r17
    4570:	01 c0       	rjmp	.+2      	; 0x4574 <disk_initialize+0x18a>
    4572:	83 e0       	ldi	r24, 0x03	; 3
    4574:	0f 90       	pop	r0
    4576:	0f 90       	pop	r0
    4578:	0f 90       	pop	r0
    457a:	0f 90       	pop	r0
    457c:	df 91       	pop	r29
    457e:	cf 91       	pop	r28
    4580:	1f 91       	pop	r17
    4582:	0f 91       	pop	r16
    4584:	ff 90       	pop	r15
    4586:	ef 90       	pop	r14
    4588:	08 95       	ret

0000458a <disk_read>:
    458a:	cf 92       	push	r12
    458c:	df 92       	push	r13
    458e:	ef 92       	push	r14
    4590:	ff 92       	push	r15
    4592:	0f 93       	push	r16
    4594:	cf 93       	push	r28
    4596:	df 93       	push	r29
    4598:	eb 01       	movw	r28, r22
    459a:	69 01       	movw	r12, r18
    459c:	7a 01       	movw	r14, r20
    459e:	1e df       	rcall	.-452    	; 0x43dc <disk_status>
    45a0:	80 fd       	sbrc	r24, 0
    45a2:	3e c0       	rjmp	.+124    	; 0x4620 <disk_read+0x96>
    45a4:	80 91 fa 03 	lds	r24, 0x03FA	; 0x8003fa <_ZL8CardType>
    45a8:	83 fd       	sbrc	r24, 3
    45aa:	09 c0       	rjmp	.+18     	; 0x45be <disk_read+0x34>
    45ac:	0b 2e       	mov	r0, r27
    45ae:	b9 e0       	ldi	r27, 0x09	; 9
    45b0:	cc 0c       	add	r12, r12
    45b2:	dd 1c       	adc	r13, r13
    45b4:	ee 1c       	adc	r14, r14
    45b6:	ff 1c       	adc	r15, r15
    45b8:	ba 95       	dec	r27
    45ba:	d1 f7       	brne	.-12     	; 0x45b0 <disk_read+0x26>
    45bc:	b0 2d       	mov	r27, r0
    45be:	01 30       	cpi	r16, 0x01	; 1
    45c0:	a1 f4       	brne	.+40     	; 0x45ea <disk_read+0x60>
    45c2:	b7 01       	movw	r22, r14
    45c4:	a6 01       	movw	r20, r12
    45c6:	81 e1       	ldi	r24, 0x11	; 17
    45c8:	a9 de       	rcall	.-686    	; 0x431c <_ZL8send_cmdhm>
    45ca:	81 11       	cpse	r24, r1
    45cc:	08 c0       	rjmp	.+16     	; 0x45de <disk_read+0x54>
    45ce:	60 e0       	ldi	r22, 0x00	; 0
    45d0:	72 e0       	ldi	r23, 0x02	; 2
    45d2:	ce 01       	movw	r24, r28
    45d4:	31 de       	rcall	.-926    	; 0x4238 <_ZL14rcvr_datablockPhj>
    45d6:	89 2b       	or	r24, r25
    45d8:	21 f0       	breq	.+8      	; 0x45e2 <disk_read+0x58>
    45da:	81 e0       	ldi	r24, 0x01	; 1
    45dc:	03 c0       	rjmp	.+6      	; 0x45e4 <disk_read+0x5a>
    45de:	80 e0       	ldi	r24, 0x00	; 0
    45e0:	01 c0       	rjmp	.+2      	; 0x45e4 <disk_read+0x5a>
    45e2:	80 e0       	ldi	r24, 0x00	; 0
    45e4:	81 11       	cpse	r24, r1
    45e6:	16 c0       	rjmp	.+44     	; 0x4614 <disk_read+0x8a>
    45e8:	16 c0       	rjmp	.+44     	; 0x4616 <disk_read+0x8c>
    45ea:	b7 01       	movw	r22, r14
    45ec:	a6 01       	movw	r20, r12
    45ee:	82 e1       	ldi	r24, 0x12	; 18
    45f0:	95 de       	rcall	.-726    	; 0x431c <_ZL8send_cmdhm>
    45f2:	81 11       	cpse	r24, r1
    45f4:	10 c0       	rjmp	.+32     	; 0x4616 <disk_read+0x8c>
    45f6:	60 e0       	ldi	r22, 0x00	; 0
    45f8:	72 e0       	ldi	r23, 0x02	; 2
    45fa:	ce 01       	movw	r24, r28
    45fc:	1d de       	rcall	.-966    	; 0x4238 <_ZL14rcvr_datablockPhj>
    45fe:	89 2b       	or	r24, r25
    4600:	19 f0       	breq	.+6      	; 0x4608 <disk_read+0x7e>
    4602:	de 5f       	subi	r29, 0xFE	; 254
    4604:	01 50       	subi	r16, 0x01	; 1
    4606:	b9 f7       	brne	.-18     	; 0x45f6 <disk_read+0x6c>
    4608:	40 e0       	ldi	r20, 0x00	; 0
    460a:	50 e0       	ldi	r21, 0x00	; 0
    460c:	ba 01       	movw	r22, r20
    460e:	8c e0       	ldi	r24, 0x0C	; 12
    4610:	85 de       	rcall	.-758    	; 0x431c <_ZL8send_cmdhm>
    4612:	01 c0       	rjmp	.+2      	; 0x4616 <disk_read+0x8c>
    4614:	00 e0       	ldi	r16, 0x00	; 0
    4616:	e1 dd       	rcall	.-1086   	; 0x41da <_ZL8deselectv>
    4618:	00 23       	and	r16, r16
    461a:	21 f0       	breq	.+8      	; 0x4624 <disk_read+0x9a>
    461c:	81 e0       	ldi	r24, 0x01	; 1
    461e:	03 c0       	rjmp	.+6      	; 0x4626 <disk_read+0x9c>
    4620:	83 e0       	ldi	r24, 0x03	; 3
    4622:	01 c0       	rjmp	.+2      	; 0x4626 <disk_read+0x9c>
    4624:	80 e0       	ldi	r24, 0x00	; 0
    4626:	df 91       	pop	r29
    4628:	cf 91       	pop	r28
    462a:	0f 91       	pop	r16
    462c:	ff 90       	pop	r15
    462e:	ef 90       	pop	r14
    4630:	df 90       	pop	r13
    4632:	cf 90       	pop	r12
    4634:	08 95       	ret

00004636 <disk_write>:
    4636:	cf 92       	push	r12
    4638:	df 92       	push	r13
    463a:	ef 92       	push	r14
    463c:	ff 92       	push	r15
    463e:	0f 93       	push	r16
    4640:	cf 93       	push	r28
    4642:	df 93       	push	r29
    4644:	eb 01       	movw	r28, r22
    4646:	69 01       	movw	r12, r18
    4648:	7a 01       	movw	r14, r20
    464a:	c8 de       	rcall	.-624    	; 0x43dc <disk_status>
    464c:	80 fd       	sbrc	r24, 0
    464e:	47 c0       	rjmp	.+142    	; 0x46de <disk_write+0xa8>
    4650:	80 91 fa 03 	lds	r24, 0x03FA	; 0x8003fa <_ZL8CardType>
    4654:	83 fd       	sbrc	r24, 3
    4656:	09 c0       	rjmp	.+18     	; 0x466a <disk_write+0x34>
    4658:	0b 2e       	mov	r0, r27
    465a:	b9 e0       	ldi	r27, 0x09	; 9
    465c:	cc 0c       	add	r12, r12
    465e:	dd 1c       	adc	r13, r13
    4660:	ee 1c       	adc	r14, r14
    4662:	ff 1c       	adc	r15, r15
    4664:	ba 95       	dec	r27
    4666:	d1 f7       	brne	.-12     	; 0x465c <disk_write+0x26>
    4668:	b0 2d       	mov	r27, r0
    466a:	01 30       	cpi	r16, 0x01	; 1
    466c:	99 f4       	brne	.+38     	; 0x4694 <disk_write+0x5e>
    466e:	b7 01       	movw	r22, r14
    4670:	a6 01       	movw	r20, r12
    4672:	88 e1       	ldi	r24, 0x18	; 24
    4674:	53 de       	rcall	.-858    	; 0x431c <_ZL8send_cmdhm>
    4676:	81 11       	cpse	r24, r1
    4678:	07 c0       	rjmp	.+14     	; 0x4688 <disk_write+0x52>
    467a:	6e ef       	ldi	r22, 0xFE	; 254
    467c:	ce 01       	movw	r24, r28
    467e:	17 de       	rcall	.-978    	; 0x42ae <_ZL14xmit_datablockPKhh>
    4680:	89 2b       	or	r24, r25
    4682:	21 f0       	breq	.+8      	; 0x468c <disk_write+0x56>
    4684:	81 e0       	ldi	r24, 0x01	; 1
    4686:	03 c0       	rjmp	.+6      	; 0x468e <disk_write+0x58>
    4688:	80 e0       	ldi	r24, 0x00	; 0
    468a:	01 c0       	rjmp	.+2      	; 0x468e <disk_write+0x58>
    468c:	80 e0       	ldi	r24, 0x00	; 0
    468e:	81 11       	cpse	r24, r1
    4690:	1e c0       	rjmp	.+60     	; 0x46ce <disk_write+0x98>
    4692:	20 c0       	rjmp	.+64     	; 0x46d4 <disk_write+0x9e>
    4694:	86 70       	andi	r24, 0x06	; 6
    4696:	31 f0       	breq	.+12     	; 0x46a4 <disk_write+0x6e>
    4698:	40 2f       	mov	r20, r16
    469a:	50 e0       	ldi	r21, 0x00	; 0
    469c:	60 e0       	ldi	r22, 0x00	; 0
    469e:	70 e0       	ldi	r23, 0x00	; 0
    46a0:	87 e9       	ldi	r24, 0x97	; 151
    46a2:	3c de       	rcall	.-904    	; 0x431c <_ZL8send_cmdhm>
    46a4:	b7 01       	movw	r22, r14
    46a6:	a6 01       	movw	r20, r12
    46a8:	89 e1       	ldi	r24, 0x19	; 25
    46aa:	38 de       	rcall	.-912    	; 0x431c <_ZL8send_cmdhm>
    46ac:	81 11       	cpse	r24, r1
    46ae:	12 c0       	rjmp	.+36     	; 0x46d4 <disk_write+0x9e>
    46b0:	6c ef       	ldi	r22, 0xFC	; 252
    46b2:	ce 01       	movw	r24, r28
    46b4:	fc dd       	rcall	.-1032   	; 0x42ae <_ZL14xmit_datablockPKhh>
    46b6:	89 2b       	or	r24, r25
    46b8:	19 f0       	breq	.+6      	; 0x46c0 <disk_write+0x8a>
    46ba:	de 5f       	subi	r29, 0xFE	; 254
    46bc:	01 50       	subi	r16, 0x01	; 1
    46be:	c1 f7       	brne	.-16     	; 0x46b0 <disk_write+0x7a>
    46c0:	6d ef       	ldi	r22, 0xFD	; 253
    46c2:	80 e0       	ldi	r24, 0x00	; 0
    46c4:	90 e0       	ldi	r25, 0x00	; 0
    46c6:	f3 dd       	rcall	.-1050   	; 0x42ae <_ZL14xmit_datablockPKhh>
    46c8:	89 2b       	or	r24, r25
    46ca:	19 f0       	breq	.+6      	; 0x46d2 <disk_write+0x9c>
    46cc:	03 c0       	rjmp	.+6      	; 0x46d4 <disk_write+0x9e>
    46ce:	00 e0       	ldi	r16, 0x00	; 0
    46d0:	01 c0       	rjmp	.+2      	; 0x46d4 <disk_write+0x9e>
    46d2:	01 e0       	ldi	r16, 0x01	; 1
    46d4:	82 dd       	rcall	.-1276   	; 0x41da <_ZL8deselectv>
    46d6:	00 23       	and	r16, r16
    46d8:	21 f0       	breq	.+8      	; 0x46e2 <disk_write+0xac>
    46da:	81 e0       	ldi	r24, 0x01	; 1
    46dc:	03 c0       	rjmp	.+6      	; 0x46e4 <disk_write+0xae>
    46de:	83 e0       	ldi	r24, 0x03	; 3
    46e0:	01 c0       	rjmp	.+2      	; 0x46e4 <disk_write+0xae>
    46e2:	80 e0       	ldi	r24, 0x00	; 0
    46e4:	df 91       	pop	r29
    46e6:	cf 91       	pop	r28
    46e8:	0f 91       	pop	r16
    46ea:	ff 90       	pop	r15
    46ec:	ef 90       	pop	r14
    46ee:	df 90       	pop	r13
    46f0:	cf 90       	pop	r12
    46f2:	08 95       	ret

000046f4 <disk_ioctl>:
    46f4:	ef 92       	push	r14
    46f6:	ff 92       	push	r15
    46f8:	1f 93       	push	r17
    46fa:	cf 93       	push	r28
    46fc:	df 93       	push	r29
    46fe:	cd b7       	in	r28, 0x3d	; 61
    4700:	de b7       	in	r29, 0x3e	; 62
    4702:	60 97       	sbiw	r28, 0x10	; 16
    4704:	0f b6       	in	r0, 0x3f	; 63
    4706:	f8 94       	cli
    4708:	de bf       	out	0x3e, r29	; 62
    470a:	0f be       	out	0x3f, r0	; 63
    470c:	cd bf       	out	0x3d, r28	; 61
    470e:	16 2f       	mov	r17, r22
    4710:	7a 01       	movw	r14, r20
    4712:	64 de       	rcall	.-824    	; 0x43dc <disk_status>
    4714:	80 fd       	sbrc	r24, 0
    4716:	a9 c0       	rjmp	.+338    	; 0x486a <disk_ioctl+0x176>
    4718:	11 30       	cpi	r17, 0x01	; 1
    471a:	59 f0       	breq	.+22     	; 0x4732 <disk_ioctl+0x3e>
    471c:	20 f0       	brcs	.+8      	; 0x4726 <disk_ioctl+0x32>
    471e:	13 30       	cpi	r17, 0x03	; 3
    4720:	09 f4       	brne	.+2      	; 0x4724 <disk_ioctl+0x30>
    4722:	90 c0       	rjmp	.+288    	; 0x4844 <disk_ioctl+0x150>
    4724:	9a c0       	rjmp	.+308    	; 0x485a <disk_ioctl+0x166>
    4726:	6a dd       	rcall	.-1324   	; 0x41fc <_ZL6selectv>
    4728:	89 2b       	or	r24, r25
    472a:	09 f0       	breq	.+2      	; 0x472e <disk_ioctl+0x3a>
    472c:	98 c0       	rjmp	.+304    	; 0x485e <disk_ioctl+0x16a>
    472e:	11 e0       	ldi	r17, 0x01	; 1
    4730:	99 c0       	rjmp	.+306    	; 0x4864 <disk_ioctl+0x170>
    4732:	40 e0       	ldi	r20, 0x00	; 0
    4734:	50 e0       	ldi	r21, 0x00	; 0
    4736:	ba 01       	movw	r22, r20
    4738:	89 e0       	ldi	r24, 0x09	; 9
    473a:	f0 dd       	rcall	.-1056   	; 0x431c <_ZL8send_cmdhm>
    473c:	81 11       	cpse	r24, r1
    473e:	09 c0       	rjmp	.+18     	; 0x4752 <disk_ioctl+0x5e>
    4740:	60 e1       	ldi	r22, 0x10	; 16
    4742:	70 e0       	ldi	r23, 0x00	; 0
    4744:	ce 01       	movw	r24, r28
    4746:	01 96       	adiw	r24, 0x01	; 1
    4748:	77 dd       	rcall	.-1298   	; 0x4238 <_ZL14rcvr_datablockPhj>
    474a:	89 2b       	or	r24, r25
    474c:	21 f0       	breq	.+8      	; 0x4756 <disk_ioctl+0x62>
    474e:	81 e0       	ldi	r24, 0x01	; 1
    4750:	03 c0       	rjmp	.+6      	; 0x4758 <disk_ioctl+0x64>
    4752:	80 e0       	ldi	r24, 0x00	; 0
    4754:	01 c0       	rjmp	.+2      	; 0x4758 <disk_ioctl+0x64>
    4756:	80 e0       	ldi	r24, 0x00	; 0
    4758:	88 23       	and	r24, r24
    475a:	09 f4       	brne	.+2      	; 0x475e <disk_ioctl+0x6a>
    475c:	82 c0       	rjmp	.+260    	; 0x4862 <disk_ioctl+0x16e>
    475e:	89 81       	ldd	r24, Y+1	; 0x01
    4760:	90 e0       	ldi	r25, 0x00	; 0
    4762:	08 2e       	mov	r0, r24
    4764:	89 2f       	mov	r24, r25
    4766:	00 0c       	add	r0, r0
    4768:	88 1f       	adc	r24, r24
    476a:	99 0b       	sbc	r25, r25
    476c:	00 0c       	add	r0, r0
    476e:	88 1f       	adc	r24, r24
    4770:	99 1f       	adc	r25, r25
    4772:	01 97       	sbiw	r24, 0x01	; 1
    4774:	31 f5       	brne	.+76     	; 0x47c2 <disk_ioctl+0xce>
    4776:	8a 85       	ldd	r24, Y+10	; 0x0a
    4778:	29 85       	ldd	r18, Y+9	; 0x09
    477a:	30 e0       	ldi	r19, 0x00	; 0
    477c:	32 2f       	mov	r19, r18
    477e:	22 27       	eor	r18, r18
    4780:	28 0f       	add	r18, r24
    4782:	31 1d       	adc	r19, r1
    4784:	88 85       	ldd	r24, Y+8	; 0x08
    4786:	8f 73       	andi	r24, 0x3F	; 63
    4788:	90 e0       	ldi	r25, 0x00	; 0
    478a:	a0 e0       	ldi	r26, 0x00	; 0
    478c:	b0 e0       	ldi	r27, 0x00	; 0
    478e:	dc 01       	movw	r26, r24
    4790:	99 27       	eor	r25, r25
    4792:	88 27       	eor	r24, r24
    4794:	82 0f       	add	r24, r18
    4796:	93 1f       	adc	r25, r19
    4798:	a1 1d       	adc	r26, r1
    479a:	b1 1d       	adc	r27, r1
    479c:	01 96       	adiw	r24, 0x01	; 1
    479e:	a1 1d       	adc	r26, r1
    47a0:	b1 1d       	adc	r27, r1
    47a2:	07 2e       	mov	r0, r23
    47a4:	7a e0       	ldi	r23, 0x0A	; 10
    47a6:	88 0f       	add	r24, r24
    47a8:	99 1f       	adc	r25, r25
    47aa:	aa 1f       	adc	r26, r26
    47ac:	bb 1f       	adc	r27, r27
    47ae:	7a 95       	dec	r23
    47b0:	d1 f7       	brne	.-12     	; 0x47a6 <disk_ioctl+0xb2>
    47b2:	70 2d       	mov	r23, r0
    47b4:	f7 01       	movw	r30, r14
    47b6:	80 83       	st	Z, r24
    47b8:	91 83       	std	Z+1, r25	; 0x01
    47ba:	a2 83       	std	Z+2, r26	; 0x02
    47bc:	b3 83       	std	Z+3, r27	; 0x03
    47be:	10 e0       	ldi	r17, 0x00	; 0
    47c0:	51 c0       	rjmp	.+162    	; 0x4864 <disk_ioctl+0x170>
    47c2:	8e 81       	ldd	r24, Y+6	; 0x06
    47c4:	2b 85       	ldd	r18, Y+11	; 0x0b
    47c6:	9a 85       	ldd	r25, Y+10	; 0x0a
    47c8:	38 2f       	mov	r19, r24
    47ca:	3f 70       	andi	r19, 0x0F	; 15
    47cc:	82 2f       	mov	r24, r18
    47ce:	88 1f       	adc	r24, r24
    47d0:	88 27       	eor	r24, r24
    47d2:	88 1f       	adc	r24, r24
    47d4:	83 0f       	add	r24, r19
    47d6:	93 70       	andi	r25, 0x03	; 3
    47d8:	99 0f       	add	r25, r25
    47da:	89 0f       	add	r24, r25
    47dc:	42 e0       	ldi	r20, 0x02	; 2
    47de:	48 0f       	add	r20, r24
    47e0:	89 85       	ldd	r24, Y+9	; 0x09
    47e2:	90 e0       	ldi	r25, 0x00	; 0
    47e4:	bc 01       	movw	r22, r24
    47e6:	06 2e       	mov	r0, r22
    47e8:	67 2f       	mov	r22, r23
    47ea:	00 0c       	add	r0, r0
    47ec:	66 1f       	adc	r22, r22
    47ee:	77 0b       	sbc	r23, r23
    47f0:	00 0c       	add	r0, r0
    47f2:	66 1f       	adc	r22, r22
    47f4:	77 1f       	adc	r23, r23
    47f6:	28 85       	ldd	r18, Y+8	; 0x08
    47f8:	30 e0       	ldi	r19, 0x00	; 0
    47fa:	c9 01       	movw	r24, r18
    47fc:	88 0f       	add	r24, r24
    47fe:	99 1f       	adc	r25, r25
    4800:	88 0f       	add	r24, r24
    4802:	99 1f       	adc	r25, r25
    4804:	86 0f       	add	r24, r22
    4806:	97 1f       	adc	r25, r23
    4808:	2f 81       	ldd	r18, Y+7	; 0x07
    480a:	23 70       	andi	r18, 0x03	; 3
    480c:	30 e0       	ldi	r19, 0x00	; 0
    480e:	32 2f       	mov	r19, r18
    4810:	22 27       	eor	r18, r18
    4812:	33 0f       	add	r19, r19
    4814:	33 0f       	add	r19, r19
    4816:	82 0f       	add	r24, r18
    4818:	93 1f       	adc	r25, r19
    481a:	01 96       	adiw	r24, 0x01	; 1
    481c:	a0 e0       	ldi	r26, 0x00	; 0
    481e:	b0 e0       	ldi	r27, 0x00	; 0
    4820:	24 2f       	mov	r18, r20
    4822:	30 e0       	ldi	r19, 0x00	; 0
    4824:	29 50       	subi	r18, 0x09	; 9
    4826:	31 09       	sbc	r19, r1
    4828:	04 c0       	rjmp	.+8      	; 0x4832 <disk_ioctl+0x13e>
    482a:	88 0f       	add	r24, r24
    482c:	99 1f       	adc	r25, r25
    482e:	aa 1f       	adc	r26, r26
    4830:	bb 1f       	adc	r27, r27
    4832:	2a 95       	dec	r18
    4834:	d2 f7       	brpl	.-12     	; 0x482a <disk_ioctl+0x136>
    4836:	f7 01       	movw	r30, r14
    4838:	80 83       	st	Z, r24
    483a:	91 83       	std	Z+1, r25	; 0x01
    483c:	a2 83       	std	Z+2, r26	; 0x02
    483e:	b3 83       	std	Z+3, r27	; 0x03
    4840:	10 e0       	ldi	r17, 0x00	; 0
    4842:	10 c0       	rjmp	.+32     	; 0x4864 <disk_ioctl+0x170>
    4844:	80 e8       	ldi	r24, 0x80	; 128
    4846:	90 e0       	ldi	r25, 0x00	; 0
    4848:	a0 e0       	ldi	r26, 0x00	; 0
    484a:	b0 e0       	ldi	r27, 0x00	; 0
    484c:	f7 01       	movw	r30, r14
    484e:	80 83       	st	Z, r24
    4850:	91 83       	std	Z+1, r25	; 0x01
    4852:	a2 83       	std	Z+2, r26	; 0x02
    4854:	b3 83       	std	Z+3, r27	; 0x03
    4856:	10 e0       	ldi	r17, 0x00	; 0
    4858:	05 c0       	rjmp	.+10     	; 0x4864 <disk_ioctl+0x170>
    485a:	14 e0       	ldi	r17, 0x04	; 4
    485c:	03 c0       	rjmp	.+6      	; 0x4864 <disk_ioctl+0x170>
    485e:	10 e0       	ldi	r17, 0x00	; 0
    4860:	01 c0       	rjmp	.+2      	; 0x4864 <disk_ioctl+0x170>
    4862:	11 e0       	ldi	r17, 0x01	; 1
    4864:	ba dc       	rcall	.-1676   	; 0x41da <_ZL8deselectv>
    4866:	81 2f       	mov	r24, r17
    4868:	01 c0       	rjmp	.+2      	; 0x486c <disk_ioctl+0x178>
    486a:	83 e0       	ldi	r24, 0x03	; 3
    486c:	60 96       	adiw	r28, 0x10	; 16
    486e:	0f b6       	in	r0, 0x3f	; 63
    4870:	f8 94       	cli
    4872:	de bf       	out	0x3e, r29	; 62
    4874:	0f be       	out	0x3f, r0	; 63
    4876:	cd bf       	out	0x3d, r28	; 61
    4878:	df 91       	pop	r29
    487a:	cf 91       	pop	r28
    487c:	1f 91       	pop	r17
    487e:	ff 90       	pop	r15
    4880:	ef 90       	pop	r14
    4882:	08 95       	ret

00004884 <__udivmodsi4>:
    4884:	a1 e2       	ldi	r26, 0x21	; 33
    4886:	1a 2e       	mov	r1, r26
    4888:	aa 1b       	sub	r26, r26
    488a:	bb 1b       	sub	r27, r27
    488c:	fd 01       	movw	r30, r26
    488e:	0d c0       	rjmp	.+26     	; 0x48aa <__udivmodsi4_ep>

00004890 <__udivmodsi4_loop>:
    4890:	aa 1f       	adc	r26, r26
    4892:	bb 1f       	adc	r27, r27
    4894:	ee 1f       	adc	r30, r30
    4896:	ff 1f       	adc	r31, r31
    4898:	a2 17       	cp	r26, r18
    489a:	b3 07       	cpc	r27, r19
    489c:	e4 07       	cpc	r30, r20
    489e:	f5 07       	cpc	r31, r21
    48a0:	20 f0       	brcs	.+8      	; 0x48aa <__udivmodsi4_ep>
    48a2:	a2 1b       	sub	r26, r18
    48a4:	b3 0b       	sbc	r27, r19
    48a6:	e4 0b       	sbc	r30, r20
    48a8:	f5 0b       	sbc	r31, r21

000048aa <__udivmodsi4_ep>:
    48aa:	66 1f       	adc	r22, r22
    48ac:	77 1f       	adc	r23, r23
    48ae:	88 1f       	adc	r24, r24
    48b0:	99 1f       	adc	r25, r25
    48b2:	1a 94       	dec	r1
    48b4:	69 f7       	brne	.-38     	; 0x4890 <__udivmodsi4_loop>
    48b6:	60 95       	com	r22
    48b8:	70 95       	com	r23
    48ba:	80 95       	com	r24
    48bc:	90 95       	com	r25
    48be:	9b 01       	movw	r18, r22
    48c0:	ac 01       	movw	r20, r24
    48c2:	bd 01       	movw	r22, r26
    48c4:	cf 01       	movw	r24, r30
    48c6:	08 95       	ret

000048c8 <__muluhisi3>:
    48c8:	09 d0       	rcall	.+18     	; 0x48dc <__umulhisi3>
    48ca:	a5 9f       	mul	r26, r21
    48cc:	90 0d       	add	r25, r0
    48ce:	b4 9f       	mul	r27, r20
    48d0:	90 0d       	add	r25, r0
    48d2:	a4 9f       	mul	r26, r20
    48d4:	80 0d       	add	r24, r0
    48d6:	91 1d       	adc	r25, r1
    48d8:	11 24       	eor	r1, r1
    48da:	08 95       	ret

000048dc <__umulhisi3>:
    48dc:	a2 9f       	mul	r26, r18
    48de:	b0 01       	movw	r22, r0
    48e0:	b3 9f       	mul	r27, r19
    48e2:	c0 01       	movw	r24, r0
    48e4:	a3 9f       	mul	r26, r19
    48e6:	70 0d       	add	r23, r0
    48e8:	81 1d       	adc	r24, r1
    48ea:	11 24       	eor	r1, r1
    48ec:	91 1d       	adc	r25, r1
    48ee:	b2 9f       	mul	r27, r18
    48f0:	70 0d       	add	r23, r0
    48f2:	81 1d       	adc	r24, r1
    48f4:	11 24       	eor	r1, r1
    48f6:	91 1d       	adc	r25, r1
    48f8:	08 95       	ret

000048fa <malloc>:
    48fa:	0f 93       	push	r16
    48fc:	1f 93       	push	r17
    48fe:	cf 93       	push	r28
    4900:	df 93       	push	r29
    4902:	82 30       	cpi	r24, 0x02	; 2
    4904:	91 05       	cpc	r25, r1
    4906:	10 f4       	brcc	.+4      	; 0x490c <malloc+0x12>
    4908:	82 e0       	ldi	r24, 0x02	; 2
    490a:	90 e0       	ldi	r25, 0x00	; 0
    490c:	e0 91 fd 03 	lds	r30, 0x03FD	; 0x8003fd <__flp>
    4910:	f0 91 fe 03 	lds	r31, 0x03FE	; 0x8003fe <__flp+0x1>
    4914:	20 e0       	ldi	r18, 0x00	; 0
    4916:	30 e0       	ldi	r19, 0x00	; 0
    4918:	a0 e0       	ldi	r26, 0x00	; 0
    491a:	b0 e0       	ldi	r27, 0x00	; 0
    491c:	30 97       	sbiw	r30, 0x00	; 0
    491e:	19 f1       	breq	.+70     	; 0x4966 <malloc+0x6c>
    4920:	40 81       	ld	r20, Z
    4922:	51 81       	ldd	r21, Z+1	; 0x01
    4924:	02 81       	ldd	r16, Z+2	; 0x02
    4926:	13 81       	ldd	r17, Z+3	; 0x03
    4928:	48 17       	cp	r20, r24
    492a:	59 07       	cpc	r21, r25
    492c:	c8 f0       	brcs	.+50     	; 0x4960 <malloc+0x66>
    492e:	84 17       	cp	r24, r20
    4930:	95 07       	cpc	r25, r21
    4932:	69 f4       	brne	.+26     	; 0x494e <malloc+0x54>
    4934:	10 97       	sbiw	r26, 0x00	; 0
    4936:	31 f0       	breq	.+12     	; 0x4944 <malloc+0x4a>
    4938:	12 96       	adiw	r26, 0x02	; 2
    493a:	0c 93       	st	X, r16
    493c:	12 97       	sbiw	r26, 0x02	; 2
    493e:	13 96       	adiw	r26, 0x03	; 3
    4940:	1c 93       	st	X, r17
    4942:	27 c0       	rjmp	.+78     	; 0x4992 <malloc+0x98>
    4944:	00 93 fd 03 	sts	0x03FD, r16	; 0x8003fd <__flp>
    4948:	10 93 fe 03 	sts	0x03FE, r17	; 0x8003fe <__flp+0x1>
    494c:	22 c0       	rjmp	.+68     	; 0x4992 <malloc+0x98>
    494e:	21 15       	cp	r18, r1
    4950:	31 05       	cpc	r19, r1
    4952:	19 f0       	breq	.+6      	; 0x495a <malloc+0x60>
    4954:	42 17       	cp	r20, r18
    4956:	53 07       	cpc	r21, r19
    4958:	18 f4       	brcc	.+6      	; 0x4960 <malloc+0x66>
    495a:	9a 01       	movw	r18, r20
    495c:	bd 01       	movw	r22, r26
    495e:	ef 01       	movw	r28, r30
    4960:	df 01       	movw	r26, r30
    4962:	f8 01       	movw	r30, r16
    4964:	db cf       	rjmp	.-74     	; 0x491c <malloc+0x22>
    4966:	21 15       	cp	r18, r1
    4968:	31 05       	cpc	r19, r1
    496a:	f9 f0       	breq	.+62     	; 0x49aa <malloc+0xb0>
    496c:	28 1b       	sub	r18, r24
    496e:	39 0b       	sbc	r19, r25
    4970:	24 30       	cpi	r18, 0x04	; 4
    4972:	31 05       	cpc	r19, r1
    4974:	80 f4       	brcc	.+32     	; 0x4996 <malloc+0x9c>
    4976:	8a 81       	ldd	r24, Y+2	; 0x02
    4978:	9b 81       	ldd	r25, Y+3	; 0x03
    497a:	61 15       	cp	r22, r1
    497c:	71 05       	cpc	r23, r1
    497e:	21 f0       	breq	.+8      	; 0x4988 <malloc+0x8e>
    4980:	fb 01       	movw	r30, r22
    4982:	93 83       	std	Z+3, r25	; 0x03
    4984:	82 83       	std	Z+2, r24	; 0x02
    4986:	04 c0       	rjmp	.+8      	; 0x4990 <malloc+0x96>
    4988:	90 93 fe 03 	sts	0x03FE, r25	; 0x8003fe <__flp+0x1>
    498c:	80 93 fd 03 	sts	0x03FD, r24	; 0x8003fd <__flp>
    4990:	fe 01       	movw	r30, r28
    4992:	32 96       	adiw	r30, 0x02	; 2
    4994:	44 c0       	rjmp	.+136    	; 0x4a1e <malloc+0x124>
    4996:	fe 01       	movw	r30, r28
    4998:	e2 0f       	add	r30, r18
    499a:	f3 1f       	adc	r31, r19
    499c:	81 93       	st	Z+, r24
    499e:	91 93       	st	Z+, r25
    49a0:	22 50       	subi	r18, 0x02	; 2
    49a2:	31 09       	sbc	r19, r1
    49a4:	39 83       	std	Y+1, r19	; 0x01
    49a6:	28 83       	st	Y, r18
    49a8:	3a c0       	rjmp	.+116    	; 0x4a1e <malloc+0x124>
    49aa:	20 91 fb 03 	lds	r18, 0x03FB	; 0x8003fb <__brkval>
    49ae:	30 91 fc 03 	lds	r19, 0x03FC	; 0x8003fc <__brkval+0x1>
    49b2:	23 2b       	or	r18, r19
    49b4:	41 f4       	brne	.+16     	; 0x49c6 <malloc+0xcc>
    49b6:	20 91 02 01 	lds	r18, 0x0102	; 0x800102 <__malloc_heap_start>
    49ba:	30 91 03 01 	lds	r19, 0x0103	; 0x800103 <__malloc_heap_start+0x1>
    49be:	30 93 fc 03 	sts	0x03FC, r19	; 0x8003fc <__brkval+0x1>
    49c2:	20 93 fb 03 	sts	0x03FB, r18	; 0x8003fb <__brkval>
    49c6:	20 91 00 01 	lds	r18, 0x0100	; 0x800100 <__DATA_REGION_ORIGIN__>
    49ca:	30 91 01 01 	lds	r19, 0x0101	; 0x800101 <__DATA_REGION_ORIGIN__+0x1>
    49ce:	21 15       	cp	r18, r1
    49d0:	31 05       	cpc	r19, r1
    49d2:	41 f4       	brne	.+16     	; 0x49e4 <malloc+0xea>
    49d4:	2d b7       	in	r18, 0x3d	; 61
    49d6:	3e b7       	in	r19, 0x3e	; 62
    49d8:	40 91 04 01 	lds	r20, 0x0104	; 0x800104 <__malloc_margin>
    49dc:	50 91 05 01 	lds	r21, 0x0105	; 0x800105 <__malloc_margin+0x1>
    49e0:	24 1b       	sub	r18, r20
    49e2:	35 0b       	sbc	r19, r21
    49e4:	e0 91 fb 03 	lds	r30, 0x03FB	; 0x8003fb <__brkval>
    49e8:	f0 91 fc 03 	lds	r31, 0x03FC	; 0x8003fc <__brkval+0x1>
    49ec:	e2 17       	cp	r30, r18
    49ee:	f3 07       	cpc	r31, r19
    49f0:	a0 f4       	brcc	.+40     	; 0x4a1a <malloc+0x120>
    49f2:	2e 1b       	sub	r18, r30
    49f4:	3f 0b       	sbc	r19, r31
    49f6:	28 17       	cp	r18, r24
    49f8:	39 07       	cpc	r19, r25
    49fa:	78 f0       	brcs	.+30     	; 0x4a1a <malloc+0x120>
    49fc:	ac 01       	movw	r20, r24
    49fe:	4e 5f       	subi	r20, 0xFE	; 254
    4a00:	5f 4f       	sbci	r21, 0xFF	; 255
    4a02:	24 17       	cp	r18, r20
    4a04:	35 07       	cpc	r19, r21
    4a06:	48 f0       	brcs	.+18     	; 0x4a1a <malloc+0x120>
    4a08:	4e 0f       	add	r20, r30
    4a0a:	5f 1f       	adc	r21, r31
    4a0c:	50 93 fc 03 	sts	0x03FC, r21	; 0x8003fc <__brkval+0x1>
    4a10:	40 93 fb 03 	sts	0x03FB, r20	; 0x8003fb <__brkval>
    4a14:	81 93       	st	Z+, r24
    4a16:	91 93       	st	Z+, r25
    4a18:	02 c0       	rjmp	.+4      	; 0x4a1e <malloc+0x124>
    4a1a:	e0 e0       	ldi	r30, 0x00	; 0
    4a1c:	f0 e0       	ldi	r31, 0x00	; 0
    4a1e:	cf 01       	movw	r24, r30
    4a20:	df 91       	pop	r29
    4a22:	cf 91       	pop	r28
    4a24:	1f 91       	pop	r17
    4a26:	0f 91       	pop	r16
    4a28:	08 95       	ret

00004a2a <free>:
    4a2a:	cf 93       	push	r28
    4a2c:	df 93       	push	r29
    4a2e:	00 97       	sbiw	r24, 0x00	; 0
    4a30:	09 f4       	brne	.+2      	; 0x4a34 <free+0xa>
    4a32:	81 c0       	rjmp	.+258    	; 0x4b36 <free+0x10c>
    4a34:	fc 01       	movw	r30, r24
    4a36:	32 97       	sbiw	r30, 0x02	; 2
    4a38:	13 82       	std	Z+3, r1	; 0x03
    4a3a:	12 82       	std	Z+2, r1	; 0x02
    4a3c:	a0 91 fd 03 	lds	r26, 0x03FD	; 0x8003fd <__flp>
    4a40:	b0 91 fe 03 	lds	r27, 0x03FE	; 0x8003fe <__flp+0x1>
    4a44:	10 97       	sbiw	r26, 0x00	; 0
    4a46:	81 f4       	brne	.+32     	; 0x4a68 <free+0x3e>
    4a48:	20 81       	ld	r18, Z
    4a4a:	31 81       	ldd	r19, Z+1	; 0x01
    4a4c:	82 0f       	add	r24, r18
    4a4e:	93 1f       	adc	r25, r19
    4a50:	20 91 fb 03 	lds	r18, 0x03FB	; 0x8003fb <__brkval>
    4a54:	30 91 fc 03 	lds	r19, 0x03FC	; 0x8003fc <__brkval+0x1>
    4a58:	28 17       	cp	r18, r24
    4a5a:	39 07       	cpc	r19, r25
    4a5c:	51 f5       	brne	.+84     	; 0x4ab2 <free+0x88>
    4a5e:	f0 93 fc 03 	sts	0x03FC, r31	; 0x8003fc <__brkval+0x1>
    4a62:	e0 93 fb 03 	sts	0x03FB, r30	; 0x8003fb <__brkval>
    4a66:	67 c0       	rjmp	.+206    	; 0x4b36 <free+0x10c>
    4a68:	ed 01       	movw	r28, r26
    4a6a:	20 e0       	ldi	r18, 0x00	; 0
    4a6c:	30 e0       	ldi	r19, 0x00	; 0
    4a6e:	ce 17       	cp	r28, r30
    4a70:	df 07       	cpc	r29, r31
    4a72:	40 f4       	brcc	.+16     	; 0x4a84 <free+0x5a>
    4a74:	4a 81       	ldd	r20, Y+2	; 0x02
    4a76:	5b 81       	ldd	r21, Y+3	; 0x03
    4a78:	9e 01       	movw	r18, r28
    4a7a:	41 15       	cp	r20, r1
    4a7c:	51 05       	cpc	r21, r1
    4a7e:	f1 f0       	breq	.+60     	; 0x4abc <free+0x92>
    4a80:	ea 01       	movw	r28, r20
    4a82:	f5 cf       	rjmp	.-22     	; 0x4a6e <free+0x44>
    4a84:	d3 83       	std	Z+3, r29	; 0x03
    4a86:	c2 83       	std	Z+2, r28	; 0x02
    4a88:	40 81       	ld	r20, Z
    4a8a:	51 81       	ldd	r21, Z+1	; 0x01
    4a8c:	84 0f       	add	r24, r20
    4a8e:	95 1f       	adc	r25, r21
    4a90:	c8 17       	cp	r28, r24
    4a92:	d9 07       	cpc	r29, r25
    4a94:	59 f4       	brne	.+22     	; 0x4aac <free+0x82>
    4a96:	88 81       	ld	r24, Y
    4a98:	99 81       	ldd	r25, Y+1	; 0x01
    4a9a:	84 0f       	add	r24, r20
    4a9c:	95 1f       	adc	r25, r21
    4a9e:	02 96       	adiw	r24, 0x02	; 2
    4aa0:	91 83       	std	Z+1, r25	; 0x01
    4aa2:	80 83       	st	Z, r24
    4aa4:	8a 81       	ldd	r24, Y+2	; 0x02
    4aa6:	9b 81       	ldd	r25, Y+3	; 0x03
    4aa8:	93 83       	std	Z+3, r25	; 0x03
    4aaa:	82 83       	std	Z+2, r24	; 0x02
    4aac:	21 15       	cp	r18, r1
    4aae:	31 05       	cpc	r19, r1
    4ab0:	29 f4       	brne	.+10     	; 0x4abc <free+0x92>
    4ab2:	f0 93 fe 03 	sts	0x03FE, r31	; 0x8003fe <__flp+0x1>
    4ab6:	e0 93 fd 03 	sts	0x03FD, r30	; 0x8003fd <__flp>
    4aba:	3d c0       	rjmp	.+122    	; 0x4b36 <free+0x10c>
    4abc:	e9 01       	movw	r28, r18
    4abe:	fb 83       	std	Y+3, r31	; 0x03
    4ac0:	ea 83       	std	Y+2, r30	; 0x02
    4ac2:	49 91       	ld	r20, Y+
    4ac4:	59 91       	ld	r21, Y+
    4ac6:	c4 0f       	add	r28, r20
    4ac8:	d5 1f       	adc	r29, r21
    4aca:	ec 17       	cp	r30, r28
    4acc:	fd 07       	cpc	r31, r29
    4ace:	61 f4       	brne	.+24     	; 0x4ae8 <free+0xbe>
    4ad0:	80 81       	ld	r24, Z
    4ad2:	91 81       	ldd	r25, Z+1	; 0x01
    4ad4:	84 0f       	add	r24, r20
    4ad6:	95 1f       	adc	r25, r21
    4ad8:	02 96       	adiw	r24, 0x02	; 2
    4ada:	e9 01       	movw	r28, r18
    4adc:	99 83       	std	Y+1, r25	; 0x01
    4ade:	88 83       	st	Y, r24
    4ae0:	82 81       	ldd	r24, Z+2	; 0x02
    4ae2:	93 81       	ldd	r25, Z+3	; 0x03
    4ae4:	9b 83       	std	Y+3, r25	; 0x03
    4ae6:	8a 83       	std	Y+2, r24	; 0x02
    4ae8:	e0 e0       	ldi	r30, 0x00	; 0
    4aea:	f0 e0       	ldi	r31, 0x00	; 0
    4aec:	12 96       	adiw	r26, 0x02	; 2
    4aee:	8d 91       	ld	r24, X+
    4af0:	9c 91       	ld	r25, X
    4af2:	13 97       	sbiw	r26, 0x03	; 3
    4af4:	00 97       	sbiw	r24, 0x00	; 0
    4af6:	19 f0       	breq	.+6      	; 0x4afe <free+0xd4>
    4af8:	fd 01       	movw	r30, r26
    4afa:	dc 01       	movw	r26, r24
    4afc:	f7 cf       	rjmp	.-18     	; 0x4aec <free+0xc2>
    4afe:	8d 91       	ld	r24, X+
    4b00:	9c 91       	ld	r25, X
    4b02:	11 97       	sbiw	r26, 0x01	; 1
    4b04:	9d 01       	movw	r18, r26
    4b06:	2e 5f       	subi	r18, 0xFE	; 254
    4b08:	3f 4f       	sbci	r19, 0xFF	; 255
    4b0a:	82 0f       	add	r24, r18
    4b0c:	93 1f       	adc	r25, r19
    4b0e:	20 91 fb 03 	lds	r18, 0x03FB	; 0x8003fb <__brkval>
    4b12:	30 91 fc 03 	lds	r19, 0x03FC	; 0x8003fc <__brkval+0x1>
    4b16:	28 17       	cp	r18, r24
    4b18:	39 07       	cpc	r19, r25
    4b1a:	69 f4       	brne	.+26     	; 0x4b36 <free+0x10c>
    4b1c:	30 97       	sbiw	r30, 0x00	; 0
    4b1e:	29 f4       	brne	.+10     	; 0x4b2a <free+0x100>
    4b20:	10 92 fe 03 	sts	0x03FE, r1	; 0x8003fe <__flp+0x1>
    4b24:	10 92 fd 03 	sts	0x03FD, r1	; 0x8003fd <__flp>
    4b28:	02 c0       	rjmp	.+4      	; 0x4b2e <free+0x104>
    4b2a:	13 82       	std	Z+3, r1	; 0x03
    4b2c:	12 82       	std	Z+2, r1	; 0x02
    4b2e:	b0 93 fc 03 	sts	0x03FC, r27	; 0x8003fc <__brkval+0x1>
    4b32:	a0 93 fb 03 	sts	0x03FB, r26	; 0x8003fb <__brkval>
    4b36:	df 91       	pop	r29
    4b38:	cf 91       	pop	r28
    4b3a:	08 95       	ret

00004b3c <snprintf>:
    4b3c:	0f 93       	push	r16
    4b3e:	1f 93       	push	r17
    4b40:	cf 93       	push	r28
    4b42:	df 93       	push	r29
    4b44:	cd b7       	in	r28, 0x3d	; 61
    4b46:	de b7       	in	r29, 0x3e	; 62
    4b48:	2e 97       	sbiw	r28, 0x0e	; 14
    4b4a:	0f b6       	in	r0, 0x3f	; 63
    4b4c:	f8 94       	cli
    4b4e:	de bf       	out	0x3e, r29	; 62
    4b50:	0f be       	out	0x3f, r0	; 63
    4b52:	cd bf       	out	0x3d, r28	; 61
    4b54:	0d 89       	ldd	r16, Y+21	; 0x15
    4b56:	1e 89       	ldd	r17, Y+22	; 0x16
    4b58:	8f 89       	ldd	r24, Y+23	; 0x17
    4b5a:	98 8d       	ldd	r25, Y+24	; 0x18
    4b5c:	26 e0       	ldi	r18, 0x06	; 6
    4b5e:	2c 83       	std	Y+4, r18	; 0x04
    4b60:	1a 83       	std	Y+2, r17	; 0x02
    4b62:	09 83       	std	Y+1, r16	; 0x01
    4b64:	97 ff       	sbrs	r25, 7
    4b66:	02 c0       	rjmp	.+4      	; 0x4b6c <snprintf+0x30>
    4b68:	80 e0       	ldi	r24, 0x00	; 0
    4b6a:	90 e8       	ldi	r25, 0x80	; 128
    4b6c:	01 97       	sbiw	r24, 0x01	; 1
    4b6e:	9e 83       	std	Y+6, r25	; 0x06
    4b70:	8d 83       	std	Y+5, r24	; 0x05
    4b72:	ae 01       	movw	r20, r28
    4b74:	45 5e       	subi	r20, 0xE5	; 229
    4b76:	5f 4f       	sbci	r21, 0xFF	; 255
    4b78:	69 8d       	ldd	r22, Y+25	; 0x19
    4b7a:	7a 8d       	ldd	r23, Y+26	; 0x1a
    4b7c:	ce 01       	movw	r24, r28
    4b7e:	01 96       	adiw	r24, 0x01	; 1
    4b80:	19 d0       	rcall	.+50     	; 0x4bb4 <vfprintf>
    4b82:	4d 81       	ldd	r20, Y+5	; 0x05
    4b84:	5e 81       	ldd	r21, Y+6	; 0x06
    4b86:	57 fd       	sbrc	r21, 7
    4b88:	0a c0       	rjmp	.+20     	; 0x4b9e <snprintf+0x62>
    4b8a:	2f 81       	ldd	r18, Y+7	; 0x07
    4b8c:	38 85       	ldd	r19, Y+8	; 0x08
    4b8e:	42 17       	cp	r20, r18
    4b90:	53 07       	cpc	r21, r19
    4b92:	0c f4       	brge	.+2      	; 0x4b96 <snprintf+0x5a>
    4b94:	9a 01       	movw	r18, r20
    4b96:	f8 01       	movw	r30, r16
    4b98:	e2 0f       	add	r30, r18
    4b9a:	f3 1f       	adc	r31, r19
    4b9c:	10 82       	st	Z, r1
    4b9e:	2e 96       	adiw	r28, 0x0e	; 14
    4ba0:	0f b6       	in	r0, 0x3f	; 63
    4ba2:	f8 94       	cli
    4ba4:	de bf       	out	0x3e, r29	; 62
    4ba6:	0f be       	out	0x3f, r0	; 63
    4ba8:	cd bf       	out	0x3d, r28	; 61
    4baa:	df 91       	pop	r29
    4bac:	cf 91       	pop	r28
    4bae:	1f 91       	pop	r17
    4bb0:	0f 91       	pop	r16
    4bb2:	08 95       	ret

00004bb4 <vfprintf>:
    4bb4:	2f 92       	push	r2
    4bb6:	3f 92       	push	r3
    4bb8:	4f 92       	push	r4
    4bba:	5f 92       	push	r5
    4bbc:	6f 92       	push	r6
    4bbe:	7f 92       	push	r7
    4bc0:	8f 92       	push	r8
    4bc2:	9f 92       	push	r9
    4bc4:	af 92       	push	r10
    4bc6:	bf 92       	push	r11
    4bc8:	cf 92       	push	r12
    4bca:	df 92       	push	r13
    4bcc:	ef 92       	push	r14
    4bce:	ff 92       	push	r15
    4bd0:	0f 93       	push	r16
    4bd2:	1f 93       	push	r17
    4bd4:	cf 93       	push	r28
    4bd6:	df 93       	push	r29
    4bd8:	cd b7       	in	r28, 0x3d	; 61
    4bda:	de b7       	in	r29, 0x3e	; 62
    4bdc:	2b 97       	sbiw	r28, 0x0b	; 11
    4bde:	0f b6       	in	r0, 0x3f	; 63
    4be0:	f8 94       	cli
    4be2:	de bf       	out	0x3e, r29	; 62
    4be4:	0f be       	out	0x3f, r0	; 63
    4be6:	cd bf       	out	0x3d, r28	; 61
    4be8:	6c 01       	movw	r12, r24
    4bea:	7b 01       	movw	r14, r22
    4bec:	8a 01       	movw	r16, r20
    4bee:	fc 01       	movw	r30, r24
    4bf0:	17 82       	std	Z+7, r1	; 0x07
    4bf2:	16 82       	std	Z+6, r1	; 0x06
    4bf4:	83 81       	ldd	r24, Z+3	; 0x03
    4bf6:	81 ff       	sbrs	r24, 1
    4bf8:	bf c1       	rjmp	.+894    	; 0x4f78 <vfprintf+0x3c4>
    4bfa:	ce 01       	movw	r24, r28
    4bfc:	01 96       	adiw	r24, 0x01	; 1
    4bfe:	3c 01       	movw	r6, r24
    4c00:	f6 01       	movw	r30, r12
    4c02:	93 81       	ldd	r25, Z+3	; 0x03
    4c04:	f7 01       	movw	r30, r14
    4c06:	93 fd       	sbrc	r25, 3
    4c08:	85 91       	lpm	r24, Z+
    4c0a:	93 ff       	sbrs	r25, 3
    4c0c:	81 91       	ld	r24, Z+
    4c0e:	7f 01       	movw	r14, r30
    4c10:	88 23       	and	r24, r24
    4c12:	09 f4       	brne	.+2      	; 0x4c16 <vfprintf+0x62>
    4c14:	ad c1       	rjmp	.+858    	; 0x4f70 <vfprintf+0x3bc>
    4c16:	85 32       	cpi	r24, 0x25	; 37
    4c18:	39 f4       	brne	.+14     	; 0x4c28 <vfprintf+0x74>
    4c1a:	93 fd       	sbrc	r25, 3
    4c1c:	85 91       	lpm	r24, Z+
    4c1e:	93 ff       	sbrs	r25, 3
    4c20:	81 91       	ld	r24, Z+
    4c22:	7f 01       	movw	r14, r30
    4c24:	85 32       	cpi	r24, 0x25	; 37
    4c26:	21 f4       	brne	.+8      	; 0x4c30 <vfprintf+0x7c>
    4c28:	b6 01       	movw	r22, r12
    4c2a:	90 e0       	ldi	r25, 0x00	; 0
    4c2c:	d6 d1       	rcall	.+940    	; 0x4fda <fputc>
    4c2e:	e8 cf       	rjmp	.-48     	; 0x4c00 <vfprintf+0x4c>
    4c30:	91 2c       	mov	r9, r1
    4c32:	21 2c       	mov	r2, r1
    4c34:	31 2c       	mov	r3, r1
    4c36:	ff e1       	ldi	r31, 0x1F	; 31
    4c38:	f3 15       	cp	r31, r3
    4c3a:	d8 f0       	brcs	.+54     	; 0x4c72 <vfprintf+0xbe>
    4c3c:	8b 32       	cpi	r24, 0x2B	; 43
    4c3e:	79 f0       	breq	.+30     	; 0x4c5e <vfprintf+0xaa>
    4c40:	38 f4       	brcc	.+14     	; 0x4c50 <vfprintf+0x9c>
    4c42:	80 32       	cpi	r24, 0x20	; 32
    4c44:	79 f0       	breq	.+30     	; 0x4c64 <vfprintf+0xb0>
    4c46:	83 32       	cpi	r24, 0x23	; 35
    4c48:	a1 f4       	brne	.+40     	; 0x4c72 <vfprintf+0xbe>
    4c4a:	23 2d       	mov	r18, r3
    4c4c:	20 61       	ori	r18, 0x10	; 16
    4c4e:	1d c0       	rjmp	.+58     	; 0x4c8a <vfprintf+0xd6>
    4c50:	8d 32       	cpi	r24, 0x2D	; 45
    4c52:	61 f0       	breq	.+24     	; 0x4c6c <vfprintf+0xb8>
    4c54:	80 33       	cpi	r24, 0x30	; 48
    4c56:	69 f4       	brne	.+26     	; 0x4c72 <vfprintf+0xbe>
    4c58:	23 2d       	mov	r18, r3
    4c5a:	21 60       	ori	r18, 0x01	; 1
    4c5c:	16 c0       	rjmp	.+44     	; 0x4c8a <vfprintf+0xd6>
    4c5e:	83 2d       	mov	r24, r3
    4c60:	82 60       	ori	r24, 0x02	; 2
    4c62:	38 2e       	mov	r3, r24
    4c64:	e3 2d       	mov	r30, r3
    4c66:	e4 60       	ori	r30, 0x04	; 4
    4c68:	3e 2e       	mov	r3, r30
    4c6a:	2a c0       	rjmp	.+84     	; 0x4cc0 <vfprintf+0x10c>
    4c6c:	f3 2d       	mov	r31, r3
    4c6e:	f8 60       	ori	r31, 0x08	; 8
    4c70:	1d c0       	rjmp	.+58     	; 0x4cac <vfprintf+0xf8>
    4c72:	37 fc       	sbrc	r3, 7
    4c74:	2d c0       	rjmp	.+90     	; 0x4cd0 <vfprintf+0x11c>
    4c76:	20 ed       	ldi	r18, 0xD0	; 208
    4c78:	28 0f       	add	r18, r24
    4c7a:	2a 30       	cpi	r18, 0x0A	; 10
    4c7c:	40 f0       	brcs	.+16     	; 0x4c8e <vfprintf+0xda>
    4c7e:	8e 32       	cpi	r24, 0x2E	; 46
    4c80:	b9 f4       	brne	.+46     	; 0x4cb0 <vfprintf+0xfc>
    4c82:	36 fc       	sbrc	r3, 6
    4c84:	75 c1       	rjmp	.+746    	; 0x4f70 <vfprintf+0x3bc>
    4c86:	23 2d       	mov	r18, r3
    4c88:	20 64       	ori	r18, 0x40	; 64
    4c8a:	32 2e       	mov	r3, r18
    4c8c:	19 c0       	rjmp	.+50     	; 0x4cc0 <vfprintf+0x10c>
    4c8e:	36 fe       	sbrs	r3, 6
    4c90:	06 c0       	rjmp	.+12     	; 0x4c9e <vfprintf+0xea>
    4c92:	8a e0       	ldi	r24, 0x0A	; 10
    4c94:	98 9e       	mul	r9, r24
    4c96:	20 0d       	add	r18, r0
    4c98:	11 24       	eor	r1, r1
    4c9a:	92 2e       	mov	r9, r18
    4c9c:	11 c0       	rjmp	.+34     	; 0x4cc0 <vfprintf+0x10c>
    4c9e:	ea e0       	ldi	r30, 0x0A	; 10
    4ca0:	2e 9e       	mul	r2, r30
    4ca2:	20 0d       	add	r18, r0
    4ca4:	11 24       	eor	r1, r1
    4ca6:	22 2e       	mov	r2, r18
    4ca8:	f3 2d       	mov	r31, r3
    4caa:	f0 62       	ori	r31, 0x20	; 32
    4cac:	3f 2e       	mov	r3, r31
    4cae:	08 c0       	rjmp	.+16     	; 0x4cc0 <vfprintf+0x10c>
    4cb0:	8c 36       	cpi	r24, 0x6C	; 108
    4cb2:	21 f4       	brne	.+8      	; 0x4cbc <vfprintf+0x108>
    4cb4:	83 2d       	mov	r24, r3
    4cb6:	80 68       	ori	r24, 0x80	; 128
    4cb8:	38 2e       	mov	r3, r24
    4cba:	02 c0       	rjmp	.+4      	; 0x4cc0 <vfprintf+0x10c>
    4cbc:	88 36       	cpi	r24, 0x68	; 104
    4cbe:	41 f4       	brne	.+16     	; 0x4cd0 <vfprintf+0x11c>
    4cc0:	f7 01       	movw	r30, r14
    4cc2:	93 fd       	sbrc	r25, 3
    4cc4:	85 91       	lpm	r24, Z+
    4cc6:	93 ff       	sbrs	r25, 3
    4cc8:	81 91       	ld	r24, Z+
    4cca:	7f 01       	movw	r14, r30
    4ccc:	81 11       	cpse	r24, r1
    4cce:	b3 cf       	rjmp	.-154    	; 0x4c36 <vfprintf+0x82>
    4cd0:	98 2f       	mov	r25, r24
    4cd2:	9f 7d       	andi	r25, 0xDF	; 223
    4cd4:	95 54       	subi	r25, 0x45	; 69
    4cd6:	93 30       	cpi	r25, 0x03	; 3
    4cd8:	28 f4       	brcc	.+10     	; 0x4ce4 <vfprintf+0x130>
    4cda:	0c 5f       	subi	r16, 0xFC	; 252
    4cdc:	1f 4f       	sbci	r17, 0xFF	; 255
    4cde:	9f e3       	ldi	r25, 0x3F	; 63
    4ce0:	99 83       	std	Y+1, r25	; 0x01
    4ce2:	0d c0       	rjmp	.+26     	; 0x4cfe <vfprintf+0x14a>
    4ce4:	83 36       	cpi	r24, 0x63	; 99
    4ce6:	31 f0       	breq	.+12     	; 0x4cf4 <vfprintf+0x140>
    4ce8:	83 37       	cpi	r24, 0x73	; 115
    4cea:	71 f0       	breq	.+28     	; 0x4d08 <vfprintf+0x154>
    4cec:	83 35       	cpi	r24, 0x53	; 83
    4cee:	09 f0       	breq	.+2      	; 0x4cf2 <vfprintf+0x13e>
    4cf0:	55 c0       	rjmp	.+170    	; 0x4d9c <vfprintf+0x1e8>
    4cf2:	20 c0       	rjmp	.+64     	; 0x4d34 <vfprintf+0x180>
    4cf4:	f8 01       	movw	r30, r16
    4cf6:	80 81       	ld	r24, Z
    4cf8:	89 83       	std	Y+1, r24	; 0x01
    4cfa:	0e 5f       	subi	r16, 0xFE	; 254
    4cfc:	1f 4f       	sbci	r17, 0xFF	; 255
    4cfe:	88 24       	eor	r8, r8
    4d00:	83 94       	inc	r8
    4d02:	91 2c       	mov	r9, r1
    4d04:	53 01       	movw	r10, r6
    4d06:	12 c0       	rjmp	.+36     	; 0x4d2c <vfprintf+0x178>
    4d08:	28 01       	movw	r4, r16
    4d0a:	f2 e0       	ldi	r31, 0x02	; 2
    4d0c:	4f 0e       	add	r4, r31
    4d0e:	51 1c       	adc	r5, r1
    4d10:	f8 01       	movw	r30, r16
    4d12:	a0 80       	ld	r10, Z
    4d14:	b1 80       	ldd	r11, Z+1	; 0x01
    4d16:	36 fe       	sbrs	r3, 6
    4d18:	03 c0       	rjmp	.+6      	; 0x4d20 <vfprintf+0x16c>
    4d1a:	69 2d       	mov	r22, r9
    4d1c:	70 e0       	ldi	r23, 0x00	; 0
    4d1e:	02 c0       	rjmp	.+4      	; 0x4d24 <vfprintf+0x170>
    4d20:	6f ef       	ldi	r22, 0xFF	; 255
    4d22:	7f ef       	ldi	r23, 0xFF	; 255
    4d24:	c5 01       	movw	r24, r10
    4d26:	4e d1       	rcall	.+668    	; 0x4fc4 <strnlen>
    4d28:	4c 01       	movw	r8, r24
    4d2a:	82 01       	movw	r16, r4
    4d2c:	f3 2d       	mov	r31, r3
    4d2e:	ff 77       	andi	r31, 0x7F	; 127
    4d30:	3f 2e       	mov	r3, r31
    4d32:	15 c0       	rjmp	.+42     	; 0x4d5e <vfprintf+0x1aa>
    4d34:	28 01       	movw	r4, r16
    4d36:	22 e0       	ldi	r18, 0x02	; 2
    4d38:	42 0e       	add	r4, r18
    4d3a:	51 1c       	adc	r5, r1
    4d3c:	f8 01       	movw	r30, r16
    4d3e:	a0 80       	ld	r10, Z
    4d40:	b1 80       	ldd	r11, Z+1	; 0x01
    4d42:	36 fe       	sbrs	r3, 6
    4d44:	03 c0       	rjmp	.+6      	; 0x4d4c <vfprintf+0x198>
    4d46:	69 2d       	mov	r22, r9
    4d48:	70 e0       	ldi	r23, 0x00	; 0
    4d4a:	02 c0       	rjmp	.+4      	; 0x4d50 <vfprintf+0x19c>
    4d4c:	6f ef       	ldi	r22, 0xFF	; 255
    4d4e:	7f ef       	ldi	r23, 0xFF	; 255
    4d50:	c5 01       	movw	r24, r10
    4d52:	2d d1       	rcall	.+602    	; 0x4fae <strnlen_P>
    4d54:	4c 01       	movw	r8, r24
    4d56:	f3 2d       	mov	r31, r3
    4d58:	f0 68       	ori	r31, 0x80	; 128
    4d5a:	3f 2e       	mov	r3, r31
    4d5c:	82 01       	movw	r16, r4
    4d5e:	33 fc       	sbrc	r3, 3
    4d60:	19 c0       	rjmp	.+50     	; 0x4d94 <vfprintf+0x1e0>
    4d62:	82 2d       	mov	r24, r2
    4d64:	90 e0       	ldi	r25, 0x00	; 0
    4d66:	88 16       	cp	r8, r24
    4d68:	99 06       	cpc	r9, r25
    4d6a:	a0 f4       	brcc	.+40     	; 0x4d94 <vfprintf+0x1e0>
    4d6c:	b6 01       	movw	r22, r12
    4d6e:	80 e2       	ldi	r24, 0x20	; 32
    4d70:	90 e0       	ldi	r25, 0x00	; 0
    4d72:	33 d1       	rcall	.+614    	; 0x4fda <fputc>
    4d74:	2a 94       	dec	r2
    4d76:	f5 cf       	rjmp	.-22     	; 0x4d62 <vfprintf+0x1ae>
    4d78:	f5 01       	movw	r30, r10
    4d7a:	37 fc       	sbrc	r3, 7
    4d7c:	85 91       	lpm	r24, Z+
    4d7e:	37 fe       	sbrs	r3, 7
    4d80:	81 91       	ld	r24, Z+
    4d82:	5f 01       	movw	r10, r30
    4d84:	b6 01       	movw	r22, r12
    4d86:	90 e0       	ldi	r25, 0x00	; 0
    4d88:	28 d1       	rcall	.+592    	; 0x4fda <fputc>
    4d8a:	21 10       	cpse	r2, r1
    4d8c:	2a 94       	dec	r2
    4d8e:	21 e0       	ldi	r18, 0x01	; 1
    4d90:	82 1a       	sub	r8, r18
    4d92:	91 08       	sbc	r9, r1
    4d94:	81 14       	cp	r8, r1
    4d96:	91 04       	cpc	r9, r1
    4d98:	79 f7       	brne	.-34     	; 0x4d78 <vfprintf+0x1c4>
    4d9a:	e1 c0       	rjmp	.+450    	; 0x4f5e <vfprintf+0x3aa>
    4d9c:	84 36       	cpi	r24, 0x64	; 100
    4d9e:	11 f0       	breq	.+4      	; 0x4da4 <vfprintf+0x1f0>
    4da0:	89 36       	cpi	r24, 0x69	; 105
    4da2:	39 f5       	brne	.+78     	; 0x4df2 <vfprintf+0x23e>
    4da4:	f8 01       	movw	r30, r16
    4da6:	37 fe       	sbrs	r3, 7
    4da8:	07 c0       	rjmp	.+14     	; 0x4db8 <vfprintf+0x204>
    4daa:	60 81       	ld	r22, Z
    4dac:	71 81       	ldd	r23, Z+1	; 0x01
    4dae:	82 81       	ldd	r24, Z+2	; 0x02
    4db0:	93 81       	ldd	r25, Z+3	; 0x03
    4db2:	0c 5f       	subi	r16, 0xFC	; 252
    4db4:	1f 4f       	sbci	r17, 0xFF	; 255
    4db6:	08 c0       	rjmp	.+16     	; 0x4dc8 <vfprintf+0x214>
    4db8:	60 81       	ld	r22, Z
    4dba:	71 81       	ldd	r23, Z+1	; 0x01
    4dbc:	07 2e       	mov	r0, r23
    4dbe:	00 0c       	add	r0, r0
    4dc0:	88 0b       	sbc	r24, r24
    4dc2:	99 0b       	sbc	r25, r25
    4dc4:	0e 5f       	subi	r16, 0xFE	; 254
    4dc6:	1f 4f       	sbci	r17, 0xFF	; 255
    4dc8:	f3 2d       	mov	r31, r3
    4dca:	ff 76       	andi	r31, 0x6F	; 111
    4dcc:	3f 2e       	mov	r3, r31
    4dce:	97 ff       	sbrs	r25, 7
    4dd0:	09 c0       	rjmp	.+18     	; 0x4de4 <vfprintf+0x230>
    4dd2:	90 95       	com	r25
    4dd4:	80 95       	com	r24
    4dd6:	70 95       	com	r23
    4dd8:	61 95       	neg	r22
    4dda:	7f 4f       	sbci	r23, 0xFF	; 255
    4ddc:	8f 4f       	sbci	r24, 0xFF	; 255
    4dde:	9f 4f       	sbci	r25, 0xFF	; 255
    4de0:	f0 68       	ori	r31, 0x80	; 128
    4de2:	3f 2e       	mov	r3, r31
    4de4:	2a e0       	ldi	r18, 0x0A	; 10
    4de6:	30 e0       	ldi	r19, 0x00	; 0
    4de8:	a3 01       	movw	r20, r6
    4dea:	33 d1       	rcall	.+614    	; 0x5052 <__ultoa_invert>
    4dec:	88 2e       	mov	r8, r24
    4dee:	86 18       	sub	r8, r6
    4df0:	44 c0       	rjmp	.+136    	; 0x4e7a <vfprintf+0x2c6>
    4df2:	85 37       	cpi	r24, 0x75	; 117
    4df4:	31 f4       	brne	.+12     	; 0x4e02 <vfprintf+0x24e>
    4df6:	23 2d       	mov	r18, r3
    4df8:	2f 7e       	andi	r18, 0xEF	; 239
    4dfa:	b2 2e       	mov	r11, r18
    4dfc:	2a e0       	ldi	r18, 0x0A	; 10
    4dfe:	30 e0       	ldi	r19, 0x00	; 0
    4e00:	25 c0       	rjmp	.+74     	; 0x4e4c <vfprintf+0x298>
    4e02:	93 2d       	mov	r25, r3
    4e04:	99 7f       	andi	r25, 0xF9	; 249
    4e06:	b9 2e       	mov	r11, r25
    4e08:	8f 36       	cpi	r24, 0x6F	; 111
    4e0a:	c1 f0       	breq	.+48     	; 0x4e3c <vfprintf+0x288>
    4e0c:	18 f4       	brcc	.+6      	; 0x4e14 <vfprintf+0x260>
    4e0e:	88 35       	cpi	r24, 0x58	; 88
    4e10:	79 f0       	breq	.+30     	; 0x4e30 <vfprintf+0x27c>
    4e12:	ae c0       	rjmp	.+348    	; 0x4f70 <vfprintf+0x3bc>
    4e14:	80 37       	cpi	r24, 0x70	; 112
    4e16:	19 f0       	breq	.+6      	; 0x4e1e <vfprintf+0x26a>
    4e18:	88 37       	cpi	r24, 0x78	; 120
    4e1a:	21 f0       	breq	.+8      	; 0x4e24 <vfprintf+0x270>
    4e1c:	a9 c0       	rjmp	.+338    	; 0x4f70 <vfprintf+0x3bc>
    4e1e:	e9 2f       	mov	r30, r25
    4e20:	e0 61       	ori	r30, 0x10	; 16
    4e22:	be 2e       	mov	r11, r30
    4e24:	b4 fe       	sbrs	r11, 4
    4e26:	0d c0       	rjmp	.+26     	; 0x4e42 <vfprintf+0x28e>
    4e28:	fb 2d       	mov	r31, r11
    4e2a:	f4 60       	ori	r31, 0x04	; 4
    4e2c:	bf 2e       	mov	r11, r31
    4e2e:	09 c0       	rjmp	.+18     	; 0x4e42 <vfprintf+0x28e>
    4e30:	34 fe       	sbrs	r3, 4
    4e32:	0a c0       	rjmp	.+20     	; 0x4e48 <vfprintf+0x294>
    4e34:	29 2f       	mov	r18, r25
    4e36:	26 60       	ori	r18, 0x06	; 6
    4e38:	b2 2e       	mov	r11, r18
    4e3a:	06 c0       	rjmp	.+12     	; 0x4e48 <vfprintf+0x294>
    4e3c:	28 e0       	ldi	r18, 0x08	; 8
    4e3e:	30 e0       	ldi	r19, 0x00	; 0
    4e40:	05 c0       	rjmp	.+10     	; 0x4e4c <vfprintf+0x298>
    4e42:	20 e1       	ldi	r18, 0x10	; 16
    4e44:	30 e0       	ldi	r19, 0x00	; 0
    4e46:	02 c0       	rjmp	.+4      	; 0x4e4c <vfprintf+0x298>
    4e48:	20 e1       	ldi	r18, 0x10	; 16
    4e4a:	32 e0       	ldi	r19, 0x02	; 2
    4e4c:	f8 01       	movw	r30, r16
    4e4e:	b7 fe       	sbrs	r11, 7
    4e50:	07 c0       	rjmp	.+14     	; 0x4e60 <vfprintf+0x2ac>
    4e52:	60 81       	ld	r22, Z
    4e54:	71 81       	ldd	r23, Z+1	; 0x01
    4e56:	82 81       	ldd	r24, Z+2	; 0x02
    4e58:	93 81       	ldd	r25, Z+3	; 0x03
    4e5a:	0c 5f       	subi	r16, 0xFC	; 252
    4e5c:	1f 4f       	sbci	r17, 0xFF	; 255
    4e5e:	06 c0       	rjmp	.+12     	; 0x4e6c <vfprintf+0x2b8>
    4e60:	60 81       	ld	r22, Z
    4e62:	71 81       	ldd	r23, Z+1	; 0x01
    4e64:	80 e0       	ldi	r24, 0x00	; 0
    4e66:	90 e0       	ldi	r25, 0x00	; 0
    4e68:	0e 5f       	subi	r16, 0xFE	; 254
    4e6a:	1f 4f       	sbci	r17, 0xFF	; 255
    4e6c:	a3 01       	movw	r20, r6
    4e6e:	f1 d0       	rcall	.+482    	; 0x5052 <__ultoa_invert>
    4e70:	88 2e       	mov	r8, r24
    4e72:	86 18       	sub	r8, r6
    4e74:	fb 2d       	mov	r31, r11
    4e76:	ff 77       	andi	r31, 0x7F	; 127
    4e78:	3f 2e       	mov	r3, r31
    4e7a:	36 fe       	sbrs	r3, 6
    4e7c:	0d c0       	rjmp	.+26     	; 0x4e98 <vfprintf+0x2e4>
    4e7e:	23 2d       	mov	r18, r3
    4e80:	2e 7f       	andi	r18, 0xFE	; 254
    4e82:	a2 2e       	mov	r10, r18
    4e84:	89 14       	cp	r8, r9
    4e86:	58 f4       	brcc	.+22     	; 0x4e9e <vfprintf+0x2ea>
    4e88:	34 fe       	sbrs	r3, 4
    4e8a:	0b c0       	rjmp	.+22     	; 0x4ea2 <vfprintf+0x2ee>
    4e8c:	32 fc       	sbrc	r3, 2
    4e8e:	09 c0       	rjmp	.+18     	; 0x4ea2 <vfprintf+0x2ee>
    4e90:	83 2d       	mov	r24, r3
    4e92:	8e 7e       	andi	r24, 0xEE	; 238
    4e94:	a8 2e       	mov	r10, r24
    4e96:	05 c0       	rjmp	.+10     	; 0x4ea2 <vfprintf+0x2ee>
    4e98:	b8 2c       	mov	r11, r8
    4e9a:	a3 2c       	mov	r10, r3
    4e9c:	03 c0       	rjmp	.+6      	; 0x4ea4 <vfprintf+0x2f0>
    4e9e:	b8 2c       	mov	r11, r8
    4ea0:	01 c0       	rjmp	.+2      	; 0x4ea4 <vfprintf+0x2f0>
    4ea2:	b9 2c       	mov	r11, r9
    4ea4:	a4 fe       	sbrs	r10, 4
    4ea6:	0f c0       	rjmp	.+30     	; 0x4ec6 <vfprintf+0x312>
    4ea8:	fe 01       	movw	r30, r28
    4eaa:	e8 0d       	add	r30, r8
    4eac:	f1 1d       	adc	r31, r1
    4eae:	80 81       	ld	r24, Z
    4eb0:	80 33       	cpi	r24, 0x30	; 48
    4eb2:	21 f4       	brne	.+8      	; 0x4ebc <vfprintf+0x308>
    4eb4:	9a 2d       	mov	r25, r10
    4eb6:	99 7e       	andi	r25, 0xE9	; 233
    4eb8:	a9 2e       	mov	r10, r25
    4eba:	09 c0       	rjmp	.+18     	; 0x4ece <vfprintf+0x31a>
    4ebc:	a2 fe       	sbrs	r10, 2
    4ebe:	06 c0       	rjmp	.+12     	; 0x4ecc <vfprintf+0x318>
    4ec0:	b3 94       	inc	r11
    4ec2:	b3 94       	inc	r11
    4ec4:	04 c0       	rjmp	.+8      	; 0x4ece <vfprintf+0x31a>
    4ec6:	8a 2d       	mov	r24, r10
    4ec8:	86 78       	andi	r24, 0x86	; 134
    4eca:	09 f0       	breq	.+2      	; 0x4ece <vfprintf+0x31a>
    4ecc:	b3 94       	inc	r11
    4ece:	a3 fc       	sbrc	r10, 3
    4ed0:	10 c0       	rjmp	.+32     	; 0x4ef2 <vfprintf+0x33e>
    4ed2:	a0 fe       	sbrs	r10, 0
    4ed4:	06 c0       	rjmp	.+12     	; 0x4ee2 <vfprintf+0x32e>
    4ed6:	b2 14       	cp	r11, r2
    4ed8:	80 f4       	brcc	.+32     	; 0x4efa <vfprintf+0x346>
    4eda:	28 0c       	add	r2, r8
    4edc:	92 2c       	mov	r9, r2
    4ede:	9b 18       	sub	r9, r11
    4ee0:	0d c0       	rjmp	.+26     	; 0x4efc <vfprintf+0x348>
    4ee2:	b2 14       	cp	r11, r2
    4ee4:	58 f4       	brcc	.+22     	; 0x4efc <vfprintf+0x348>
    4ee6:	b6 01       	movw	r22, r12
    4ee8:	80 e2       	ldi	r24, 0x20	; 32
    4eea:	90 e0       	ldi	r25, 0x00	; 0
    4eec:	76 d0       	rcall	.+236    	; 0x4fda <fputc>
    4eee:	b3 94       	inc	r11
    4ef0:	f8 cf       	rjmp	.-16     	; 0x4ee2 <vfprintf+0x32e>
    4ef2:	b2 14       	cp	r11, r2
    4ef4:	18 f4       	brcc	.+6      	; 0x4efc <vfprintf+0x348>
    4ef6:	2b 18       	sub	r2, r11
    4ef8:	02 c0       	rjmp	.+4      	; 0x4efe <vfprintf+0x34a>
    4efa:	98 2c       	mov	r9, r8
    4efc:	21 2c       	mov	r2, r1
    4efe:	a4 fe       	sbrs	r10, 4
    4f00:	0f c0       	rjmp	.+30     	; 0x4f20 <vfprintf+0x36c>
    4f02:	b6 01       	movw	r22, r12
    4f04:	80 e3       	ldi	r24, 0x30	; 48
    4f06:	90 e0       	ldi	r25, 0x00	; 0
    4f08:	68 d0       	rcall	.+208    	; 0x4fda <fputc>
    4f0a:	a2 fe       	sbrs	r10, 2
    4f0c:	16 c0       	rjmp	.+44     	; 0x4f3a <vfprintf+0x386>
    4f0e:	a1 fc       	sbrc	r10, 1
    4f10:	03 c0       	rjmp	.+6      	; 0x4f18 <vfprintf+0x364>
    4f12:	88 e7       	ldi	r24, 0x78	; 120
    4f14:	90 e0       	ldi	r25, 0x00	; 0
    4f16:	02 c0       	rjmp	.+4      	; 0x4f1c <vfprintf+0x368>
    4f18:	88 e5       	ldi	r24, 0x58	; 88
    4f1a:	90 e0       	ldi	r25, 0x00	; 0
    4f1c:	b6 01       	movw	r22, r12
    4f1e:	0c c0       	rjmp	.+24     	; 0x4f38 <vfprintf+0x384>
    4f20:	8a 2d       	mov	r24, r10
    4f22:	86 78       	andi	r24, 0x86	; 134
    4f24:	51 f0       	breq	.+20     	; 0x4f3a <vfprintf+0x386>
    4f26:	a1 fe       	sbrs	r10, 1
    4f28:	02 c0       	rjmp	.+4      	; 0x4f2e <vfprintf+0x37a>
    4f2a:	8b e2       	ldi	r24, 0x2B	; 43
    4f2c:	01 c0       	rjmp	.+2      	; 0x4f30 <vfprintf+0x37c>
    4f2e:	80 e2       	ldi	r24, 0x20	; 32
    4f30:	a7 fc       	sbrc	r10, 7
    4f32:	8d e2       	ldi	r24, 0x2D	; 45
    4f34:	b6 01       	movw	r22, r12
    4f36:	90 e0       	ldi	r25, 0x00	; 0
    4f38:	50 d0       	rcall	.+160    	; 0x4fda <fputc>
    4f3a:	89 14       	cp	r8, r9
    4f3c:	30 f4       	brcc	.+12     	; 0x4f4a <vfprintf+0x396>
    4f3e:	b6 01       	movw	r22, r12
    4f40:	80 e3       	ldi	r24, 0x30	; 48
    4f42:	90 e0       	ldi	r25, 0x00	; 0
    4f44:	4a d0       	rcall	.+148    	; 0x4fda <fputc>
    4f46:	9a 94       	dec	r9
    4f48:	f8 cf       	rjmp	.-16     	; 0x4f3a <vfprintf+0x386>
    4f4a:	8a 94       	dec	r8
    4f4c:	f3 01       	movw	r30, r6
    4f4e:	e8 0d       	add	r30, r8
    4f50:	f1 1d       	adc	r31, r1
    4f52:	80 81       	ld	r24, Z
    4f54:	b6 01       	movw	r22, r12
    4f56:	90 e0       	ldi	r25, 0x00	; 0
    4f58:	40 d0       	rcall	.+128    	; 0x4fda <fputc>
    4f5a:	81 10       	cpse	r8, r1
    4f5c:	f6 cf       	rjmp	.-20     	; 0x4f4a <vfprintf+0x396>
    4f5e:	22 20       	and	r2, r2
    4f60:	09 f4       	brne	.+2      	; 0x4f64 <vfprintf+0x3b0>
    4f62:	4e ce       	rjmp	.-868    	; 0x4c00 <vfprintf+0x4c>
    4f64:	b6 01       	movw	r22, r12
    4f66:	80 e2       	ldi	r24, 0x20	; 32
    4f68:	90 e0       	ldi	r25, 0x00	; 0
    4f6a:	37 d0       	rcall	.+110    	; 0x4fda <fputc>
    4f6c:	2a 94       	dec	r2
    4f6e:	f7 cf       	rjmp	.-18     	; 0x4f5e <vfprintf+0x3aa>
    4f70:	f6 01       	movw	r30, r12
    4f72:	86 81       	ldd	r24, Z+6	; 0x06
    4f74:	97 81       	ldd	r25, Z+7	; 0x07
    4f76:	02 c0       	rjmp	.+4      	; 0x4f7c <vfprintf+0x3c8>
    4f78:	8f ef       	ldi	r24, 0xFF	; 255
    4f7a:	9f ef       	ldi	r25, 0xFF	; 255
    4f7c:	2b 96       	adiw	r28, 0x0b	; 11
    4f7e:	0f b6       	in	r0, 0x3f	; 63
    4f80:	f8 94       	cli
    4f82:	de bf       	out	0x3e, r29	; 62
    4f84:	0f be       	out	0x3f, r0	; 63
    4f86:	cd bf       	out	0x3d, r28	; 61
    4f88:	df 91       	pop	r29
    4f8a:	cf 91       	pop	r28
    4f8c:	1f 91       	pop	r17
    4f8e:	0f 91       	pop	r16
    4f90:	ff 90       	pop	r15
    4f92:	ef 90       	pop	r14
    4f94:	df 90       	pop	r13
    4f96:	cf 90       	pop	r12
    4f98:	bf 90       	pop	r11
    4f9a:	af 90       	pop	r10
    4f9c:	9f 90       	pop	r9
    4f9e:	8f 90       	pop	r8
    4fa0:	7f 90       	pop	r7
    4fa2:	6f 90       	pop	r6
    4fa4:	5f 90       	pop	r5
    4fa6:	4f 90       	pop	r4
    4fa8:	3f 90       	pop	r3
    4faa:	2f 90       	pop	r2
    4fac:	08 95       	ret

00004fae <strnlen_P>:
    4fae:	fc 01       	movw	r30, r24
    4fb0:	05 90       	lpm	r0, Z+
    4fb2:	61 50       	subi	r22, 0x01	; 1
    4fb4:	70 40       	sbci	r23, 0x00	; 0
    4fb6:	01 10       	cpse	r0, r1
    4fb8:	d8 f7       	brcc	.-10     	; 0x4fb0 <strnlen_P+0x2>
    4fba:	80 95       	com	r24
    4fbc:	90 95       	com	r25
    4fbe:	8e 0f       	add	r24, r30
    4fc0:	9f 1f       	adc	r25, r31
    4fc2:	08 95       	ret

00004fc4 <strnlen>:
    4fc4:	fc 01       	movw	r30, r24
    4fc6:	61 50       	subi	r22, 0x01	; 1
    4fc8:	70 40       	sbci	r23, 0x00	; 0
    4fca:	01 90       	ld	r0, Z+
    4fcc:	01 10       	cpse	r0, r1
    4fce:	d8 f7       	brcc	.-10     	; 0x4fc6 <strnlen+0x2>
    4fd0:	80 95       	com	r24
    4fd2:	90 95       	com	r25
    4fd4:	8e 0f       	add	r24, r30
    4fd6:	9f 1f       	adc	r25, r31
    4fd8:	08 95       	ret

00004fda <fputc>:
    4fda:	0f 93       	push	r16
    4fdc:	1f 93       	push	r17
    4fde:	cf 93       	push	r28
    4fe0:	df 93       	push	r29
    4fe2:	fb 01       	movw	r30, r22
    4fe4:	23 81       	ldd	r18, Z+3	; 0x03
    4fe6:	21 fd       	sbrc	r18, 1
    4fe8:	03 c0       	rjmp	.+6      	; 0x4ff0 <fputc+0x16>
    4fea:	8f ef       	ldi	r24, 0xFF	; 255
    4fec:	9f ef       	ldi	r25, 0xFF	; 255
    4fee:	2c c0       	rjmp	.+88     	; 0x5048 <fputc+0x6e>
    4ff0:	22 ff       	sbrs	r18, 2
    4ff2:	16 c0       	rjmp	.+44     	; 0x5020 <fputc+0x46>
    4ff4:	46 81       	ldd	r20, Z+6	; 0x06
    4ff6:	57 81       	ldd	r21, Z+7	; 0x07
    4ff8:	24 81       	ldd	r18, Z+4	; 0x04
    4ffa:	35 81       	ldd	r19, Z+5	; 0x05
    4ffc:	42 17       	cp	r20, r18
    4ffe:	53 07       	cpc	r21, r19
    5000:	44 f4       	brge	.+16     	; 0x5012 <fputc+0x38>
    5002:	a0 81       	ld	r26, Z
    5004:	b1 81       	ldd	r27, Z+1	; 0x01
    5006:	9d 01       	movw	r18, r26
    5008:	2f 5f       	subi	r18, 0xFF	; 255
    500a:	3f 4f       	sbci	r19, 0xFF	; 255
    500c:	31 83       	std	Z+1, r19	; 0x01
    500e:	20 83       	st	Z, r18
    5010:	8c 93       	st	X, r24
    5012:	26 81       	ldd	r18, Z+6	; 0x06
    5014:	37 81       	ldd	r19, Z+7	; 0x07
    5016:	2f 5f       	subi	r18, 0xFF	; 255
    5018:	3f 4f       	sbci	r19, 0xFF	; 255
    501a:	37 83       	std	Z+7, r19	; 0x07
    501c:	26 83       	std	Z+6, r18	; 0x06
    501e:	14 c0       	rjmp	.+40     	; 0x5048 <fputc+0x6e>
    5020:	8b 01       	movw	r16, r22
    5022:	ec 01       	movw	r28, r24
    5024:	fb 01       	movw	r30, r22
    5026:	00 84       	ldd	r0, Z+8	; 0x08
    5028:	f1 85       	ldd	r31, Z+9	; 0x09
    502a:	e0 2d       	mov	r30, r0
    502c:	09 95       	icall
    502e:	89 2b       	or	r24, r25
    5030:	e1 f6       	brne	.-72     	; 0x4fea <fputc+0x10>
    5032:	d8 01       	movw	r26, r16
    5034:	16 96       	adiw	r26, 0x06	; 6
    5036:	8d 91       	ld	r24, X+
    5038:	9c 91       	ld	r25, X
    503a:	17 97       	sbiw	r26, 0x07	; 7
    503c:	01 96       	adiw	r24, 0x01	; 1
    503e:	17 96       	adiw	r26, 0x07	; 7
    5040:	9c 93       	st	X, r25
    5042:	8e 93       	st	-X, r24
    5044:	16 97       	sbiw	r26, 0x06	; 6
    5046:	ce 01       	movw	r24, r28
    5048:	df 91       	pop	r29
    504a:	cf 91       	pop	r28
    504c:	1f 91       	pop	r17
    504e:	0f 91       	pop	r16
    5050:	08 95       	ret

00005052 <__ultoa_invert>:
    5052:	fa 01       	movw	r30, r20
    5054:	aa 27       	eor	r26, r26
    5056:	28 30       	cpi	r18, 0x08	; 8
    5058:	51 f1       	breq	.+84     	; 0x50ae <__ultoa_invert+0x5c>
    505a:	20 31       	cpi	r18, 0x10	; 16
    505c:	81 f1       	breq	.+96     	; 0x50be <__ultoa_invert+0x6c>
    505e:	e8 94       	clt
    5060:	6f 93       	push	r22
    5062:	6e 7f       	andi	r22, 0xFE	; 254
    5064:	6e 5f       	subi	r22, 0xFE	; 254
    5066:	7f 4f       	sbci	r23, 0xFF	; 255
    5068:	8f 4f       	sbci	r24, 0xFF	; 255
    506a:	9f 4f       	sbci	r25, 0xFF	; 255
    506c:	af 4f       	sbci	r26, 0xFF	; 255
    506e:	b1 e0       	ldi	r27, 0x01	; 1
    5070:	3e d0       	rcall	.+124    	; 0x50ee <__ultoa_invert+0x9c>
    5072:	b4 e0       	ldi	r27, 0x04	; 4
    5074:	3c d0       	rcall	.+120    	; 0x50ee <__ultoa_invert+0x9c>
    5076:	67 0f       	add	r22, r23
    5078:	78 1f       	adc	r23, r24
    507a:	89 1f       	adc	r24, r25
    507c:	9a 1f       	adc	r25, r26
    507e:	a1 1d       	adc	r26, r1
    5080:	68 0f       	add	r22, r24
    5082:	79 1f       	adc	r23, r25
    5084:	8a 1f       	adc	r24, r26
    5086:	91 1d       	adc	r25, r1
    5088:	a1 1d       	adc	r26, r1
    508a:	6a 0f       	add	r22, r26
    508c:	71 1d       	adc	r23, r1
    508e:	81 1d       	adc	r24, r1
    5090:	91 1d       	adc	r25, r1
    5092:	a1 1d       	adc	r26, r1
    5094:	20 d0       	rcall	.+64     	; 0x50d6 <__ultoa_invert+0x84>
    5096:	09 f4       	brne	.+2      	; 0x509a <__ultoa_invert+0x48>
    5098:	68 94       	set
    509a:	3f 91       	pop	r19
    509c:	2a e0       	ldi	r18, 0x0A	; 10
    509e:	26 9f       	mul	r18, r22
    50a0:	11 24       	eor	r1, r1
    50a2:	30 19       	sub	r19, r0
    50a4:	30 5d       	subi	r19, 0xD0	; 208
    50a6:	31 93       	st	Z+, r19
    50a8:	de f6       	brtc	.-74     	; 0x5060 <__ultoa_invert+0xe>
    50aa:	cf 01       	movw	r24, r30
    50ac:	08 95       	ret
    50ae:	46 2f       	mov	r20, r22
    50b0:	47 70       	andi	r20, 0x07	; 7
    50b2:	40 5d       	subi	r20, 0xD0	; 208
    50b4:	41 93       	st	Z+, r20
    50b6:	b3 e0       	ldi	r27, 0x03	; 3
    50b8:	0f d0       	rcall	.+30     	; 0x50d8 <__ultoa_invert+0x86>
    50ba:	c9 f7       	brne	.-14     	; 0x50ae <__ultoa_invert+0x5c>
    50bc:	f6 cf       	rjmp	.-20     	; 0x50aa <__ultoa_invert+0x58>
    50be:	46 2f       	mov	r20, r22
    50c0:	4f 70       	andi	r20, 0x0F	; 15
    50c2:	40 5d       	subi	r20, 0xD0	; 208
    50c4:	4a 33       	cpi	r20, 0x3A	; 58
    50c6:	18 f0       	brcs	.+6      	; 0x50ce <__ultoa_invert+0x7c>
    50c8:	49 5d       	subi	r20, 0xD9	; 217
    50ca:	31 fd       	sbrc	r19, 1
    50cc:	40 52       	subi	r20, 0x20	; 32
    50ce:	41 93       	st	Z+, r20
    50d0:	02 d0       	rcall	.+4      	; 0x50d6 <__ultoa_invert+0x84>
    50d2:	a9 f7       	brne	.-22     	; 0x50be <__ultoa_invert+0x6c>
    50d4:	ea cf       	rjmp	.-44     	; 0x50aa <__ultoa_invert+0x58>
    50d6:	b4 e0       	ldi	r27, 0x04	; 4
    50d8:	a6 95       	lsr	r26
    50da:	97 95       	ror	r25
    50dc:	87 95       	ror	r24
    50de:	77 95       	ror	r23
    50e0:	67 95       	ror	r22
    50e2:	ba 95       	dec	r27
    50e4:	c9 f7       	brne	.-14     	; 0x50d8 <__ultoa_invert+0x86>
    50e6:	00 97       	sbiw	r24, 0x00	; 0
    50e8:	61 05       	cpc	r22, r1
    50ea:	71 05       	cpc	r23, r1
    50ec:	08 95       	ret
    50ee:	9b 01       	movw	r18, r22
    50f0:	ac 01       	movw	r20, r24
    50f2:	0a 2e       	mov	r0, r26
    50f4:	06 94       	lsr	r0
    50f6:	57 95       	ror	r21
    50f8:	47 95       	ror	r20
    50fa:	37 95       	ror	r19
    50fc:	27 95       	ror	r18
    50fe:	ba 95       	dec	r27
    5100:	c9 f7       	brne	.-14     	; 0x50f4 <__ultoa_invert+0xa2>
    5102:	62 0f       	add	r22, r18
    5104:	73 1f       	adc	r23, r19
    5106:	84 1f       	adc	r24, r20
    5108:	95 1f       	adc	r25, r21
    510a:	a0 1d       	adc	r26, r0
    510c:	08 95       	ret

0000510e <_exit>:
    510e:	f8 94       	cli

00005110 <__stop_program>:
    5110:	ff cf       	rjmp	.-2      	; 0x5110 <__stop_program>
