
ImageCapture.elf:     file format elf32-avr

Sections:
Idx Name          Size      VMA       LMA       File off  Algn
  0 .data         00000000  00800100  00800100  00001a10  2**0
                  CONTENTS, ALLOC, LOAD, DATA
  1 .text         000019bc  00000000  00000000  00000054  2**1
                  CONTENTS, ALLOC, LOAD, READONLY, CODE
  2 .comment      00000030  00000000  00000000  00001a10  2**0
                  CONTENTS, READONLY
  3 .note.gnu.avr.deviceinfo 00000040  00000000  00000000  00001a40  2**2
                  CONTENTS, READONLY
  4 .debug_aranges 000000c8  00000000  00000000  00001a80  2**0
                  CONTENTS, READONLY, DEBUGGING
  5 .debug_info   00007787  00000000  00000000  00001b48  2**0
                  CONTENTS, READONLY, DEBUGGING
  6 .debug_abbrev 000009ef  00000000  00000000  000092cf  2**0
                  CONTENTS, READONLY, DEBUGGING
  7 .debug_line   00001ab5  00000000  00000000  00009cbe  2**0
                  CONTENTS, READONLY, DEBUGGING
  8 .debug_frame  000001e0  00000000  00000000  0000b774  2**2
                  CONTENTS, READONLY, DEBUGGING
  9 .debug_str    000005c7  00000000  00000000  0000b954  2**0
                  CONTENTS, READONLY, DEBUGGING
 10 .debug_loc    000005ba  00000000  00000000  0000bf1b  2**0
                  CONTENTS, READONLY, DEBUGGING
 11 .debug_ranges 000000e8  00000000  00000000  0000c4d5  2**0
                  CONTENTS, READONLY, DEBUGGING

Disassembly of section .text:

00000000 <__vectors>:
       0:	45 c0       	rjmp	.+138    	; 0x8c <__ctors_end>
       2:	00 00       	nop
       4:	5a c0       	rjmp	.+180    	; 0xba <__bad_interrupt>
       6:	00 00       	nop
       8:	58 c0       	rjmp	.+176    	; 0xba <__bad_interrupt>
       a:	00 00       	nop
       c:	56 c0       	rjmp	.+172    	; 0xba <__bad_interrupt>
       e:	00 00       	nop
      10:	54 c0       	rjmp	.+168    	; 0xba <__bad_interrupt>
      12:	00 00       	nop
      14:	52 c0       	rjmp	.+164    	; 0xba <__bad_interrupt>
      16:	00 00       	nop
      18:	50 c0       	rjmp	.+160    	; 0xba <__bad_interrupt>
      1a:	00 00       	nop
      1c:	4e c0       	rjmp	.+156    	; 0xba <__bad_interrupt>
      1e:	00 00       	nop
      20:	4c c0       	rjmp	.+152    	; 0xba <__bad_interrupt>
      22:	00 00       	nop
      24:	4a c0       	rjmp	.+148    	; 0xba <__bad_interrupt>
      26:	00 00       	nop
      28:	48 c0       	rjmp	.+144    	; 0xba <__bad_interrupt>
      2a:	00 00       	nop
      2c:	46 c0       	rjmp	.+140    	; 0xba <__bad_interrupt>
      2e:	00 00       	nop
      30:	44 c0       	rjmp	.+136    	; 0xba <__bad_interrupt>
      32:	00 00       	nop
      34:	42 c0       	rjmp	.+132    	; 0xba <__bad_interrupt>
      36:	00 00       	nop
      38:	40 c0       	rjmp	.+128    	; 0xba <__bad_interrupt>
      3a:	00 00       	nop
      3c:	3e c0       	rjmp	.+124    	; 0xba <__bad_interrupt>
      3e:	00 00       	nop
      40:	3c c0       	rjmp	.+120    	; 0xba <__bad_interrupt>
      42:	00 00       	nop
      44:	3a c0       	rjmp	.+116    	; 0xba <__bad_interrupt>
      46:	00 00       	nop
      48:	38 c0       	rjmp	.+112    	; 0xba <__bad_interrupt>
      4a:	00 00       	nop
      4c:	36 c0       	rjmp	.+108    	; 0xba <__bad_interrupt>
      4e:	00 00       	nop
      50:	34 c0       	rjmp	.+104    	; 0xba <__bad_interrupt>
      52:	00 00       	nop
      54:	32 c0       	rjmp	.+100    	; 0xba <__bad_interrupt>
      56:	00 00       	nop
      58:	30 c0       	rjmp	.+96     	; 0xba <__bad_interrupt>
      5a:	00 00       	nop
      5c:	2e c0       	rjmp	.+92     	; 0xba <__bad_interrupt>
      5e:	00 00       	nop
      60:	2c c0       	rjmp	.+88     	; 0xba <__bad_interrupt>
      62:	00 00       	nop
      64:	2a c0       	rjmp	.+84     	; 0xba <__bad_interrupt>
      66:	00 00       	nop
      68:	28 c0       	rjmp	.+80     	; 0xba <__bad_interrupt>
      6a:	00 00       	nop
      6c:	26 c0       	rjmp	.+76     	; 0xba <__bad_interrupt>
      6e:	00 00       	nop
      70:	24 c0       	rjmp	.+72     	; 0xba <__bad_interrupt>
      72:	00 00       	nop
      74:	22 c0       	rjmp	.+68     	; 0xba <__bad_interrupt>
      76:	00 00       	nop
      78:	20 c0       	rjmp	.+64     	; 0xba <__bad_interrupt>
      7a:	00 00       	nop
      7c:	1e c0       	rjmp	.+60     	; 0xba <__bad_interrupt>
      7e:	00 00       	nop
      80:	1c c0       	rjmp	.+56     	; 0xba <__bad_interrupt>
      82:	00 00       	nop
      84:	1a c0       	rjmp	.+52     	; 0xba <__bad_interrupt>
      86:	00 00       	nop
      88:	18 c0       	rjmp	.+48     	; 0xba <__bad_interrupt>
	...

0000008c <__ctors_end>:
      8c:	11 24       	eor	r1, r1
      8e:	1f be       	out	0x3f, r1	; 63
      90:	cf ef       	ldi	r28, 0xFF	; 255
      92:	d0 e4       	ldi	r29, 0x40	; 64
      94:	de bf       	out	0x3e, r29	; 62
      96:	cd bf       	out	0x3d, r28	; 61

00000098 <__do_copy_data>:
      98:	11 e0       	ldi	r17, 0x01	; 1
      9a:	a0 e0       	ldi	r26, 0x00	; 0
      9c:	b1 e0       	ldi	r27, 0x01	; 1
      9e:	ec eb       	ldi	r30, 0xBC	; 188
      a0:	f9 e1       	ldi	r31, 0x19	; 25
      a2:	00 e0       	ldi	r16, 0x00	; 0
      a4:	0b bf       	out	0x3b, r16	; 59
      a6:	02 c0       	rjmp	.+4      	; 0xac <__do_copy_data+0x14>
      a8:	07 90       	elpm	r0, Z+
      aa:	0d 92       	st	X+, r0
      ac:	a0 30       	cpi	r26, 0x00	; 0
      ae:	b1 07       	cpc	r27, r17
      b0:	d9 f7       	brne	.-10     	; 0xa8 <__do_copy_data+0x10>
      b2:	0e 94 cb 0c 	call	0x1996	; 0x1996 <main>
      b6:	0c 94 dc 0c 	jmp	0x19b8	; 0x19b8 <_exit>

000000ba <__bad_interrupt>:
      ba:	a2 cf       	rjmp	.-188    	; 0x0 <__vectors>

000000bc <spi_master_init>:


	}
	 if(m > 0 ) {}//Write the left image data to file from buffer
	 //outFile.write( buf, m );m = 0;
}
      bc:	94 b1       	in	r25, 0x04	; 4
      be:	90 61       	ori	r25, 0x10	; 16
      c0:	94 b9       	out	0x04, r25	; 4
      c2:	95 b1       	in	r25, 0x05	; 5
      c4:	90 61       	ori	r25, 0x10	; 16
      c6:	95 b9       	out	0x05, r25	; 5
      c8:	94 b1       	in	r25, 0x04	; 4
      ca:	94 60       	ori	r25, 0x04	; 4
      cc:	94 b9       	out	0x04, r25	; 4
      ce:	95 b1       	in	r25, 0x05	; 5
      d0:	94 60       	ori	r25, 0x04	; 4
      d2:	95 b9       	out	0x05, r25	; 5
      d4:	94 b1       	in	r25, 0x04	; 4
      d6:	90 6a       	ori	r25, 0xA0	; 160
      d8:	94 b9       	out	0x04, r25	; 4
      da:	90 e0       	ldi	r25, 0x00	; 0
      dc:	88 0f       	add	r24, r24
      de:	99 1f       	adc	r25, r25
      e0:	88 0f       	add	r24, r24
      e2:	99 1f       	adc	r25, r25
      e4:	86 2b       	or	r24, r22
      e6:	80 6d       	ori	r24, 0xD0	; 208
      e8:	8c bd       	out	0x2c, r24	; 44
      ea:	08 95       	ret

000000ec <readSPI>:
      ec:	95 b1       	in	r25, 0x05	; 5
      ee:	9b 7f       	andi	r25, 0xFB	; 251
      f0:	95 b9       	out	0x05, r25	; 5
      f2:	8e bd       	out	0x2e, r24	; 46
      f4:	0d b4       	in	r0, 0x2d	; 45
      f6:	07 fe       	sbrs	r0, 7
      f8:	fd cf       	rjmp	.-6      	; 0xf4 <readSPI+0x8>
      fa:	1e bc       	out	0x2e, r1	; 46
      fc:	0d b4       	in	r0, 0x2d	; 45
      fe:	07 fe       	sbrs	r0, 7
     100:	fd cf       	rjmp	.-6      	; 0xfc <readSPI+0x10>
     102:	8e b5       	in	r24, 0x2e	; 46
     104:	95 b1       	in	r25, 0x05	; 5
     106:	94 60       	ori	r25, 0x04	; 4
     108:	95 b9       	out	0x05, r25	; 5
     10a:	08 95       	ret

0000010c <writeSPI>:
     10c:	95 b1       	in	r25, 0x05	; 5
     10e:	9b 7f       	andi	r25, 0xFB	; 251
     110:	95 b9       	out	0x05, r25	; 5
     112:	8e bd       	out	0x2e, r24	; 46
     114:	0d b4       	in	r0, 0x2d	; 45
     116:	07 fe       	sbrs	r0, 7
     118:	fd cf       	rjmp	.-6      	; 0x114 <writeSPI+0x8>
     11a:	6e bd       	out	0x2e, r22	; 46
     11c:	0d b4       	in	r0, 0x2d	; 45
     11e:	07 fe       	sbrs	r0, 7
     120:	fd cf       	rjmp	.-6      	; 0x11c <writeSPI+0x10>
     122:	85 b1       	in	r24, 0x05	; 5
     124:	84 60       	ori	r24, 0x04	; 4
     126:	85 b9       	out	0x05, r24	; 5
     128:	08 95       	ret

0000012a <startCapture>:
     12a:	61 e0       	ldi	r22, 0x01	; 1
     12c:	84 e8       	ldi	r24, 0x84	; 132
     12e:	ee df       	rcall	.-36     	; 0x10c <writeSPI>
     130:	61 e0       	ldi	r22, 0x01	; 1
     132:	84 e8       	ldi	r24, 0x84	; 132
     134:	eb df       	rcall	.-42     	; 0x10c <writeSPI>
     136:	60 e1       	ldi	r22, 0x10	; 16
     138:	84 e8       	ldi	r24, 0x84	; 132
     13a:	e8 df       	rcall	.-48     	; 0x10c <writeSPI>
     13c:	60 e2       	ldi	r22, 0x20	; 32
     13e:	84 e8       	ldi	r24, 0x84	; 132
     140:	e5 df       	rcall	.-54     	; 0x10c <writeSPI>
     142:	2f e3       	ldi	r18, 0x3F	; 63
     144:	8d e0       	ldi	r24, 0x0D	; 13
     146:	93 e0       	ldi	r25, 0x03	; 3
     148:	21 50       	subi	r18, 0x01	; 1
     14a:	80 40       	sbci	r24, 0x00	; 0
     14c:	90 40       	sbci	r25, 0x00	; 0
     14e:	e1 f7       	brne	.-8      	; 0x148 <startCapture+0x1e>
     150:	00 c0       	rjmp	.+0      	; 0x152 <startCapture+0x28>
     152:	00 00       	nop
     154:	62 e0       	ldi	r22, 0x02	; 2
     156:	84 e8       	ldi	r24, 0x84	; 132
     158:	d9 df       	rcall	.-78     	; 0x10c <writeSPI>
     15a:	81 e4       	ldi	r24, 0x41	; 65
     15c:	c7 df       	rcall	.-114    	; 0xec <readSPI>
     15e:	83 ff       	sbrs	r24, 3
     160:	fc cf       	rjmp	.-8      	; 0x15a <startCapture+0x30>
     162:	83 ec       	ldi	r24, 0xC3	; 195
     164:	99 e0       	ldi	r25, 0x09	; 9
     166:	01 97       	sbiw	r24, 0x01	; 1
     168:	f1 f7       	brne	.-4      	; 0x166 <startCapture+0x3c>
     16a:	00 c0       	rjmp	.+0      	; 0x16c <startCapture+0x42>
     16c:	00 00       	nop
     16e:	08 95       	ret

00000170 <i2c_init>:
     170:	10 92 b9 00 	sts	0x00B9, r1	; 0x8000b9 <__TEXT_REGION_LENGTH__+0x7e00b9>
     174:	8c e0       	ldi	r24, 0x0C	; 12
     176:	80 93 b8 00 	sts	0x00B8, r24	; 0x8000b8 <__TEXT_REGION_LENGTH__+0x7e00b8>
     17a:	08 95       	ret

0000017c <i2c_start>:
     17c:	94 ea       	ldi	r25, 0xA4	; 164
     17e:	90 93 bc 00 	sts	0x00BC, r25	; 0x8000bc <__TEXT_REGION_LENGTH__+0x7e00bc>
     182:	90 91 bc 00 	lds	r25, 0x00BC	; 0x8000bc <__TEXT_REGION_LENGTH__+0x7e00bc>
     186:	99 23       	and	r25, r25
     188:	e4 f7       	brge	.-8      	; 0x182 <i2c_start+0x6>
     18a:	90 91 b9 00 	lds	r25, 0x00B9	; 0x8000b9 <__TEXT_REGION_LENGTH__+0x7e00b9>
     18e:	98 7f       	andi	r25, 0xF8	; 248
     190:	98 30       	cpi	r25, 0x08	; 8
     192:	11 f0       	breq	.+4      	; 0x198 <i2c_start+0x1c>
     194:	90 31       	cpi	r25, 0x10	; 16
     196:	91 f4       	brne	.+36     	; 0x1bc <i2c_start+0x40>
     198:	80 93 bb 00 	sts	0x00BB, r24	; 0x8000bb <__TEXT_REGION_LENGTH__+0x7e00bb>
     19c:	84 e8       	ldi	r24, 0x84	; 132
     19e:	80 93 bc 00 	sts	0x00BC, r24	; 0x8000bc <__TEXT_REGION_LENGTH__+0x7e00bc>
     1a2:	80 91 bc 00 	lds	r24, 0x00BC	; 0x8000bc <__TEXT_REGION_LENGTH__+0x7e00bc>
     1a6:	88 23       	and	r24, r24
     1a8:	e4 f7       	brge	.-8      	; 0x1a2 <i2c_start+0x26>
     1aa:	80 91 b9 00 	lds	r24, 0x00B9	; 0x8000b9 <__TEXT_REGION_LENGTH__+0x7e00b9>
     1ae:	88 7f       	andi	r24, 0xF8	; 248
     1b0:	88 31       	cpi	r24, 0x18	; 24
     1b2:	31 f0       	breq	.+12     	; 0x1c0 <i2c_start+0x44>
     1b4:	80 34       	cpi	r24, 0x40	; 64
     1b6:	31 f4       	brne	.+12     	; 0x1c4 <i2c_start+0x48>
     1b8:	80 e0       	ldi	r24, 0x00	; 0
     1ba:	08 95       	ret
     1bc:	81 e0       	ldi	r24, 0x01	; 1
     1be:	08 95       	ret
     1c0:	80 e0       	ldi	r24, 0x00	; 0
     1c2:	08 95       	ret
     1c4:	81 e0       	ldi	r24, 0x01	; 1
     1c6:	08 95       	ret

000001c8 <i2c_write>:
     1c8:	80 93 bb 00 	sts	0x00BB, r24	; 0x8000bb <__TEXT_REGION_LENGTH__+0x7e00bb>
     1cc:	84 e8       	ldi	r24, 0x84	; 132
     1ce:	80 93 bc 00 	sts	0x00BC, r24	; 0x8000bc <__TEXT_REGION_LENGTH__+0x7e00bc>
     1d2:	80 91 bc 00 	lds	r24, 0x00BC	; 0x8000bc <__TEXT_REGION_LENGTH__+0x7e00bc>
     1d6:	88 23       	and	r24, r24
     1d8:	e4 f7       	brge	.-8      	; 0x1d2 <i2c_write+0xa>
     1da:	80 91 b9 00 	lds	r24, 0x00B9	; 0x8000b9 <__TEXT_REGION_LENGTH__+0x7e00b9>
     1de:	88 7f       	andi	r24, 0xF8	; 248
     1e0:	88 32       	cpi	r24, 0x28	; 40
     1e2:	11 f0       	breq	.+4      	; 0x1e8 <i2c_write+0x20>
     1e4:	81 e0       	ldi	r24, 0x01	; 1
     1e6:	08 95       	ret
     1e8:	80 e0       	ldi	r24, 0x00	; 0
     1ea:	08 95       	ret

000001ec <sensor_set>:
     1ec:	1f 93       	push	r17
     1ee:	cf 93       	push	r28
     1f0:	df 93       	push	r29
     1f2:	18 2f       	mov	r17, r24
     1f4:	d6 2f       	mov	r29, r22
     1f6:	c4 2f       	mov	r28, r20
     1f8:	88 e7       	ldi	r24, 0x78	; 120
     1fa:	c0 df       	rcall	.-128    	; 0x17c <i2c_start>
     1fc:	81 2f       	mov	r24, r17
     1fe:	e4 df       	rcall	.-56     	; 0x1c8 <i2c_write>
     200:	8d 2f       	mov	r24, r29
     202:	e2 df       	rcall	.-60     	; 0x1c8 <i2c_write>
     204:	8c 2f       	mov	r24, r28
     206:	e0 df       	rcall	.-64     	; 0x1c8 <i2c_write>
     208:	df 91       	pop	r29
     20a:	cf 91       	pop	r28
     20c:	1f 91       	pop	r17
     20e:	08 95       	ret

00000210 <set_bit>:
     210:	cf 93       	push	r28
     212:	df 93       	push	r29
     214:	d8 2f       	mov	r29, r24
     216:	c6 2f       	mov	r28, r22
     218:	69 df       	rcall	.-302    	; 0xec <readSPI>
     21a:	68 2f       	mov	r22, r24
     21c:	6c 2b       	or	r22, r28
     21e:	8d 2f       	mov	r24, r29
     220:	80 68       	ori	r24, 0x80	; 128
     222:	74 df       	rcall	.-280    	; 0x10c <writeSPI>
     224:	df 91       	pop	r29
     226:	cf 91       	pop	r28
     228:	08 95       	ret

0000022a <reg_set_jpeg>:
     22a:	43 e9       	ldi	r20, 0x93	; 147
     22c:	63 e0       	ldi	r22, 0x03	; 3
     22e:	81 e3       	ldi	r24, 0x31	; 49
     230:	dd df       	rcall	.-70     	; 0x1ec <sensor_set>
     232:	42 e8       	ldi	r20, 0x82	; 130
     234:	68 e0       	ldi	r22, 0x08	; 8
     236:	80 e3       	ldi	r24, 0x30	; 48
     238:	d9 df       	rcall	.-78     	; 0x1ec <sensor_set>
     23a:	4f e7       	ldi	r20, 0x7F	; 127
     23c:	67 e1       	ldi	r22, 0x17	; 23
     23e:	80 e3       	ldi	r24, 0x30	; 48
     240:	d5 df       	rcall	.-86     	; 0x1ec <sensor_set>
     242:	4c ef       	ldi	r20, 0xFC	; 252
     244:	68 e1       	ldi	r22, 0x18	; 24
     246:	80 e3       	ldi	r24, 0x30	; 48
     248:	d1 df       	rcall	.-94     	; 0x1ec <sensor_set>
     24a:	42 ec       	ldi	r20, 0xC2	; 194
     24c:	60 e1       	ldi	r22, 0x10	; 16
     24e:	88 e3       	ldi	r24, 0x38	; 56
     250:	cd df       	rcall	.-102    	; 0x1ec <sensor_set>
     252:	40 ef       	ldi	r20, 0xF0	; 240
     254:	65 e1       	ldi	r22, 0x15	; 21
     256:	86 e3       	ldi	r24, 0x36	; 54
     258:	c9 df       	rcall	.-110    	; 0x1ec <sensor_set>
     25a:	40 e0       	ldi	r20, 0x00	; 0
     25c:	60 e0       	ldi	r22, 0x00	; 0
     25e:	80 e3       	ldi	r24, 0x30	; 48
     260:	c5 df       	rcall	.-118    	; 0x1ec <sensor_set>
     262:	40 e0       	ldi	r20, 0x00	; 0
     264:	61 e0       	ldi	r22, 0x01	; 1
     266:	80 e3       	ldi	r24, 0x30	; 48
     268:	c1 df       	rcall	.-126    	; 0x1ec <sensor_set>
     26a:	4c e5       	ldi	r20, 0x5C	; 92
     26c:	62 e0       	ldi	r22, 0x02	; 2
     26e:	80 e3       	ldi	r24, 0x30	; 48
     270:	bd df       	rcall	.-134    	; 0x1ec <sensor_set>
     272:	40 e0       	ldi	r20, 0x00	; 0
     274:	63 e0       	ldi	r22, 0x03	; 3
     276:	80 e3       	ldi	r24, 0x30	; 48
     278:	b9 df       	rcall	.-142    	; 0x1ec <sensor_set>
     27a:	4f ef       	ldi	r20, 0xFF	; 255
     27c:	64 e0       	ldi	r22, 0x04	; 4
     27e:	80 e3       	ldi	r24, 0x30	; 48
     280:	b5 df       	rcall	.-150    	; 0x1ec <sensor_set>
     282:	4f ef       	ldi	r20, 0xFF	; 255
     284:	65 e0       	ldi	r22, 0x05	; 5
     286:	80 e3       	ldi	r24, 0x30	; 48
     288:	b1 df       	rcall	.-158    	; 0x1ec <sensor_set>
     28a:	43 e4       	ldi	r20, 0x43	; 67
     28c:	66 e0       	ldi	r22, 0x06	; 6
     28e:	80 e3       	ldi	r24, 0x30	; 48
     290:	ad df       	rcall	.-166    	; 0x1ec <sensor_set>
     292:	47 e3       	ldi	r20, 0x37	; 55
     294:	67 e0       	ldi	r22, 0x07	; 7
     296:	80 e3       	ldi	r24, 0x30	; 48
     298:	a9 df       	rcall	.-174    	; 0x1ec <sensor_set>
     29a:	48 e0       	ldi	r20, 0x08	; 8
     29c:	61 e1       	ldi	r22, 0x11	; 17
     29e:	80 e3       	ldi	r24, 0x30	; 48
     2a0:	a5 df       	rcall	.-182    	; 0x1ec <sensor_set>
     2a2:	40 e1       	ldi	r20, 0x10	; 16
     2a4:	60 e1       	ldi	r22, 0x10	; 16
     2a6:	80 e3       	ldi	r24, 0x30	; 48
     2a8:	a1 df       	rcall	.-190    	; 0x1ec <sensor_set>
     2aa:	42 e2       	ldi	r20, 0x22	; 34
     2ac:	6c e0       	ldi	r22, 0x0C	; 12
     2ae:	86 e4       	ldi	r24, 0x46	; 70
     2b0:	9d df       	rcall	.-198    	; 0x1ec <sensor_set>
     2b2:	44 e0       	ldi	r20, 0x04	; 4
     2b4:	65 e1       	ldi	r22, 0x15	; 21
     2b6:	88 e3       	ldi	r24, 0x38	; 56
     2b8:	99 df       	rcall	.-206    	; 0x1ec <sensor_set>
     2ba:	40 ea       	ldi	r20, 0xA0	; 160
     2bc:	6c e0       	ldi	r22, 0x0C	; 12
     2be:	87 e3       	ldi	r24, 0x37	; 55
     2c0:	95 df       	rcall	.-214    	; 0x1ec <sensor_set>
     2c2:	4c ef       	ldi	r20, 0xFC	; 252
     2c4:	62 e0       	ldi	r22, 0x02	; 2
     2c6:	86 e3       	ldi	r24, 0x36	; 54
     2c8:	91 df       	rcall	.-222    	; 0x1ec <sensor_set>
     2ca:	4f ef       	ldi	r20, 0xFF	; 255
     2cc:	62 e1       	ldi	r22, 0x12	; 18
     2ce:	86 e3       	ldi	r24, 0x36	; 54
     2d0:	8d df       	rcall	.-230    	; 0x1ec <sensor_set>
     2d2:	40 ec       	ldi	r20, 0xC0	; 192
     2d4:	64 e3       	ldi	r22, 0x34	; 52
     2d6:	86 e3       	ldi	r24, 0x36	; 54
     2d8:	89 df       	rcall	.-238    	; 0x1ec <sensor_set>
     2da:	40 e0       	ldi	r20, 0x00	; 0
     2dc:	63 e1       	ldi	r22, 0x13	; 19
     2de:	86 e3       	ldi	r24, 0x36	; 54
     2e0:	85 df       	rcall	.-246    	; 0x1ec <sensor_set>
     2e2:	4c e7       	ldi	r20, 0x7C	; 124
     2e4:	65 e0       	ldi	r22, 0x05	; 5
     2e6:	86 e3       	ldi	r24, 0x36	; 54
     2e8:	81 df       	rcall	.-254    	; 0x1ec <sensor_set>
     2ea:	49 e0       	ldi	r20, 0x09	; 9
     2ec:	61 e2       	ldi	r22, 0x21	; 33
     2ee:	86 e3       	ldi	r24, 0x36	; 54
     2f0:	7d df       	rcall	.-262    	; 0x1ec <sensor_set>
     2f2:	40 e6       	ldi	r20, 0x60	; 96
     2f4:	62 e2       	ldi	r22, 0x22	; 34
     2f6:	86 e3       	ldi	r24, 0x36	; 54
     2f8:	79 df       	rcall	.-270    	; 0x1ec <sensor_set>
     2fa:	40 e4       	ldi	r20, 0x40	; 64
     2fc:	64 e0       	ldi	r22, 0x04	; 4
     2fe:	86 e3       	ldi	r24, 0x36	; 54
     300:	75 df       	rcall	.-278    	; 0x1ec <sensor_set>
     302:	47 ea       	ldi	r20, 0xA7	; 167
     304:	63 e0       	ldi	r22, 0x03	; 3
     306:	86 e3       	ldi	r24, 0x36	; 54
     308:	71 df       	rcall	.-286    	; 0x1ec <sensor_set>
     30a:	47 e2       	ldi	r20, 0x27	; 39
     30c:	63 e0       	ldi	r22, 0x03	; 3
     30e:	86 e3       	ldi	r24, 0x36	; 54
     310:	6d df       	rcall	.-294    	; 0x1ec <sensor_set>
     312:	41 e2       	ldi	r20, 0x21	; 33
     314:	60 e0       	ldi	r22, 0x00	; 0
     316:	80 e4       	ldi	r24, 0x40	; 64
     318:	69 df       	rcall	.-302    	; 0x1ec <sensor_set>
     31a:	42 e2       	ldi	r20, 0x22	; 34
     31c:	6d e1       	ldi	r22, 0x1D	; 29
     31e:	80 e4       	ldi	r24, 0x40	; 64
     320:	65 df       	rcall	.-310    	; 0x1ec <sensor_set>
     322:	44 e5       	ldi	r20, 0x54	; 84
     324:	60 e0       	ldi	r22, 0x00	; 0
     326:	86 e3       	ldi	r24, 0x36	; 54
     328:	61 df       	rcall	.-318    	; 0x1ec <sensor_set>
     32a:	44 e0       	ldi	r20, 0x04	; 4
     32c:	65 e0       	ldi	r22, 0x05	; 5
     32e:	86 e3       	ldi	r24, 0x36	; 54
     330:	5d df       	rcall	.-326    	; 0x1ec <sensor_set>
     332:	4f e3       	ldi	r20, 0x3F	; 63
     334:	66 e0       	ldi	r22, 0x06	; 6
     336:	86 e3       	ldi	r24, 0x36	; 54
     338:	59 df       	rcall	.-334    	; 0x1ec <sensor_set>
     33a:	40 e8       	ldi	r20, 0x80	; 128
     33c:	61 e0       	ldi	r22, 0x01	; 1
     33e:	8c e3       	ldi	r24, 0x3C	; 60
     340:	55 df       	rcall	.-342    	; 0x1ec <sensor_set>
     342:	4f e4       	ldi	r20, 0x4F	; 79
     344:	60 e0       	ldi	r22, 0x00	; 0
     346:	80 e5       	ldi	r24, 0x50	; 80
     348:	51 df       	rcall	.-350    	; 0x1ec <sensor_set>
     34a:	44 e0       	ldi	r20, 0x04	; 4
     34c:	60 e2       	ldi	r22, 0x20	; 32
     34e:	80 e5       	ldi	r24, 0x50	; 80
     350:	4d df       	rcall	.-358    	; 0x1ec <sensor_set>
     352:	49 e7       	ldi	r20, 0x79	; 121
     354:	61 e8       	ldi	r22, 0x81	; 129
     356:	81 e5       	ldi	r24, 0x51	; 81
     358:	49 df       	rcall	.-366    	; 0x1ec <sensor_set>
     35a:	40 e0       	ldi	r20, 0x00	; 0
     35c:	62 e8       	ldi	r22, 0x82	; 130
     35e:	81 e5       	ldi	r24, 0x51	; 81
     360:	45 df       	rcall	.-374    	; 0x1ec <sensor_set>
     362:	42 e2       	ldi	r20, 0x22	; 34
     364:	65 e8       	ldi	r22, 0x85	; 133
     366:	81 e5       	ldi	r24, 0x51	; 81
     368:	41 df       	rcall	.-382    	; 0x1ec <sensor_set>
     36a:	41 e0       	ldi	r20, 0x01	; 1
     36c:	67 e9       	ldi	r22, 0x97	; 151
     36e:	81 e5       	ldi	r24, 0x51	; 81
     370:	3d df       	rcall	.-390    	; 0x1ec <sensor_set>
     372:	4f ef       	ldi	r20, 0xFF	; 255
     374:	61 e0       	ldi	r22, 0x01	; 1
     376:	80 e5       	ldi	r24, 0x50	; 80
     378:	39 df       	rcall	.-398    	; 0x1ec <sensor_set>
     37a:	4a e0       	ldi	r20, 0x0A	; 10
     37c:	60 e0       	ldi	r22, 0x00	; 0
     37e:	85 e5       	ldi	r24, 0x55	; 85
     380:	35 df       	rcall	.-406    	; 0x1ec <sensor_set>
     382:	40 e0       	ldi	r20, 0x00	; 0
     384:	64 e0       	ldi	r22, 0x04	; 4
     386:	85 e5       	ldi	r24, 0x55	; 85
     388:	31 df       	rcall	.-414    	; 0x1ec <sensor_set>
     38a:	4f e7       	ldi	r20, 0x7F	; 127
     38c:	65 e0       	ldi	r22, 0x05	; 5
     38e:	85 e5       	ldi	r24, 0x55	; 85
     390:	2d df       	rcall	.-422    	; 0x1ec <sensor_set>
     392:	48 e0       	ldi	r20, 0x08	; 8
     394:	60 e8       	ldi	r22, 0x80	; 128
     396:	80 e5       	ldi	r24, 0x50	; 80
     398:	29 df       	rcall	.-430    	; 0x1ec <sensor_set>
     39a:	48 e1       	ldi	r20, 0x18	; 24
     39c:	6e e0       	ldi	r22, 0x0E	; 14
     39e:	80 e3       	ldi	r24, 0x30	; 48
     3a0:	25 df       	rcall	.-438    	; 0x1ec <sensor_set>
     3a2:	40 e0       	ldi	r20, 0x00	; 0
     3a4:	60 e1       	ldi	r22, 0x10	; 16
     3a6:	86 e4       	ldi	r24, 0x46	; 70
     3a8:	21 df       	rcall	.-446    	; 0x1ec <sensor_set>
     3aa:	45 e0       	ldi	r20, 0x05	; 5
     3ac:	6d e1       	ldi	r22, 0x1D	; 29
     3ae:	87 e4       	ldi	r24, 0x47	; 71
     3b0:	1d df       	rcall	.-454    	; 0x1ec <sensor_set>
     3b2:	46 e0       	ldi	r20, 0x06	; 6
     3b4:	68 e0       	ldi	r22, 0x08	; 8
     3b6:	87 e4       	ldi	r24, 0x47	; 71
     3b8:	19 df       	rcall	.-462    	; 0x1ec <sensor_set>
     3ba:	42 e0       	ldi	r20, 0x02	; 2
     3bc:	68 e0       	ldi	r22, 0x08	; 8
     3be:	88 e3       	ldi	r24, 0x38	; 56
     3c0:	15 df       	rcall	.-470    	; 0x1ec <sensor_set>
     3c2:	40 e8       	ldi	r20, 0x80	; 128
     3c4:	69 e0       	ldi	r22, 0x09	; 9
     3c6:	88 e3       	ldi	r24, 0x38	; 56
     3c8:	11 df       	rcall	.-478    	; 0x1ec <sensor_set>
     3ca:	41 e0       	ldi	r20, 0x01	; 1
     3cc:	6a e0       	ldi	r22, 0x0A	; 10
     3ce:	88 e3       	ldi	r24, 0x38	; 56
     3d0:	0d df       	rcall	.-486    	; 0x1ec <sensor_set>
     3d2:	40 ee       	ldi	r20, 0xE0	; 224
     3d4:	6b e0       	ldi	r22, 0x0B	; 11
     3d6:	88 e3       	ldi	r24, 0x38	; 56
     3d8:	09 df       	rcall	.-494    	; 0x1ec <sensor_set>
     3da:	47 e0       	ldi	r20, 0x07	; 7
     3dc:	6e e0       	ldi	r22, 0x0E	; 14
     3de:	88 e3       	ldi	r24, 0x38	; 56
     3e0:	05 df       	rcall	.-502    	; 0x1ec <sensor_set>
     3e2:	40 ed       	ldi	r20, 0xD0	; 208
     3e4:	6f e0       	ldi	r22, 0x0F	; 15
     3e6:	88 e3       	ldi	r24, 0x38	; 56
     3e8:	01 df       	rcall	.-510    	; 0x1ec <sensor_set>
     3ea:	40 e0       	ldi	r20, 0x00	; 0
     3ec:	6f e1       	ldi	r22, 0x1F	; 31
     3ee:	80 e5       	ldi	r24, 0x50	; 80
     3f0:	fd de       	rcall	.-518    	; 0x1ec <sensor_set>
     3f2:	4f e4       	ldi	r20, 0x4F	; 79
     3f4:	60 e0       	ldi	r22, 0x00	; 0
     3f6:	80 e5       	ldi	r24, 0x50	; 80
     3f8:	f9 de       	rcall	.-526    	; 0x1ec <sensor_set>
     3fa:	40 e3       	ldi	r20, 0x30	; 48
     3fc:	60 e0       	ldi	r22, 0x00	; 0
     3fe:	83 e4       	ldi	r24, 0x43	; 67
     400:	f5 de       	rcall	.-534    	; 0x1ec <sensor_set>
     402:	47 e0       	ldi	r20, 0x07	; 7
     404:	63 e0       	ldi	r22, 0x03	; 3
     406:	85 e3       	ldi	r24, 0x35	; 53
     408:	f1 de       	rcall	.-542    	; 0x1ec <sensor_set>
     40a:	43 e7       	ldi	r20, 0x73	; 115
     40c:	61 e0       	ldi	r22, 0x01	; 1
     40e:	85 e3       	ldi	r24, 0x35	; 53
     410:	ed de       	rcall	.-550    	; 0x1ec <sensor_set>
     412:	40 e8       	ldi	r20, 0x80	; 128
     414:	62 e0       	ldi	r22, 0x02	; 2
     416:	85 e3       	ldi	r24, 0x35	; 53
     418:	e9 de       	rcall	.-558    	; 0x1ec <sensor_set>
     41a:	40 e0       	ldi	r20, 0x00	; 0
     41c:	6b e0       	ldi	r22, 0x0B	; 11
     41e:	85 e3       	ldi	r24, 0x35	; 53
     420:	e5 de       	rcall	.-566    	; 0x1ec <sensor_set>
     422:	47 e0       	ldi	r20, 0x07	; 7
     424:	63 e0       	ldi	r22, 0x03	; 3
     426:	85 e3       	ldi	r24, 0x35	; 53
     428:	e1 de       	rcall	.-574    	; 0x1ec <sensor_set>
     42a:	41 e1       	ldi	r20, 0x11	; 17
     42c:	64 e2       	ldi	r22, 0x24	; 36
     42e:	88 e3       	ldi	r24, 0x38	; 56
     430:	dd de       	rcall	.-582    	; 0x1ec <sensor_set>
     432:	4e e1       	ldi	r20, 0x1E	; 30
     434:	61 e0       	ldi	r22, 0x01	; 1
     436:	85 e3       	ldi	r24, 0x35	; 53
     438:	d9 de       	rcall	.-590    	; 0x1ec <sensor_set>
     43a:	40 e8       	ldi	r20, 0x80	; 128
     43c:	62 e0       	ldi	r22, 0x02	; 2
     43e:	85 e3       	ldi	r24, 0x35	; 53
     440:	d5 de       	rcall	.-598    	; 0x1ec <sensor_set>
     442:	4f e7       	ldi	r20, 0x7F	; 127
     444:	6b e0       	ldi	r22, 0x0B	; 11
     446:	85 e3       	ldi	r24, 0x35	; 53
     448:	d1 de       	rcall	.-606    	; 0x1ec <sensor_set>
     44a:	4c e0       	ldi	r20, 0x0C	; 12
     44c:	6c e0       	ldi	r22, 0x0C	; 12
     44e:	88 e3       	ldi	r24, 0x38	; 56
     450:	cd de       	rcall	.-614    	; 0x1ec <sensor_set>
     452:	40 e8       	ldi	r20, 0x80	; 128
     454:	6d e0       	ldi	r22, 0x0D	; 13
     456:	88 e3       	ldi	r24, 0x38	; 56
     458:	c9 de       	rcall	.-622    	; 0x1ec <sensor_set>
     45a:	43 e0       	ldi	r20, 0x03	; 3
     45c:	6e e0       	ldi	r22, 0x0E	; 14
     45e:	88 e3       	ldi	r24, 0x38	; 56
     460:	c5 de       	rcall	.-630    	; 0x1ec <sensor_set>
     462:	48 ee       	ldi	r20, 0xE8	; 232
     464:	6f e0       	ldi	r22, 0x0F	; 15
     466:	88 e3       	ldi	r24, 0x38	; 56
     468:	c1 de       	rcall	.-638    	; 0x1ec <sensor_set>
     46a:	44 e0       	ldi	r20, 0x04	; 4
     46c:	6d e0       	ldi	r22, 0x0D	; 13
     46e:	8a e3       	ldi	r24, 0x3A	; 58
     470:	bd de       	rcall	.-646    	; 0x1ec <sensor_set>
     472:	43 e0       	ldi	r20, 0x03	; 3
     474:	6e e0       	ldi	r22, 0x0E	; 14
     476:	8a e3       	ldi	r24, 0x3A	; 58
     478:	b9 de       	rcall	.-654    	; 0x1ec <sensor_set>
     47a:	41 ec       	ldi	r20, 0xC1	; 193
     47c:	68 e1       	ldi	r22, 0x18	; 24
     47e:	88 e3       	ldi	r24, 0x38	; 56
     480:	b5 de       	rcall	.-662    	; 0x1ec <sensor_set>
     482:	4b ed       	ldi	r20, 0xDB	; 219
     484:	65 e0       	ldi	r22, 0x05	; 5
     486:	87 e3       	ldi	r24, 0x37	; 55
     488:	b1 de       	rcall	.-670    	; 0x1ec <sensor_set>
     48a:	41 e8       	ldi	r20, 0x81	; 129
     48c:	6a e0       	ldi	r22, 0x0A	; 10
     48e:	87 e3       	ldi	r24, 0x37	; 55
     490:	ad de       	rcall	.-678    	; 0x1ec <sensor_set>
     492:	40 e8       	ldi	r20, 0x80	; 128
     494:	61 e0       	ldi	r22, 0x01	; 1
     496:	88 e3       	ldi	r24, 0x38	; 56
     498:	a9 de       	rcall	.-686    	; 0x1ec <sensor_set>
     49a:	47 e8       	ldi	r20, 0x87	; 135
     49c:	61 e2       	ldi	r22, 0x21	; 33
     49e:	86 e3       	ldi	r24, 0x36	; 54
     4a0:	a5 de       	rcall	.-694    	; 0x1ec <sensor_set>
     4a2:	40 e5       	ldi	r20, 0x50	; 80
     4a4:	61 e0       	ldi	r22, 0x01	; 1
     4a6:	88 e3       	ldi	r24, 0x38	; 56
     4a8:	a1 de       	rcall	.-702    	; 0x1ec <sensor_set>
     4aa:	48 e0       	ldi	r20, 0x08	; 8
     4ac:	63 e0       	ldi	r22, 0x03	; 3
     4ae:	88 e3       	ldi	r24, 0x38	; 56
     4b0:	9d de       	rcall	.-710    	; 0x1ec <sensor_set>
     4b2:	48 e0       	ldi	r20, 0x08	; 8
     4b4:	67 e2       	ldi	r22, 0x27	; 39
     4b6:	88 e3       	ldi	r24, 0x38	; 56
     4b8:	99 de       	rcall	.-718    	; 0x1ec <sensor_set>
     4ba:	40 e4       	ldi	r20, 0x40	; 64
     4bc:	60 e1       	ldi	r22, 0x10	; 16
     4be:	88 e3       	ldi	r24, 0x38	; 56
     4c0:	95 de       	rcall	.-726    	; 0x1ec <sensor_set>
     4c2:	45 e0       	ldi	r20, 0x05	; 5
     4c4:	64 e0       	ldi	r22, 0x04	; 4
     4c6:	88 e3       	ldi	r24, 0x38	; 56
     4c8:	91 de       	rcall	.-734    	; 0x1ec <sensor_set>
     4ca:	40 e0       	ldi	r20, 0x00	; 0
     4cc:	65 e0       	ldi	r22, 0x05	; 5
     4ce:	88 e3       	ldi	r24, 0x38	; 56
     4d0:	8d de       	rcall	.-742    	; 0x1ec <sensor_set>
     4d2:	45 e0       	ldi	r20, 0x05	; 5
     4d4:	62 e8       	ldi	r22, 0x82	; 130
     4d6:	86 e5       	ldi	r24, 0x56	; 86
     4d8:	89 de       	rcall	.-750    	; 0x1ec <sensor_set>
     4da:	40 e0       	ldi	r20, 0x00	; 0
     4dc:	63 e8       	ldi	r22, 0x83	; 131
     4de:	86 e5       	ldi	r24, 0x56	; 86
     4e0:	85 de       	rcall	.-758    	; 0x1ec <sensor_set>
     4e2:	43 e0       	ldi	r20, 0x03	; 3
     4e4:	66 e0       	ldi	r22, 0x06	; 6
     4e6:	88 e3       	ldi	r24, 0x38	; 56
     4e8:	81 de       	rcall	.-766    	; 0x1ec <sensor_set>
     4ea:	40 ec       	ldi	r20, 0xC0	; 192
     4ec:	67 e0       	ldi	r22, 0x07	; 7
     4ee:	88 e3       	ldi	r24, 0x38	; 56
     4f0:	7d de       	rcall	.-774    	; 0x1ec <sensor_set>
     4f2:	43 e0       	ldi	r20, 0x03	; 3
     4f4:	66 e8       	ldi	r22, 0x86	; 134
     4f6:	86 e5       	ldi	r24, 0x56	; 86
     4f8:	79 de       	rcall	.-782    	; 0x1ec <sensor_set>
     4fa:	4c eb       	ldi	r20, 0xBC	; 188
     4fc:	67 e8       	ldi	r22, 0x87	; 135
     4fe:	86 e5       	ldi	r24, 0x56	; 86
     500:	75 de       	rcall	.-790    	; 0x1ec <sensor_set>
     502:	48 e7       	ldi	r20, 0x78	; 120
     504:	60 e0       	ldi	r22, 0x00	; 0
     506:	8a e3       	ldi	r24, 0x3A	; 58
     508:	71 de       	rcall	.-798    	; 0x1ec <sensor_set>
     50a:	45 e0       	ldi	r20, 0x05	; 5
     50c:	6a e1       	ldi	r22, 0x1A	; 26
     50e:	8a e3       	ldi	r24, 0x3A	; 58
     510:	6d de       	rcall	.-806    	; 0x1ec <sensor_set>
     512:	40 e3       	ldi	r20, 0x30	; 48
     514:	63 e1       	ldi	r22, 0x13	; 19
     516:	8a e3       	ldi	r24, 0x3A	; 58
     518:	69 de       	rcall	.-814    	; 0x1ec <sensor_set>
     51a:	40 e0       	ldi	r20, 0x00	; 0
     51c:	68 e1       	ldi	r22, 0x18	; 24
     51e:	8a e3       	ldi	r24, 0x3A	; 58
     520:	65 de       	rcall	.-822    	; 0x1ec <sensor_set>
     522:	4c e7       	ldi	r20, 0x7C	; 124
     524:	69 e1       	ldi	r22, 0x19	; 25
     526:	8a e3       	ldi	r24, 0x3A	; 58
     528:	61 de       	rcall	.-830    	; 0x1ec <sensor_set>
     52a:	42 e1       	ldi	r20, 0x12	; 18
     52c:	68 e0       	ldi	r22, 0x08	; 8
     52e:	8a e3       	ldi	r24, 0x3A	; 58
     530:	5d de       	rcall	.-838    	; 0x1ec <sensor_set>
     532:	40 ec       	ldi	r20, 0xC0	; 192
     534:	69 e0       	ldi	r22, 0x09	; 9
     536:	8a e3       	ldi	r24, 0x3A	; 58
     538:	59 de       	rcall	.-846    	; 0x1ec <sensor_set>
     53a:	4f e0       	ldi	r20, 0x0F	; 15
     53c:	6a e0       	ldi	r22, 0x0A	; 10
     53e:	8a e3       	ldi	r24, 0x3A	; 58
     540:	55 de       	rcall	.-854    	; 0x1ec <sensor_set>
     542:	40 ea       	ldi	r20, 0xA0	; 160
     544:	6b e0       	ldi	r22, 0x0B	; 11
     546:	8a e3       	ldi	r24, 0x3A	; 58
     548:	51 de       	rcall	.-862    	; 0x1ec <sensor_set>
     54a:	47 e0       	ldi	r20, 0x07	; 7
     54c:	6c e0       	ldi	r22, 0x0C	; 12
     54e:	85 e3       	ldi	r24, 0x35	; 53
     550:	4d de       	rcall	.-870    	; 0x1ec <sensor_set>
     552:	40 ed       	ldi	r20, 0xD0	; 208
     554:	6d e0       	ldi	r22, 0x0D	; 13
     556:	85 e3       	ldi	r24, 0x35	; 53
     558:	49 de       	rcall	.-878    	; 0x1ec <sensor_set>
     55a:	40 e0       	ldi	r20, 0x00	; 0
     55c:	60 e0       	ldi	r22, 0x00	; 0
     55e:	85 e3       	ldi	r24, 0x35	; 53
     560:	45 de       	rcall	.-886    	; 0x1ec <sensor_set>
     562:	40 e0       	ldi	r20, 0x00	; 0
     564:	61 e0       	ldi	r22, 0x01	; 1
     566:	85 e3       	ldi	r24, 0x35	; 53
     568:	41 de       	rcall	.-894    	; 0x1ec <sensor_set>
     56a:	40 e0       	ldi	r20, 0x00	; 0
     56c:	62 e0       	ldi	r22, 0x02	; 2
     56e:	85 e3       	ldi	r24, 0x35	; 53
     570:	3d de       	rcall	.-902    	; 0x1ec <sensor_set>
     572:	40 e0       	ldi	r20, 0x00	; 0
     574:	6a e0       	ldi	r22, 0x0A	; 10
     576:	85 e3       	ldi	r24, 0x35	; 53
     578:	39 de       	rcall	.-910    	; 0x1ec <sensor_set>
     57a:	40 e0       	ldi	r20, 0x00	; 0
     57c:	6b e0       	ldi	r22, 0x0B	; 11
     57e:	85 e3       	ldi	r24, 0x35	; 53
     580:	35 de       	rcall	.-918    	; 0x1ec <sensor_set>
     582:	40 e0       	ldi	r20, 0x00	; 0
     584:	63 e0       	ldi	r22, 0x03	; 3
     586:	85 e3       	ldi	r24, 0x35	; 53
     588:	31 de       	rcall	.-926    	; 0x1ec <sensor_set>
     58a:	42 e0       	ldi	r20, 0x02	; 2
     58c:	6a e8       	ldi	r22, 0x8A	; 138
     58e:	82 e5       	ldi	r24, 0x52	; 82
     590:	2d de       	rcall	.-934    	; 0x1ec <sensor_set>
     592:	44 e0       	ldi	r20, 0x04	; 4
     594:	6b e8       	ldi	r22, 0x8B	; 139
     596:	82 e5       	ldi	r24, 0x52	; 82
     598:	29 de       	rcall	.-942    	; 0x1ec <sensor_set>
     59a:	48 e0       	ldi	r20, 0x08	; 8
     59c:	6c e8       	ldi	r22, 0x8C	; 140
     59e:	82 e5       	ldi	r24, 0x52	; 82
     5a0:	25 de       	rcall	.-950    	; 0x1ec <sensor_set>
     5a2:	48 e0       	ldi	r20, 0x08	; 8
     5a4:	6d e8       	ldi	r22, 0x8D	; 141
     5a6:	82 e5       	ldi	r24, 0x52	; 82
     5a8:	21 de       	rcall	.-958    	; 0x1ec <sensor_set>
     5aa:	48 e0       	ldi	r20, 0x08	; 8
     5ac:	6e e8       	ldi	r22, 0x8E	; 142
     5ae:	82 e5       	ldi	r24, 0x52	; 82
     5b0:	1d de       	rcall	.-966    	; 0x1ec <sensor_set>
     5b2:	40 e1       	ldi	r20, 0x10	; 16
     5b4:	6f e8       	ldi	r22, 0x8F	; 143
     5b6:	82 e5       	ldi	r24, 0x52	; 82
     5b8:	19 de       	rcall	.-974    	; 0x1ec <sensor_set>
     5ba:	40 e1       	ldi	r20, 0x10	; 16
     5bc:	60 e9       	ldi	r22, 0x90	; 144
     5be:	82 e5       	ldi	r24, 0x52	; 82
     5c0:	15 de       	rcall	.-982    	; 0x1ec <sensor_set>
     5c2:	40 e0       	ldi	r20, 0x00	; 0
     5c4:	62 e9       	ldi	r22, 0x92	; 146
     5c6:	82 e5       	ldi	r24, 0x52	; 82
     5c8:	11 de       	rcall	.-990    	; 0x1ec <sensor_set>
     5ca:	42 e0       	ldi	r20, 0x02	; 2
     5cc:	63 e9       	ldi	r22, 0x93	; 147
     5ce:	82 e5       	ldi	r24, 0x52	; 82
     5d0:	0d de       	rcall	.-998    	; 0x1ec <sensor_set>
     5d2:	40 e0       	ldi	r20, 0x00	; 0
     5d4:	64 e9       	ldi	r22, 0x94	; 148
     5d6:	82 e5       	ldi	r24, 0x52	; 82
     5d8:	09 de       	rcall	.-1006   	; 0x1ec <sensor_set>
     5da:	42 e0       	ldi	r20, 0x02	; 2
     5dc:	65 e9       	ldi	r22, 0x95	; 149
     5de:	82 e5       	ldi	r24, 0x52	; 82
     5e0:	05 de       	rcall	.-1014   	; 0x1ec <sensor_set>
     5e2:	40 e0       	ldi	r20, 0x00	; 0
     5e4:	66 e9       	ldi	r22, 0x96	; 150
     5e6:	82 e5       	ldi	r24, 0x52	; 82
     5e8:	01 de       	rcall	.-1022   	; 0x1ec <sensor_set>
     5ea:	42 e0       	ldi	r20, 0x02	; 2
     5ec:	67 e9       	ldi	r22, 0x97	; 151
     5ee:	82 e5       	ldi	r24, 0x52	; 82
     5f0:	fd dd       	rcall	.-1030   	; 0x1ec <sensor_set>
     5f2:	40 e0       	ldi	r20, 0x00	; 0
     5f4:	68 e9       	ldi	r22, 0x98	; 152
     5f6:	82 e5       	ldi	r24, 0x52	; 82
     5f8:	f9 dd       	rcall	.-1038   	; 0x1ec <sensor_set>
     5fa:	42 e0       	ldi	r20, 0x02	; 2
     5fc:	69 e9       	ldi	r22, 0x99	; 153
     5fe:	82 e5       	ldi	r24, 0x52	; 82
     600:	f5 dd       	rcall	.-1046   	; 0x1ec <sensor_set>
     602:	40 e0       	ldi	r20, 0x00	; 0
     604:	6a e9       	ldi	r22, 0x9A	; 154
     606:	82 e5       	ldi	r24, 0x52	; 82
     608:	f1 dd       	rcall	.-1054   	; 0x1ec <sensor_set>
     60a:	42 e0       	ldi	r20, 0x02	; 2
     60c:	6b e9       	ldi	r22, 0x9B	; 155
     60e:	82 e5       	ldi	r24, 0x52	; 82
     610:	ed dd       	rcall	.-1062   	; 0x1ec <sensor_set>
     612:	40 e0       	ldi	r20, 0x00	; 0
     614:	6c e9       	ldi	r22, 0x9C	; 156
     616:	82 e5       	ldi	r24, 0x52	; 82
     618:	e9 dd       	rcall	.-1070   	; 0x1ec <sensor_set>
     61a:	42 e0       	ldi	r20, 0x02	; 2
     61c:	6d e9       	ldi	r22, 0x9D	; 157
     61e:	82 e5       	ldi	r24, 0x52	; 82
     620:	e5 dd       	rcall	.-1078   	; 0x1ec <sensor_set>
     622:	40 e0       	ldi	r20, 0x00	; 0
     624:	6e e9       	ldi	r22, 0x9E	; 158
     626:	82 e5       	ldi	r24, 0x52	; 82
     628:	e1 dd       	rcall	.-1086   	; 0x1ec <sensor_set>
     62a:	42 e0       	ldi	r20, 0x02	; 2
     62c:	6f e9       	ldi	r22, 0x9F	; 159
     62e:	82 e5       	ldi	r24, 0x52	; 82
     630:	dd dd       	rcall	.-1094   	; 0x1ec <sensor_set>
     632:	4b e0       	ldi	r20, 0x0B	; 11
     634:	60 e3       	ldi	r22, 0x30	; 48
     636:	80 e3       	ldi	r24, 0x30	; 48
     638:	d9 dd       	rcall	.-1102   	; 0x1ec <sensor_set>
     63a:	40 e0       	ldi	r20, 0x00	; 0
     63c:	62 e0       	ldi	r22, 0x02	; 2
     63e:	8a e3       	ldi	r24, 0x3A	; 58
     640:	d5 dd       	rcall	.-1110   	; 0x1ec <sensor_set>
     642:	4d e7       	ldi	r20, 0x7D	; 125
     644:	63 e0       	ldi	r22, 0x03	; 3
     646:	8a e3       	ldi	r24, 0x3A	; 58
     648:	d1 dd       	rcall	.-1118   	; 0x1ec <sensor_set>
     64a:	40 e0       	ldi	r20, 0x00	; 0
     64c:	64 e0       	ldi	r22, 0x04	; 4
     64e:	8a e3       	ldi	r24, 0x3A	; 58
     650:	cd dd       	rcall	.-1126   	; 0x1ec <sensor_set>
     652:	40 e0       	ldi	r20, 0x00	; 0
     654:	64 e1       	ldi	r22, 0x14	; 20
     656:	8a e3       	ldi	r24, 0x3A	; 58
     658:	c9 dd       	rcall	.-1134   	; 0x1ec <sensor_set>
     65a:	4d e7       	ldi	r20, 0x7D	; 125
     65c:	65 e1       	ldi	r22, 0x15	; 21
     65e:	8a e3       	ldi	r24, 0x3A	; 58
     660:	c5 dd       	rcall	.-1142   	; 0x1ec <sensor_set>
     662:	40 e0       	ldi	r20, 0x00	; 0
     664:	66 e1       	ldi	r22, 0x16	; 22
     666:	8a e3       	ldi	r24, 0x3A	; 58
     668:	c1 dd       	rcall	.-1150   	; 0x1ec <sensor_set>
     66a:	48 e7       	ldi	r20, 0x78	; 120
     66c:	60 e0       	ldi	r22, 0x00	; 0
     66e:	8a e3       	ldi	r24, 0x3A	; 58
     670:	bd dd       	rcall	.-1158   	; 0x1ec <sensor_set>
     672:	49 e0       	ldi	r20, 0x09	; 9
     674:	68 e0       	ldi	r22, 0x08	; 8
     676:	8a e3       	ldi	r24, 0x3A	; 58
     678:	b9 dd       	rcall	.-1166   	; 0x1ec <sensor_set>
     67a:	40 e6       	ldi	r20, 0x60	; 96
     67c:	69 e0       	ldi	r22, 0x09	; 9
     67e:	8a e3       	ldi	r24, 0x3A	; 58
     680:	b5 dd       	rcall	.-1174   	; 0x1ec <sensor_set>
     682:	47 e0       	ldi	r20, 0x07	; 7
     684:	6a e0       	ldi	r22, 0x0A	; 10
     686:	8a e3       	ldi	r24, 0x3A	; 58
     688:	b1 dd       	rcall	.-1182   	; 0x1ec <sensor_set>
     68a:	40 ed       	ldi	r20, 0xD0	; 208
     68c:	6b e0       	ldi	r22, 0x0B	; 11
     68e:	8a e3       	ldi	r24, 0x3A	; 58
     690:	ad dd       	rcall	.-1190   	; 0x1ec <sensor_set>
     692:	48 e0       	ldi	r20, 0x08	; 8
     694:	6d e0       	ldi	r22, 0x0D	; 13
     696:	8a e3       	ldi	r24, 0x3A	; 58
     698:	a9 dd       	rcall	.-1198   	; 0x1ec <sensor_set>
     69a:	46 e0       	ldi	r20, 0x06	; 6
     69c:	6e e0       	ldi	r22, 0x0E	; 14
     69e:	8a e3       	ldi	r24, 0x3A	; 58
     6a0:	a5 dd       	rcall	.-1206   	; 0x1ec <sensor_set>
     6a2:	40 e7       	ldi	r20, 0x70	; 112
     6a4:	63 e9       	ldi	r22, 0x93	; 147
     6a6:	81 e5       	ldi	r24, 0x51	; 81
     6a8:	a1 dd       	rcall	.-1214   	; 0x1ec <sensor_set>
     6aa:	44 e0       	ldi	r20, 0x04	; 4
     6ac:	6b e9       	ldi	r22, 0x9B	; 155
     6ae:	88 e5       	ldi	r24, 0x58	; 88
     6b0:	9d dd       	rcall	.-1222   	; 0x1ec <sensor_set>
     6b2:	45 ec       	ldi	r20, 0xC5	; 197
     6b4:	6a e9       	ldi	r22, 0x9A	; 154
     6b6:	88 e5       	ldi	r24, 0x58	; 88
     6b8:	99 dd       	rcall	.-1230   	; 0x1ec <sensor_set>
     6ba:	40 e2       	ldi	r20, 0x20	; 32
     6bc:	6e e1       	ldi	r22, 0x1E	; 30
     6be:	80 e4       	ldi	r24, 0x40	; 64
     6c0:	95 dd       	rcall	.-1238   	; 0x1ec <sensor_set>
     6c2:	42 e4       	ldi	r20, 0x42	; 66
     6c4:	61 e0       	ldi	r22, 0x01	; 1
     6c6:	80 e4       	ldi	r24, 0x40	; 64
     6c8:	91 dd       	rcall	.-1246   	; 0x1ec <sensor_set>
     6ca:	44 e0       	ldi	r20, 0x04	; 4
     6cc:	6c e1       	ldi	r22, 0x1C	; 28
     6ce:	80 e4       	ldi	r24, 0x40	; 64
     6d0:	8d dd       	rcall	.-1254   	; 0x1ec <sensor_set>
     6d2:	41 e0       	ldi	r20, 0x01	; 1
     6d4:	6a e8       	ldi	r22, 0x8A	; 138
     6d6:	82 e5       	ldi	r24, 0x52	; 82
     6d8:	89 dd       	rcall	.-1262   	; 0x1ec <sensor_set>
     6da:	44 e0       	ldi	r20, 0x04	; 4
     6dc:	6b e8       	ldi	r22, 0x8B	; 139
     6de:	82 e5       	ldi	r24, 0x52	; 82
     6e0:	85 dd       	rcall	.-1270   	; 0x1ec <sensor_set>
     6e2:	48 e0       	ldi	r20, 0x08	; 8
     6e4:	6c e8       	ldi	r22, 0x8C	; 140
     6e6:	82 e5       	ldi	r24, 0x52	; 82
     6e8:	81 dd       	rcall	.-1278   	; 0x1ec <sensor_set>
     6ea:	40 e1       	ldi	r20, 0x10	; 16
     6ec:	6d e8       	ldi	r22, 0x8D	; 141
     6ee:	82 e5       	ldi	r24, 0x52	; 82
     6f0:	7d dd       	rcall	.-1286   	; 0x1ec <sensor_set>
     6f2:	40 e2       	ldi	r20, 0x20	; 32
     6f4:	6e e8       	ldi	r22, 0x8E	; 142
     6f6:	82 e5       	ldi	r24, 0x52	; 82
     6f8:	79 dd       	rcall	.-1294   	; 0x1ec <sensor_set>
     6fa:	48 e2       	ldi	r20, 0x28	; 40
     6fc:	6f e8       	ldi	r22, 0x8F	; 143
     6fe:	82 e5       	ldi	r24, 0x52	; 82
     700:	75 dd       	rcall	.-1302   	; 0x1ec <sensor_set>
     702:	40 e3       	ldi	r20, 0x30	; 48
     704:	60 e9       	ldi	r22, 0x90	; 144
     706:	82 e5       	ldi	r24, 0x52	; 82
     708:	71 dd       	rcall	.-1310   	; 0x1ec <sensor_set>
     70a:	40 e0       	ldi	r20, 0x00	; 0
     70c:	62 e9       	ldi	r22, 0x92	; 146
     70e:	82 e5       	ldi	r24, 0x52	; 82
     710:	6d dd       	rcall	.-1318   	; 0x1ec <sensor_set>
     712:	41 e0       	ldi	r20, 0x01	; 1
     714:	63 e9       	ldi	r22, 0x93	; 147
     716:	82 e5       	ldi	r24, 0x52	; 82
     718:	69 dd       	rcall	.-1326   	; 0x1ec <sensor_set>
     71a:	40 e0       	ldi	r20, 0x00	; 0
     71c:	64 e9       	ldi	r22, 0x94	; 148
     71e:	82 e5       	ldi	r24, 0x52	; 82
     720:	65 dd       	rcall	.-1334   	; 0x1ec <sensor_set>
     722:	44 e0       	ldi	r20, 0x04	; 4
     724:	65 e9       	ldi	r22, 0x95	; 149
     726:	82 e5       	ldi	r24, 0x52	; 82
     728:	61 dd       	rcall	.-1342   	; 0x1ec <sensor_set>
     72a:	40 e0       	ldi	r20, 0x00	; 0
     72c:	66 e9       	ldi	r22, 0x96	; 150
     72e:	82 e5       	ldi	r24, 0x52	; 82
     730:	5d dd       	rcall	.-1350   	; 0x1ec <sensor_set>
     732:	48 e0       	ldi	r20, 0x08	; 8
     734:	67 e9       	ldi	r22, 0x97	; 151
     736:	82 e5       	ldi	r24, 0x52	; 82
     738:	59 dd       	rcall	.-1358   	; 0x1ec <sensor_set>
     73a:	40 e0       	ldi	r20, 0x00	; 0
     73c:	68 e9       	ldi	r22, 0x98	; 152
     73e:	82 e5       	ldi	r24, 0x52	; 82
     740:	55 dd       	rcall	.-1366   	; 0x1ec <sensor_set>
     742:	40 e1       	ldi	r20, 0x10	; 16
     744:	69 e9       	ldi	r22, 0x99	; 153
     746:	82 e5       	ldi	r24, 0x52	; 82
     748:	51 dd       	rcall	.-1374   	; 0x1ec <sensor_set>
     74a:	40 e0       	ldi	r20, 0x00	; 0
     74c:	6a e9       	ldi	r22, 0x9A	; 154
     74e:	82 e5       	ldi	r24, 0x52	; 82
     750:	4d dd       	rcall	.-1382   	; 0x1ec <sensor_set>
     752:	40 e2       	ldi	r20, 0x20	; 32
     754:	6b e9       	ldi	r22, 0x9B	; 155
     756:	82 e5       	ldi	r24, 0x52	; 82
     758:	49 dd       	rcall	.-1390   	; 0x1ec <sensor_set>
     75a:	40 e0       	ldi	r20, 0x00	; 0
     75c:	6c e9       	ldi	r22, 0x9C	; 156
     75e:	82 e5       	ldi	r24, 0x52	; 82
     760:	45 dd       	rcall	.-1398   	; 0x1ec <sensor_set>
     762:	48 e2       	ldi	r20, 0x28	; 40
     764:	6d e9       	ldi	r22, 0x9D	; 157
     766:	82 e5       	ldi	r24, 0x52	; 82
     768:	41 dd       	rcall	.-1406   	; 0x1ec <sensor_set>
     76a:	40 e0       	ldi	r20, 0x00	; 0
     76c:	6e e9       	ldi	r22, 0x9E	; 158
     76e:	82 e5       	ldi	r24, 0x52	; 82
     770:	3d dd       	rcall	.-1414   	; 0x1ec <sensor_set>
     772:	40 e3       	ldi	r20, 0x30	; 48
     774:	6f e9       	ldi	r22, 0x9F	; 159
     776:	82 e5       	ldi	r24, 0x52	; 82
     778:	39 dd       	rcall	.-1422   	; 0x1ec <sensor_set>
     77a:	40 e0       	ldi	r20, 0x00	; 0
     77c:	62 e8       	ldi	r22, 0x82	; 130
     77e:	82 e5       	ldi	r24, 0x52	; 82
     780:	35 dd       	rcall	.-1430   	; 0x1ec <sensor_set>
     782:	40 e0       	ldi	r20, 0x00	; 0
     784:	60 e0       	ldi	r22, 0x00	; 0
     786:	83 e5       	ldi	r24, 0x53	; 83
     788:	31 dd       	rcall	.-1438   	; 0x1ec <sensor_set>
     78a:	40 e2       	ldi	r20, 0x20	; 32
     78c:	61 e0       	ldi	r22, 0x01	; 1
     78e:	83 e5       	ldi	r24, 0x53	; 83
     790:	2d dd       	rcall	.-1446   	; 0x1ec <sensor_set>
     792:	40 e0       	ldi	r20, 0x00	; 0
     794:	62 e0       	ldi	r22, 0x02	; 2
     796:	83 e5       	ldi	r24, 0x53	; 83
     798:	29 dd       	rcall	.-1454   	; 0x1ec <sensor_set>
     79a:	4c e7       	ldi	r20, 0x7C	; 124
     79c:	63 e0       	ldi	r22, 0x03	; 3
     79e:	83 e5       	ldi	r24, 0x53	; 83
     7a0:	25 dd       	rcall	.-1462   	; 0x1ec <sensor_set>
     7a2:	40 e0       	ldi	r20, 0x00	; 0
     7a4:	6c e0       	ldi	r22, 0x0C	; 12
     7a6:	83 e5       	ldi	r24, 0x53	; 83
     7a8:	21 dd       	rcall	.-1470   	; 0x1ec <sensor_set>
     7aa:	4c e0       	ldi	r20, 0x0C	; 12
     7ac:	6d e0       	ldi	r22, 0x0D	; 13
     7ae:	83 e5       	ldi	r24, 0x53	; 83
     7b0:	1d dd       	rcall	.-1478   	; 0x1ec <sensor_set>
     7b2:	40 e2       	ldi	r20, 0x20	; 32
     7b4:	6e e0       	ldi	r22, 0x0E	; 14
     7b6:	83 e5       	ldi	r24, 0x53	; 83
     7b8:	19 dd       	rcall	.-1486   	; 0x1ec <sensor_set>
     7ba:	40 e8       	ldi	r20, 0x80	; 128
     7bc:	6f e0       	ldi	r22, 0x0F	; 15
     7be:	83 e5       	ldi	r24, 0x53	; 83
     7c0:	15 dd       	rcall	.-1494   	; 0x1ec <sensor_set>
     7c2:	40 e2       	ldi	r20, 0x20	; 32
     7c4:	60 e1       	ldi	r22, 0x10	; 16
     7c6:	83 e5       	ldi	r24, 0x53	; 83
     7c8:	11 dd       	rcall	.-1502   	; 0x1ec <sensor_set>
     7ca:	40 e8       	ldi	r20, 0x80	; 128
     7cc:	61 e1       	ldi	r22, 0x11	; 17
     7ce:	83 e5       	ldi	r24, 0x53	; 83
     7d0:	0d dd       	rcall	.-1510   	; 0x1ec <sensor_set>
     7d2:	40 e2       	ldi	r20, 0x20	; 32
     7d4:	68 e0       	ldi	r22, 0x08	; 8
     7d6:	83 e5       	ldi	r24, 0x53	; 83
     7d8:	09 dd       	rcall	.-1518   	; 0x1ec <sensor_set>
     7da:	40 e4       	ldi	r20, 0x40	; 64
     7dc:	69 e0       	ldi	r22, 0x09	; 9
     7de:	83 e5       	ldi	r24, 0x53	; 83
     7e0:	05 dd       	rcall	.-1526   	; 0x1ec <sensor_set>
     7e2:	40 e0       	ldi	r20, 0x00	; 0
     7e4:	64 e0       	ldi	r22, 0x04	; 4
     7e6:	83 e5       	ldi	r24, 0x53	; 83
     7e8:	01 dd       	rcall	.-1534   	; 0x1ec <sensor_set>
     7ea:	40 e3       	ldi	r20, 0x30	; 48
     7ec:	65 e0       	ldi	r22, 0x05	; 5
     7ee:	83 e5       	ldi	r24, 0x53	; 83
     7f0:	fd dc       	rcall	.-1542   	; 0x1ec <sensor_set>
     7f2:	40 e0       	ldi	r20, 0x00	; 0
     7f4:	66 e0       	ldi	r22, 0x06	; 6
     7f6:	83 e5       	ldi	r24, 0x53	; 83
     7f8:	f9 dc       	rcall	.-1550   	; 0x1ec <sensor_set>
     7fa:	40 e8       	ldi	r20, 0x80	; 128
     7fc:	67 e0       	ldi	r22, 0x07	; 7
     7fe:	83 e5       	ldi	r24, 0x53	; 83
     800:	f5 dc       	rcall	.-1558   	; 0x1ec <sensor_set>
     802:	48 e0       	ldi	r20, 0x08	; 8
     804:	64 e1       	ldi	r22, 0x14	; 20
     806:	83 e5       	ldi	r24, 0x53	; 83
     808:	f1 dc       	rcall	.-1566   	; 0x1ec <sensor_set>
     80a:	40 e2       	ldi	r20, 0x20	; 32
     80c:	65 e1       	ldi	r22, 0x15	; 21
     80e:	83 e5       	ldi	r24, 0x53	; 83
     810:	ed dc       	rcall	.-1574   	; 0x1ec <sensor_set>
     812:	40 e3       	ldi	r20, 0x30	; 48
     814:	69 e1       	ldi	r22, 0x19	; 25
     816:	83 e5       	ldi	r24, 0x53	; 83
     818:	e9 dc       	rcall	.-1582   	; 0x1ec <sensor_set>
     81a:	40 e1       	ldi	r20, 0x10	; 16
     81c:	66 e1       	ldi	r22, 0x16	; 22
     81e:	83 e5       	ldi	r24, 0x53	; 83
     820:	e5 dc       	rcall	.-1590   	; 0x1ec <sensor_set>
     822:	40 e0       	ldi	r20, 0x00	; 0
     824:	67 e1       	ldi	r22, 0x17	; 23
     826:	83 e5       	ldi	r24, 0x53	; 83
     828:	e1 dc       	rcall	.-1598   	; 0x1ec <sensor_set>
     82a:	42 e0       	ldi	r20, 0x02	; 2
     82c:	68 e1       	ldi	r22, 0x18	; 24
     82e:	83 e5       	ldi	r24, 0x53	; 83
     830:	dd dc       	rcall	.-1606   	; 0x1ec <sensor_set>
     832:	4f e3       	ldi	r20, 0x3F	; 63
     834:	62 e0       	ldi	r22, 0x02	; 2
     836:	84 e5       	ldi	r24, 0x54	; 84
     838:	d9 dc       	rcall	.-1614   	; 0x1ec <sensor_set>
     83a:	40 e0       	ldi	r20, 0x00	; 0
     83c:	63 e0       	ldi	r22, 0x03	; 3
     83e:	84 e5       	ldi	r24, 0x54	; 84
     840:	d5 dc       	rcall	.-1622   	; 0x1ec <sensor_set>
     842:	40 e0       	ldi	r20, 0x00	; 0
     844:	66 e0       	ldi	r22, 0x06	; 6
     846:	84 e3       	ldi	r24, 0x34	; 52
     848:	d1 dc       	rcall	.-1630   	; 0x1ec <sensor_set>
     84a:	4f ef       	ldi	r20, 0xFF	; 255
     84c:	60 e8       	ldi	r22, 0x80	; 128
     84e:	81 e5       	ldi	r24, 0x51	; 81
     850:	cd dc       	rcall	.-1638   	; 0x1ec <sensor_set>
     852:	42 e5       	ldi	r20, 0x52	; 82
     854:	61 e8       	ldi	r22, 0x81	; 129
     856:	81 e5       	ldi	r24, 0x51	; 81
     858:	c9 dc       	rcall	.-1646   	; 0x1ec <sensor_set>
     85a:	41 e1       	ldi	r20, 0x11	; 17
     85c:	62 e8       	ldi	r22, 0x82	; 130
     85e:	81 e5       	ldi	r24, 0x51	; 81
     860:	c5 dc       	rcall	.-1654   	; 0x1ec <sensor_set>
     862:	44 e1       	ldi	r20, 0x14	; 20
     864:	63 e8       	ldi	r22, 0x83	; 131
     866:	81 e5       	ldi	r24, 0x51	; 81
     868:	c1 dc       	rcall	.-1662   	; 0x1ec <sensor_set>
     86a:	45 e2       	ldi	r20, 0x25	; 37
     86c:	64 e8       	ldi	r22, 0x84	; 132
     86e:	81 e5       	ldi	r24, 0x51	; 81
     870:	bd dc       	rcall	.-1670   	; 0x1ec <sensor_set>
     872:	44 e2       	ldi	r20, 0x24	; 36
     874:	65 e8       	ldi	r22, 0x85	; 133
     876:	81 e5       	ldi	r24, 0x51	; 81
     878:	b9 dc       	rcall	.-1678   	; 0x1ec <sensor_set>
     87a:	46 e0       	ldi	r20, 0x06	; 6
     87c:	66 e8       	ldi	r22, 0x86	; 134
     87e:	81 e5       	ldi	r24, 0x51	; 81
     880:	b5 dc       	rcall	.-1686   	; 0x1ec <sensor_set>
     882:	48 e0       	ldi	r20, 0x08	; 8
     884:	67 e8       	ldi	r22, 0x87	; 135
     886:	81 e5       	ldi	r24, 0x51	; 81
     888:	b1 dc       	rcall	.-1694   	; 0x1ec <sensor_set>
     88a:	48 e0       	ldi	r20, 0x08	; 8
     88c:	68 e8       	ldi	r22, 0x88	; 136
     88e:	81 e5       	ldi	r24, 0x51	; 81
     890:	ad dc       	rcall	.-1702   	; 0x1ec <sensor_set>
     892:	4c e7       	ldi	r20, 0x7C	; 124
     894:	69 e8       	ldi	r22, 0x89	; 137
     896:	81 e5       	ldi	r24, 0x51	; 81
     898:	a9 dc       	rcall	.-1710   	; 0x1ec <sensor_set>
     89a:	40 e6       	ldi	r20, 0x60	; 96
     89c:	6a e8       	ldi	r22, 0x8A	; 138
     89e:	81 e5       	ldi	r24, 0x51	; 81
     8a0:	a5 dc       	rcall	.-1718   	; 0x1ec <sensor_set>
     8a2:	42 eb       	ldi	r20, 0xB2	; 178
     8a4:	6b e8       	ldi	r22, 0x8B	; 139
     8a6:	81 e5       	ldi	r24, 0x51	; 81
     8a8:	a1 dc       	rcall	.-1726   	; 0x1ec <sensor_set>
     8aa:	42 eb       	ldi	r20, 0xB2	; 178
     8ac:	6c e8       	ldi	r22, 0x8C	; 140
     8ae:	81 e5       	ldi	r24, 0x51	; 81
     8b0:	9d dc       	rcall	.-1734   	; 0x1ec <sensor_set>
     8b2:	44 e4       	ldi	r20, 0x44	; 68
     8b4:	6d e8       	ldi	r22, 0x8D	; 141
     8b6:	81 e5       	ldi	r24, 0x51	; 81
     8b8:	99 dc       	rcall	.-1742   	; 0x1ec <sensor_set>
     8ba:	4d e3       	ldi	r20, 0x3D	; 61
     8bc:	6e e8       	ldi	r22, 0x8E	; 142
     8be:	81 e5       	ldi	r24, 0x51	; 81
     8c0:	95 dc       	rcall	.-1750   	; 0x1ec <sensor_set>
     8c2:	48 e5       	ldi	r20, 0x58	; 88
     8c4:	6f e8       	ldi	r22, 0x8F	; 143
     8c6:	81 e5       	ldi	r24, 0x51	; 81
     8c8:	91 dc       	rcall	.-1758   	; 0x1ec <sensor_set>
     8ca:	46 e4       	ldi	r20, 0x46	; 70
     8cc:	60 e9       	ldi	r22, 0x90	; 144
     8ce:	81 e5       	ldi	r24, 0x51	; 81
     8d0:	8d dc       	rcall	.-1766   	; 0x1ec <sensor_set>
     8d2:	48 ef       	ldi	r20, 0xF8	; 248
     8d4:	61 e9       	ldi	r22, 0x91	; 145
     8d6:	81 e5       	ldi	r24, 0x51	; 81
     8d8:	89 dc       	rcall	.-1774   	; 0x1ec <sensor_set>
     8da:	44 e0       	ldi	r20, 0x04	; 4
     8dc:	62 e9       	ldi	r22, 0x92	; 146
     8de:	81 e5       	ldi	r24, 0x51	; 81
     8e0:	85 dc       	rcall	.-1782   	; 0x1ec <sensor_set>
     8e2:	40 e7       	ldi	r20, 0x70	; 112
     8e4:	63 e9       	ldi	r22, 0x93	; 147
     8e6:	81 e5       	ldi	r24, 0x51	; 81
     8e8:	81 dc       	rcall	.-1790   	; 0x1ec <sensor_set>
     8ea:	40 ef       	ldi	r20, 0xF0	; 240
     8ec:	64 e9       	ldi	r22, 0x94	; 148
     8ee:	81 e5       	ldi	r24, 0x51	; 81
     8f0:	7d dc       	rcall	.-1798   	; 0x1ec <sensor_set>
     8f2:	40 ef       	ldi	r20, 0xF0	; 240
     8f4:	65 e9       	ldi	r22, 0x95	; 149
     8f6:	81 e5       	ldi	r24, 0x51	; 81
     8f8:	79 dc       	rcall	.-1806   	; 0x1ec <sensor_set>
     8fa:	43 e0       	ldi	r20, 0x03	; 3
     8fc:	66 e9       	ldi	r22, 0x96	; 150
     8fe:	81 e5       	ldi	r24, 0x51	; 81
     900:	75 dc       	rcall	.-1814   	; 0x1ec <sensor_set>
     902:	41 e0       	ldi	r20, 0x01	; 1
     904:	67 e9       	ldi	r22, 0x97	; 151
     906:	81 e5       	ldi	r24, 0x51	; 81
     908:	71 dc       	rcall	.-1822   	; 0x1ec <sensor_set>
     90a:	44 e0       	ldi	r20, 0x04	; 4
     90c:	68 e9       	ldi	r22, 0x98	; 152
     90e:	81 e5       	ldi	r24, 0x51	; 81
     910:	6d dc       	rcall	.-1830   	; 0x1ec <sensor_set>
     912:	42 e1       	ldi	r20, 0x12	; 18
     914:	69 e9       	ldi	r22, 0x99	; 153
     916:	81 e5       	ldi	r24, 0x51	; 81
     918:	69 dc       	rcall	.-1838   	; 0x1ec <sensor_set>
     91a:	44 e0       	ldi	r20, 0x04	; 4
     91c:	6a e9       	ldi	r22, 0x9A	; 154
     91e:	81 e5       	ldi	r24, 0x51	; 81
     920:	65 dc       	rcall	.-1846   	; 0x1ec <sensor_set>
     922:	40 e0       	ldi	r20, 0x00	; 0
     924:	6b e9       	ldi	r22, 0x9B	; 155
     926:	81 e5       	ldi	r24, 0x51	; 81
     928:	61 dc       	rcall	.-1854   	; 0x1ec <sensor_set>
     92a:	46 e0       	ldi	r20, 0x06	; 6
     92c:	6c e9       	ldi	r22, 0x9C	; 156
     92e:	81 e5       	ldi	r24, 0x51	; 81
     930:	5d dc       	rcall	.-1862   	; 0x1ec <sensor_set>
     932:	42 e8       	ldi	r20, 0x82	; 130
     934:	6d e9       	ldi	r22, 0x9D	; 157
     936:	81 e5       	ldi	r24, 0x51	; 81
     938:	59 dc       	rcall	.-1870   	; 0x1ec <sensor_set>
     93a:	40 e0       	ldi	r20, 0x00	; 0
     93c:	6e e9       	ldi	r22, 0x9E	; 158
     93e:	81 e5       	ldi	r24, 0x51	; 81
     940:	55 dc       	rcall	.-1878   	; 0x1ec <sensor_set>
     942:	40 e8       	ldi	r20, 0x80	; 128
     944:	65 e2       	ldi	r22, 0x25	; 37
     946:	80 e5       	ldi	r24, 0x50	; 80
     948:	51 dc       	rcall	.-1886   	; 0x1ec <sensor_set>
     94a:	40 e4       	ldi	r20, 0x40	; 64
     94c:	63 e8       	ldi	r22, 0x83	; 131
     94e:	85 e5       	ldi	r24, 0x55	; 85
     950:	4d dc       	rcall	.-1894   	; 0x1ec <sensor_set>
     952:	40 e4       	ldi	r20, 0x40	; 64
     954:	64 e8       	ldi	r22, 0x84	; 132
     956:	85 e5       	ldi	r24, 0x55	; 85
     958:	49 dc       	rcall	.-1902   	; 0x1ec <sensor_set>
     95a:	42 e0       	ldi	r20, 0x02	; 2
     95c:	60 e8       	ldi	r22, 0x80	; 128
     95e:	85 e5       	ldi	r24, 0x55	; 85
     960:	45 dc       	rcall	.-1910   	; 0x1ec <sensor_set>
     962:	4f ec       	ldi	r20, 0xCF	; 207
     964:	60 e0       	ldi	r22, 0x00	; 0
     966:	80 e5       	ldi	r24, 0x50	; 80
     968:	41 dc       	rcall	.-1918   	; 0x1ec <sensor_set>
     96a:	40 e1       	ldi	r20, 0x10	; 16
     96c:	60 e1       	ldi	r22, 0x10	; 16
     96e:	87 e3       	ldi	r24, 0x37	; 55
     970:	3d dc       	rcall	.-1926   	; 0x1ec <sensor_set>
     972:	41 e5       	ldi	r20, 0x51	; 81
     974:	62 e3       	ldi	r22, 0x32	; 50
     976:	86 e3       	ldi	r24, 0x36	; 54
     978:	39 dc       	rcall	.-1934   	; 0x1ec <sensor_set>
     97a:	40 e1       	ldi	r20, 0x10	; 16
     97c:	62 e0       	ldi	r22, 0x02	; 2
     97e:	87 e3       	ldi	r24, 0x37	; 55
     980:	35 dc       	rcall	.-1942   	; 0x1ec <sensor_set>
     982:	42 eb       	ldi	r20, 0xB2	; 178
     984:	63 e0       	ldi	r22, 0x03	; 3
     986:	87 e3       	ldi	r24, 0x37	; 55
     988:	31 dc       	rcall	.-1950   	; 0x1ec <sensor_set>
     98a:	48 e1       	ldi	r20, 0x18	; 24
     98c:	64 e0       	ldi	r22, 0x04	; 4
     98e:	87 e3       	ldi	r24, 0x37	; 55
     990:	2d dc       	rcall	.-1958   	; 0x1ec <sensor_set>
     992:	40 e4       	ldi	r20, 0x40	; 64
     994:	6b e0       	ldi	r22, 0x0B	; 11
     996:	87 e3       	ldi	r24, 0x37	; 55
     998:	29 dc       	rcall	.-1966   	; 0x1ec <sensor_set>
     99a:	43 e0       	ldi	r20, 0x03	; 3
     99c:	6d e0       	ldi	r22, 0x0D	; 13
     99e:	87 e3       	ldi	r24, 0x37	; 55
     9a0:	25 dc       	rcall	.-1974   	; 0x1ec <sensor_set>
     9a2:	41 e0       	ldi	r20, 0x01	; 1
     9a4:	61 e3       	ldi	r22, 0x31	; 49
     9a6:	86 e3       	ldi	r24, 0x36	; 54
     9a8:	21 dc       	rcall	.-1982   	; 0x1ec <sensor_set>
     9aa:	42 e5       	ldi	r20, 0x52	; 82
     9ac:	62 e3       	ldi	r22, 0x32	; 50
     9ae:	86 e3       	ldi	r24, 0x36	; 54
     9b0:	1d dc       	rcall	.-1990   	; 0x1ec <sensor_set>
     9b2:	44 e2       	ldi	r20, 0x24	; 36
     9b4:	66 e0       	ldi	r22, 0x06	; 6
     9b6:	86 e3       	ldi	r24, 0x36	; 54
     9b8:	19 dc       	rcall	.-1998   	; 0x1ec <sensor_set>
     9ba:	46 e9       	ldi	r20, 0x96	; 150
     9bc:	60 e2       	ldi	r22, 0x20	; 32
     9be:	86 e3       	ldi	r24, 0x36	; 54
     9c0:	15 dc       	rcall	.-2006   	; 0x1ec <sensor_set>
     9c2:	47 e0       	ldi	r20, 0x07	; 7
     9c4:	65 e8       	ldi	r22, 0x85	; 133
     9c6:	87 e5       	ldi	r24, 0x57	; 87
     9c8:	11 dc       	rcall	.-2014   	; 0x1ec <sensor_set>
     9ca:	40 e3       	ldi	r20, 0x30	; 48
     9cc:	63 e1       	ldi	r22, 0x13	; 19
     9ce:	8a e3       	ldi	r24, 0x3A	; 58
     9d0:	0d dc       	rcall	.-2022   	; 0x1ec <sensor_set>
     9d2:	42 e5       	ldi	r20, 0x52	; 82
     9d4:	60 e0       	ldi	r22, 0x00	; 0
     9d6:	86 e3       	ldi	r24, 0x36	; 54
     9d8:	09 dc       	rcall	.-2030   	; 0x1ec <sensor_set>
     9da:	48 e4       	ldi	r20, 0x48	; 72
     9dc:	64 e0       	ldi	r22, 0x04	; 4
     9de:	86 e3       	ldi	r24, 0x36	; 54
     9e0:	05 dc       	rcall	.-2038   	; 0x1ec <sensor_set>
     9e2:	4b e1       	ldi	r20, 0x1B	; 27
     9e4:	66 e0       	ldi	r22, 0x06	; 6
     9e6:	86 e3       	ldi	r24, 0x36	; 54
     9e8:	01 dc       	rcall	.-2046   	; 0x1ec <sensor_set>
     9ea:	4b e0       	ldi	r20, 0x0B	; 11
     9ec:	6d e0       	ldi	r22, 0x0D	; 13
     9ee:	87 e3       	ldi	r24, 0x37	; 55
     9f0:	fd db       	rcall	.-2054   	; 0x1ec <sensor_set>
     9f2:	40 ec       	ldi	r20, 0xC0	; 192
     9f4:	6f e0       	ldi	r22, 0x0F	; 15
     9f6:	87 e3       	ldi	r24, 0x37	; 55
     9f8:	f9 db       	rcall	.-2062   	; 0x1ec <sensor_set>
     9fa:	41 e0       	ldi	r20, 0x01	; 1
     9fc:	69 e0       	ldi	r22, 0x09	; 9
     9fe:	87 e3       	ldi	r24, 0x37	; 55
     a00:	f5 db       	rcall	.-2070   	; 0x1ec <sensor_set>
     a02:	40 e0       	ldi	r20, 0x00	; 0
     a04:	63 e2       	ldi	r22, 0x23	; 35
     a06:	88 e3       	ldi	r24, 0x38	; 56
     a08:	f1 db       	rcall	.-2078   	; 0x1ec <sensor_set>
     a0a:	40 e0       	ldi	r20, 0x00	; 0
     a0c:	67 e0       	ldi	r22, 0x07	; 7
     a0e:	80 e5       	ldi	r24, 0x50	; 80
     a10:	ed db       	rcall	.-2086   	; 0x1ec <sensor_set>
     a12:	40 e0       	ldi	r20, 0x00	; 0
     a14:	69 e0       	ldi	r22, 0x09	; 9
     a16:	80 e5       	ldi	r24, 0x50	; 80
     a18:	e9 db       	rcall	.-2094   	; 0x1ec <sensor_set>
     a1a:	40 e0       	ldi	r20, 0x00	; 0
     a1c:	61 e1       	ldi	r22, 0x11	; 17
     a1e:	80 e5       	ldi	r24, 0x50	; 80
     a20:	e5 db       	rcall	.-2102   	; 0x1ec <sensor_set>
     a22:	40 e0       	ldi	r20, 0x00	; 0
     a24:	63 e1       	ldi	r22, 0x13	; 19
     a26:	80 e5       	ldi	r24, 0x50	; 80
     a28:	e1 db       	rcall	.-2110   	; 0x1ec <sensor_set>
     a2a:	40 e0       	ldi	r20, 0x00	; 0
     a2c:	6e e9       	ldi	r22, 0x9E	; 158
     a2e:	81 e5       	ldi	r24, 0x51	; 81
     a30:	dd db       	rcall	.-2118   	; 0x1ec <sensor_set>
     a32:	40 e0       	ldi	r20, 0x00	; 0
     a34:	66 e8       	ldi	r22, 0x86	; 134
     a36:	80 e5       	ldi	r24, 0x50	; 80
     a38:	d9 db       	rcall	.-2126   	; 0x1ec <sensor_set>
     a3a:	40 e0       	ldi	r20, 0x00	; 0
     a3c:	67 e8       	ldi	r22, 0x87	; 135
     a3e:	80 e5       	ldi	r24, 0x50	; 80
     a40:	d5 db       	rcall	.-2134   	; 0x1ec <sensor_set>
     a42:	40 e0       	ldi	r20, 0x00	; 0
     a44:	68 e8       	ldi	r22, 0x88	; 136
     a46:	80 e5       	ldi	r24, 0x50	; 80
     a48:	d1 db       	rcall	.-2142   	; 0x1ec <sensor_set>
     a4a:	40 e0       	ldi	r20, 0x00	; 0
     a4c:	69 e8       	ldi	r22, 0x89	; 137
     a4e:	80 e5       	ldi	r24, 0x50	; 80
     a50:	cd db       	rcall	.-2150   	; 0x1ec <sensor_set>
     a52:	40 e0       	ldi	r20, 0x00	; 0
     a54:	6b e2       	ldi	r22, 0x2B	; 43
     a56:	80 e3       	ldi	r24, 0x30	; 48
     a58:	c9 db       	rcall	.-2158   	; 0x1ec <sensor_set>
     a5a:	41 e0       	ldi	r20, 0x01	; 1
     a5c:	68 e0       	ldi	r22, 0x08	; 8
     a5e:	88 e3       	ldi	r24, 0x38	; 56
     a60:	c5 db       	rcall	.-2166   	; 0x1ec <sensor_set>
     a62:	40 e4       	ldi	r20, 0x40	; 64
     a64:	69 e0       	ldi	r22, 0x09	; 9
     a66:	88 e3       	ldi	r24, 0x38	; 56
     a68:	c1 db       	rcall	.-2174   	; 0x1ec <sensor_set>
     a6a:	40 e0       	ldi	r20, 0x00	; 0
     a6c:	6a e0       	ldi	r22, 0x0A	; 10
     a6e:	88 e3       	ldi	r24, 0x38	; 56
     a70:	bd db       	rcall	.-2182   	; 0x1ec <sensor_set>
     a72:	40 ef       	ldi	r20, 0xF0	; 240
     a74:	6b e0       	ldi	r22, 0x0B	; 11
     a76:	88 e3       	ldi	r24, 0x38	; 56
     a78:	b9 db       	rcall	.-2190   	; 0x1ec <sensor_set>
     a7a:	48 e7       	ldi	r20, 0x78	; 120
     a7c:	60 e0       	ldi	r22, 0x00	; 0
     a7e:	8a e3       	ldi	r24, 0x3A	; 58
     a80:	b5 db       	rcall	.-2198   	; 0x1ec <sensor_set>
     a82:	4f ef       	ldi	r20, 0xFF	; 255
     a84:	61 e0       	ldi	r22, 0x01	; 1
     a86:	80 e5       	ldi	r24, 0x50	; 80
     a88:	b1 db       	rcall	.-2206   	; 0x1ec <sensor_set>
     a8a:	40 e5       	ldi	r20, 0x50	; 80
     a8c:	63 e8       	ldi	r22, 0x83	; 131
     a8e:	85 e5       	ldi	r24, 0x55	; 85
     a90:	ad db       	rcall	.-2214   	; 0x1ec <sensor_set>
     a92:	40 e5       	ldi	r20, 0x50	; 80
     a94:	64 e8       	ldi	r22, 0x84	; 132
     a96:	85 e5       	ldi	r24, 0x55	; 85
     a98:	a9 db       	rcall	.-2222   	; 0x1ec <sensor_set>
     a9a:	42 e0       	ldi	r20, 0x02	; 2
     a9c:	60 e8       	ldi	r22, 0x80	; 128
     a9e:	85 e5       	ldi	r24, 0x55	; 85
     aa0:	a5 db       	rcall	.-2230   	; 0x1ec <sensor_set>
     aa2:	40 e8       	ldi	r20, 0x80	; 128
     aa4:	61 e0       	ldi	r22, 0x01	; 1
     aa6:	8c e3       	ldi	r24, 0x3C	; 60
     aa8:	a1 db       	rcall	.-2238   	; 0x1ec <sensor_set>
     aaa:	44 e0       	ldi	r20, 0x04	; 4
     aac:	60 e0       	ldi	r22, 0x00	; 0
     aae:	8c e3       	ldi	r24, 0x3C	; 60
     ab0:	9d db       	rcall	.-2246   	; 0x1ec <sensor_set>
     ab2:	48 e4       	ldi	r20, 0x48	; 72
     ab4:	60 e0       	ldi	r22, 0x00	; 0
     ab6:	88 e5       	ldi	r24, 0x58	; 88
     ab8:	99 db       	rcall	.-2254   	; 0x1ec <sensor_set>
     aba:	41 e3       	ldi	r20, 0x31	; 49
     abc:	61 e0       	ldi	r22, 0x01	; 1
     abe:	88 e5       	ldi	r24, 0x58	; 88
     ac0:	95 db       	rcall	.-2262   	; 0x1ec <sensor_set>
     ac2:	41 e2       	ldi	r20, 0x21	; 33
     ac4:	62 e0       	ldi	r22, 0x02	; 2
     ac6:	88 e5       	ldi	r24, 0x58	; 88
     ac8:	91 db       	rcall	.-2270   	; 0x1ec <sensor_set>
     aca:	4b e1       	ldi	r20, 0x1B	; 27
     acc:	63 e0       	ldi	r22, 0x03	; 3
     ace:	88 e5       	ldi	r24, 0x58	; 88
     ad0:	8d db       	rcall	.-2278   	; 0x1ec <sensor_set>
     ad2:	4a e1       	ldi	r20, 0x1A	; 26
     ad4:	64 e0       	ldi	r22, 0x04	; 4
     ad6:	88 e5       	ldi	r24, 0x58	; 88
     ad8:	89 db       	rcall	.-2286   	; 0x1ec <sensor_set>
     ada:	4e e1       	ldi	r20, 0x1E	; 30
     adc:	65 e0       	ldi	r22, 0x05	; 5
     ade:	88 e5       	ldi	r24, 0x58	; 88
     ae0:	85 db       	rcall	.-2294   	; 0x1ec <sensor_set>
     ae2:	49 e2       	ldi	r20, 0x29	; 41
     ae4:	66 e0       	ldi	r22, 0x06	; 6
     ae6:	88 e5       	ldi	r24, 0x58	; 88
     ae8:	81 db       	rcall	.-2302   	; 0x1ec <sensor_set>
     aea:	48 e3       	ldi	r20, 0x38	; 56
     aec:	67 e0       	ldi	r22, 0x07	; 7
     aee:	88 e5       	ldi	r24, 0x58	; 88
     af0:	7d db       	rcall	.-2310   	; 0x1ec <sensor_set>
     af2:	46 e2       	ldi	r20, 0x26	; 38
     af4:	68 e0       	ldi	r22, 0x08	; 8
     af6:	88 e5       	ldi	r24, 0x58	; 88
     af8:	79 db       	rcall	.-2318   	; 0x1ec <sensor_set>
     afa:	47 e1       	ldi	r20, 0x17	; 23
     afc:	69 e0       	ldi	r22, 0x09	; 9
     afe:	88 e5       	ldi	r24, 0x58	; 88
     b00:	75 db       	rcall	.-2326   	; 0x1ec <sensor_set>
     b02:	41 e1       	ldi	r20, 0x11	; 17
     b04:	6a e0       	ldi	r22, 0x0A	; 10
     b06:	88 e5       	ldi	r24, 0x58	; 88
     b08:	71 db       	rcall	.-2334   	; 0x1ec <sensor_set>
     b0a:	4e e0       	ldi	r20, 0x0E	; 14
     b0c:	6b e0       	ldi	r22, 0x0B	; 11
     b0e:	88 e5       	ldi	r24, 0x58	; 88
     b10:	6d db       	rcall	.-2342   	; 0x1ec <sensor_set>
     b12:	4d e0       	ldi	r20, 0x0D	; 13
     b14:	6c e0       	ldi	r22, 0x0C	; 12
     b16:	88 e5       	ldi	r24, 0x58	; 88
     b18:	69 db       	rcall	.-2350   	; 0x1ec <sensor_set>
     b1a:	4e e0       	ldi	r20, 0x0E	; 14
     b1c:	6d e0       	ldi	r22, 0x0D	; 13
     b1e:	88 e5       	ldi	r24, 0x58	; 88
     b20:	65 db       	rcall	.-2358   	; 0x1ec <sensor_set>
     b22:	43 e1       	ldi	r20, 0x13	; 19
     b24:	6e e0       	ldi	r22, 0x0E	; 14
     b26:	88 e5       	ldi	r24, 0x58	; 88
     b28:	61 db       	rcall	.-2366   	; 0x1ec <sensor_set>
     b2a:	4a e1       	ldi	r20, 0x1A	; 26
     b2c:	6f e0       	ldi	r22, 0x0F	; 15
     b2e:	88 e5       	ldi	r24, 0x58	; 88
     b30:	5d db       	rcall	.-2374   	; 0x1ec <sensor_set>
     b32:	45 e1       	ldi	r20, 0x15	; 21
     b34:	60 e1       	ldi	r22, 0x10	; 16
     b36:	88 e5       	ldi	r24, 0x58	; 88
     b38:	59 db       	rcall	.-2382   	; 0x1ec <sensor_set>
     b3a:	4d e0       	ldi	r20, 0x0D	; 13
     b3c:	61 e1       	ldi	r22, 0x11	; 17
     b3e:	88 e5       	ldi	r24, 0x58	; 88
     b40:	55 db       	rcall	.-2390   	; 0x1ec <sensor_set>
     b42:	48 e0       	ldi	r20, 0x08	; 8
     b44:	62 e1       	ldi	r22, 0x12	; 18
     b46:	88 e5       	ldi	r24, 0x58	; 88
     b48:	51 db       	rcall	.-2398   	; 0x1ec <sensor_set>
     b4a:	45 e0       	ldi	r20, 0x05	; 5
     b4c:	63 e1       	ldi	r22, 0x13	; 19
     b4e:	88 e5       	ldi	r24, 0x58	; 88
     b50:	4d db       	rcall	.-2406   	; 0x1ec <sensor_set>
     b52:	44 e0       	ldi	r20, 0x04	; 4
     b54:	64 e1       	ldi	r22, 0x14	; 20
     b56:	88 e5       	ldi	r24, 0x58	; 88
     b58:	49 db       	rcall	.-2414   	; 0x1ec <sensor_set>
     b5a:	45 e0       	ldi	r20, 0x05	; 5
     b5c:	65 e1       	ldi	r22, 0x15	; 21
     b5e:	88 e5       	ldi	r24, 0x58	; 88
     b60:	45 db       	rcall	.-2422   	; 0x1ec <sensor_set>
     b62:	49 e0       	ldi	r20, 0x09	; 9
     b64:	66 e1       	ldi	r22, 0x16	; 22
     b66:	88 e5       	ldi	r24, 0x58	; 88
     b68:	41 db       	rcall	.-2430   	; 0x1ec <sensor_set>
     b6a:	4d e0       	ldi	r20, 0x0D	; 13
     b6c:	67 e1       	ldi	r22, 0x17	; 23
     b6e:	88 e5       	ldi	r24, 0x58	; 88
     b70:	3d db       	rcall	.-2438   	; 0x1ec <sensor_set>
     b72:	41 e1       	ldi	r20, 0x11	; 17
     b74:	68 e1       	ldi	r22, 0x18	; 24
     b76:	88 e5       	ldi	r24, 0x58	; 88
     b78:	39 db       	rcall	.-2446   	; 0x1ec <sensor_set>
     b7a:	4a e0       	ldi	r20, 0x0A	; 10
     b7c:	69 e1       	ldi	r22, 0x19	; 25
     b7e:	88 e5       	ldi	r24, 0x58	; 88
     b80:	35 db       	rcall	.-2454   	; 0x1ec <sensor_set>
     b82:	44 e0       	ldi	r20, 0x04	; 4
     b84:	6a e1       	ldi	r22, 0x1A	; 26
     b86:	88 e5       	ldi	r24, 0x58	; 88
     b88:	31 db       	rcall	.-2462   	; 0x1ec <sensor_set>
     b8a:	40 e0       	ldi	r20, 0x00	; 0
     b8c:	6b e1       	ldi	r22, 0x1B	; 27
     b8e:	88 e5       	ldi	r24, 0x58	; 88
     b90:	2d db       	rcall	.-2470   	; 0x1ec <sensor_set>
     b92:	40 e0       	ldi	r20, 0x00	; 0
     b94:	6c e1       	ldi	r22, 0x1C	; 28
     b96:	88 e5       	ldi	r24, 0x58	; 88
     b98:	29 db       	rcall	.-2478   	; 0x1ec <sensor_set>
     b9a:	41 e0       	ldi	r20, 0x01	; 1
     b9c:	6d e1       	ldi	r22, 0x1D	; 29
     b9e:	88 e5       	ldi	r24, 0x58	; 88
     ba0:	25 db       	rcall	.-2486   	; 0x1ec <sensor_set>
     ba2:	46 e0       	ldi	r20, 0x06	; 6
     ba4:	6e e1       	ldi	r22, 0x1E	; 30
     ba6:	88 e5       	ldi	r24, 0x58	; 88
     ba8:	21 db       	rcall	.-2494   	; 0x1ec <sensor_set>
     baa:	49 e0       	ldi	r20, 0x09	; 9
     bac:	6f e1       	ldi	r22, 0x1F	; 31
     bae:	88 e5       	ldi	r24, 0x58	; 88
     bb0:	1d db       	rcall	.-2502   	; 0x1ec <sensor_set>
     bb2:	42 e1       	ldi	r20, 0x12	; 18
     bb4:	60 e2       	ldi	r22, 0x20	; 32
     bb6:	88 e5       	ldi	r24, 0x58	; 88
     bb8:	19 db       	rcall	.-2510   	; 0x1ec <sensor_set>
     bba:	4b e0       	ldi	r20, 0x0B	; 11
     bbc:	61 e2       	ldi	r22, 0x21	; 33
     bbe:	88 e5       	ldi	r24, 0x58	; 88
     bc0:	15 db       	rcall	.-2518   	; 0x1ec <sensor_set>
     bc2:	44 e0       	ldi	r20, 0x04	; 4
     bc4:	62 e2       	ldi	r22, 0x22	; 34
     bc6:	88 e5       	ldi	r24, 0x58	; 88
     bc8:	11 db       	rcall	.-2526   	; 0x1ec <sensor_set>
     bca:	40 e0       	ldi	r20, 0x00	; 0
     bcc:	63 e2       	ldi	r22, 0x23	; 35
     bce:	88 e5       	ldi	r24, 0x58	; 88
     bd0:	0d db       	rcall	.-2534   	; 0x1ec <sensor_set>
     bd2:	40 e0       	ldi	r20, 0x00	; 0
     bd4:	64 e2       	ldi	r22, 0x24	; 36
     bd6:	88 e5       	ldi	r24, 0x58	; 88
     bd8:	09 db       	rcall	.-2542   	; 0x1ec <sensor_set>
     bda:	41 e0       	ldi	r20, 0x01	; 1
     bdc:	65 e2       	ldi	r22, 0x25	; 37
     bde:	88 e5       	ldi	r24, 0x58	; 88
     be0:	05 db       	rcall	.-2550   	; 0x1ec <sensor_set>
     be2:	46 e0       	ldi	r20, 0x06	; 6
     be4:	66 e2       	ldi	r22, 0x26	; 38
     be6:	88 e5       	ldi	r24, 0x58	; 88
     be8:	01 db       	rcall	.-2558   	; 0x1ec <sensor_set>
     bea:	4a e0       	ldi	r20, 0x0A	; 10
     bec:	67 e2       	ldi	r22, 0x27	; 39
     bee:	88 e5       	ldi	r24, 0x58	; 88
     bf0:	fd da       	rcall	.-2566   	; 0x1ec <sensor_set>
     bf2:	47 e1       	ldi	r20, 0x17	; 23
     bf4:	68 e2       	ldi	r22, 0x28	; 40
     bf6:	88 e5       	ldi	r24, 0x58	; 88
     bf8:	f9 da       	rcall	.-2574   	; 0x1ec <sensor_set>
     bfa:	4f e0       	ldi	r20, 0x0F	; 15
     bfc:	69 e2       	ldi	r22, 0x29	; 41
     bfe:	88 e5       	ldi	r24, 0x58	; 88
     c00:	f5 da       	rcall	.-2582   	; 0x1ec <sensor_set>
     c02:	49 e0       	ldi	r20, 0x09	; 9
     c04:	6a e2       	ldi	r22, 0x2A	; 42
     c06:	88 e5       	ldi	r24, 0x58	; 88
     c08:	f1 da       	rcall	.-2590   	; 0x1ec <sensor_set>
     c0a:	46 e0       	ldi	r20, 0x06	; 6
     c0c:	6b e2       	ldi	r22, 0x2B	; 43
     c0e:	88 e5       	ldi	r24, 0x58	; 88
     c10:	ed da       	rcall	.-2598   	; 0x1ec <sensor_set>
     c12:	45 e0       	ldi	r20, 0x05	; 5
     c14:	6c e2       	ldi	r22, 0x2C	; 44
     c16:	88 e5       	ldi	r24, 0x58	; 88
     c18:	e9 da       	rcall	.-2606   	; 0x1ec <sensor_set>
     c1a:	46 e0       	ldi	r20, 0x06	; 6
     c1c:	6d e2       	ldi	r22, 0x2D	; 45
     c1e:	88 e5       	ldi	r24, 0x58	; 88
     c20:	e5 da       	rcall	.-2614   	; 0x1ec <sensor_set>
     c22:	4a e0       	ldi	r20, 0x0A	; 10
     c24:	6e e2       	ldi	r22, 0x2E	; 46
     c26:	88 e5       	ldi	r24, 0x58	; 88
     c28:	e1 da       	rcall	.-2622   	; 0x1ec <sensor_set>
     c2a:	4e e0       	ldi	r20, 0x0E	; 14
     c2c:	6f e2       	ldi	r22, 0x2F	; 47
     c2e:	88 e5       	ldi	r24, 0x58	; 88
     c30:	dd da       	rcall	.-2630   	; 0x1ec <sensor_set>
     c32:	48 e2       	ldi	r20, 0x28	; 40
     c34:	60 e3       	ldi	r22, 0x30	; 48
     c36:	88 e5       	ldi	r24, 0x58	; 88
     c38:	d9 da       	rcall	.-2638   	; 0x1ec <sensor_set>
     c3a:	4a e1       	ldi	r20, 0x1A	; 26
     c3c:	61 e3       	ldi	r22, 0x31	; 49
     c3e:	88 e5       	ldi	r24, 0x58	; 88
     c40:	d5 da       	rcall	.-2646   	; 0x1ec <sensor_set>
     c42:	41 e1       	ldi	r20, 0x11	; 17
     c44:	62 e3       	ldi	r22, 0x32	; 50
     c46:	88 e5       	ldi	r24, 0x58	; 88
     c48:	d1 da       	rcall	.-2654   	; 0x1ec <sensor_set>
     c4a:	4e e0       	ldi	r20, 0x0E	; 14
     c4c:	63 e3       	ldi	r22, 0x33	; 51
     c4e:	88 e5       	ldi	r24, 0x58	; 88
     c50:	cd da       	rcall	.-2662   	; 0x1ec <sensor_set>
     c52:	4e e0       	ldi	r20, 0x0E	; 14
     c54:	64 e3       	ldi	r22, 0x34	; 52
     c56:	88 e5       	ldi	r24, 0x58	; 88
     c58:	c9 da       	rcall	.-2670   	; 0x1ec <sensor_set>
     c5a:	4f e0       	ldi	r20, 0x0F	; 15
     c5c:	65 e3       	ldi	r22, 0x35	; 53
     c5e:	88 e5       	ldi	r24, 0x58	; 88
     c60:	c5 da       	rcall	.-2678   	; 0x1ec <sensor_set>
     c62:	45 e1       	ldi	r20, 0x15	; 21
     c64:	66 e3       	ldi	r22, 0x36	; 54
     c66:	88 e5       	ldi	r24, 0x58	; 88
     c68:	c1 da       	rcall	.-2686   	; 0x1ec <sensor_set>
     c6a:	4d e1       	ldi	r20, 0x1D	; 29
     c6c:	67 e3       	ldi	r22, 0x37	; 55
     c6e:	88 e5       	ldi	r24, 0x58	; 88
     c70:	bd da       	rcall	.-2694   	; 0x1ec <sensor_set>
     c72:	4e e6       	ldi	r20, 0x6E	; 110
     c74:	68 e3       	ldi	r22, 0x38	; 56
     c76:	88 e5       	ldi	r24, 0x58	; 88
     c78:	b9 da       	rcall	.-2702   	; 0x1ec <sensor_set>
     c7a:	49 e3       	ldi	r20, 0x39	; 57
     c7c:	69 e3       	ldi	r22, 0x39	; 57
     c7e:	88 e5       	ldi	r24, 0x58	; 88
     c80:	b5 da       	rcall	.-2710   	; 0x1ec <sensor_set>
     c82:	47 e2       	ldi	r20, 0x27	; 39
     c84:	6a e3       	ldi	r22, 0x3A	; 58
     c86:	88 e5       	ldi	r24, 0x58	; 88
     c88:	b1 da       	rcall	.-2718   	; 0x1ec <sensor_set>
     c8a:	4f e1       	ldi	r20, 0x1F	; 31
     c8c:	6b e3       	ldi	r22, 0x3B	; 59
     c8e:	88 e5       	ldi	r24, 0x58	; 88
     c90:	ad da       	rcall	.-2726   	; 0x1ec <sensor_set>
     c92:	4e e1       	ldi	r20, 0x1E	; 30
     c94:	6c e3       	ldi	r22, 0x3C	; 60
     c96:	88 e5       	ldi	r24, 0x58	; 88
     c98:	a9 da       	rcall	.-2734   	; 0x1ec <sensor_set>
     c9a:	43 e2       	ldi	r20, 0x23	; 35
     c9c:	6d e3       	ldi	r22, 0x3D	; 61
     c9e:	88 e5       	ldi	r24, 0x58	; 88
     ca0:	a5 da       	rcall	.-2742   	; 0x1ec <sensor_set>
     ca2:	4f e2       	ldi	r20, 0x2F	; 47
     ca4:	6e e3       	ldi	r22, 0x3E	; 62
     ca6:	88 e5       	ldi	r24, 0x58	; 88
     ca8:	a1 da       	rcall	.-2750   	; 0x1ec <sensor_set>
     caa:	41 e4       	ldi	r20, 0x41	; 65
     cac:	6f e3       	ldi	r22, 0x3F	; 63
     cae:	88 e5       	ldi	r24, 0x58	; 88
     cb0:	9d da       	rcall	.-2758   	; 0x1ec <sensor_set>
     cb2:	4e e0       	ldi	r20, 0x0E	; 14
     cb4:	60 e4       	ldi	r22, 0x40	; 64
     cb6:	88 e5       	ldi	r24, 0x58	; 88
     cb8:	99 da       	rcall	.-2766   	; 0x1ec <sensor_set>
     cba:	4c e0       	ldi	r20, 0x0C	; 12
     cbc:	61 e4       	ldi	r22, 0x41	; 65
     cbe:	88 e5       	ldi	r24, 0x58	; 88
     cc0:	95 da       	rcall	.-2774   	; 0x1ec <sensor_set>
     cc2:	4d e0       	ldi	r20, 0x0D	; 13
     cc4:	62 e4       	ldi	r22, 0x42	; 66
     cc6:	88 e5       	ldi	r24, 0x58	; 88
     cc8:	91 da       	rcall	.-2782   	; 0x1ec <sensor_set>
     cca:	4c e0       	ldi	r20, 0x0C	; 12
     ccc:	63 e4       	ldi	r22, 0x43	; 67
     cce:	88 e5       	ldi	r24, 0x58	; 88
     cd0:	8d da       	rcall	.-2790   	; 0x1ec <sensor_set>
     cd2:	4c e0       	ldi	r20, 0x0C	; 12
     cd4:	64 e4       	ldi	r22, 0x44	; 68
     cd6:	88 e5       	ldi	r24, 0x58	; 88
     cd8:	89 da       	rcall	.-2798   	; 0x1ec <sensor_set>
     cda:	4c e0       	ldi	r20, 0x0C	; 12
     cdc:	65 e4       	ldi	r22, 0x45	; 69
     cde:	88 e5       	ldi	r24, 0x58	; 88
     ce0:	85 da       	rcall	.-2806   	; 0x1ec <sensor_set>
     ce2:	4c e0       	ldi	r20, 0x0C	; 12
     ce4:	66 e4       	ldi	r22, 0x46	; 70
     ce6:	88 e5       	ldi	r24, 0x58	; 88
     ce8:	81 da       	rcall	.-2814   	; 0x1ec <sensor_set>
     cea:	4c e0       	ldi	r20, 0x0C	; 12
     cec:	67 e4       	ldi	r22, 0x47	; 71
     cee:	88 e5       	ldi	r24, 0x58	; 88
     cf0:	7d da       	rcall	.-2822   	; 0x1ec <sensor_set>
     cf2:	4d e0       	ldi	r20, 0x0D	; 13
     cf4:	68 e4       	ldi	r22, 0x48	; 72
     cf6:	88 e5       	ldi	r24, 0x58	; 88
     cf8:	79 da       	rcall	.-2830   	; 0x1ec <sensor_set>
     cfa:	4e e0       	ldi	r20, 0x0E	; 14
     cfc:	69 e4       	ldi	r22, 0x49	; 73
     cfe:	88 e5       	ldi	r24, 0x58	; 88
     d00:	75 da       	rcall	.-2838   	; 0x1ec <sensor_set>
     d02:	4e e0       	ldi	r20, 0x0E	; 14
     d04:	6a e4       	ldi	r22, 0x4A	; 74
     d06:	88 e5       	ldi	r24, 0x58	; 88
     d08:	71 da       	rcall	.-2846   	; 0x1ec <sensor_set>
     d0a:	4a e0       	ldi	r20, 0x0A	; 10
     d0c:	6b e4       	ldi	r22, 0x4B	; 75
     d0e:	88 e5       	ldi	r24, 0x58	; 88
     d10:	6d da       	rcall	.-2854   	; 0x1ec <sensor_set>
     d12:	4e e0       	ldi	r20, 0x0E	; 14
     d14:	6c e4       	ldi	r22, 0x4C	; 76
     d16:	88 e5       	ldi	r24, 0x58	; 88
     d18:	69 da       	rcall	.-2862   	; 0x1ec <sensor_set>
     d1a:	4e e0       	ldi	r20, 0x0E	; 14
     d1c:	6d e4       	ldi	r22, 0x4D	; 77
     d1e:	88 e5       	ldi	r24, 0x58	; 88
     d20:	65 da       	rcall	.-2870   	; 0x1ec <sensor_set>
     d22:	40 e1       	ldi	r20, 0x10	; 16
     d24:	6e e4       	ldi	r22, 0x4E	; 78
     d26:	88 e5       	ldi	r24, 0x58	; 88
     d28:	61 da       	rcall	.-2878   	; 0x1ec <sensor_set>
     d2a:	40 e1       	ldi	r20, 0x10	; 16
     d2c:	6f e4       	ldi	r22, 0x4F	; 79
     d2e:	88 e5       	ldi	r24, 0x58	; 88
     d30:	5d da       	rcall	.-2886   	; 0x1ec <sensor_set>
     d32:	41 e1       	ldi	r20, 0x11	; 17
     d34:	60 e5       	ldi	r22, 0x50	; 80
     d36:	88 e5       	ldi	r24, 0x58	; 88
     d38:	59 da       	rcall	.-2894   	; 0x1ec <sensor_set>
     d3a:	4a e0       	ldi	r20, 0x0A	; 10
     d3c:	61 e5       	ldi	r22, 0x51	; 81
     d3e:	88 e5       	ldi	r24, 0x58	; 88
     d40:	55 da       	rcall	.-2902   	; 0x1ec <sensor_set>
     d42:	4f e0       	ldi	r20, 0x0F	; 15
     d44:	62 e5       	ldi	r22, 0x52	; 82
     d46:	88 e5       	ldi	r24, 0x58	; 88
     d48:	51 da       	rcall	.-2910   	; 0x1ec <sensor_set>
     d4a:	4e e0       	ldi	r20, 0x0E	; 14
     d4c:	63 e5       	ldi	r22, 0x53	; 83
     d4e:	88 e5       	ldi	r24, 0x58	; 88
     d50:	4d da       	rcall	.-2918   	; 0x1ec <sensor_set>
     d52:	40 e1       	ldi	r20, 0x10	; 16
     d54:	64 e5       	ldi	r22, 0x54	; 84
     d56:	88 e5       	ldi	r24, 0x58	; 88
     d58:	49 da       	rcall	.-2926   	; 0x1ec <sensor_set>
     d5a:	40 e1       	ldi	r20, 0x10	; 16
     d5c:	65 e5       	ldi	r22, 0x55	; 85
     d5e:	88 e5       	ldi	r24, 0x58	; 88
     d60:	45 da       	rcall	.-2934   	; 0x1ec <sensor_set>
     d62:	40 e1       	ldi	r20, 0x10	; 16
     d64:	66 e5       	ldi	r22, 0x56	; 86
     d66:	88 e5       	ldi	r24, 0x58	; 88
     d68:	41 da       	rcall	.-2942   	; 0x1ec <sensor_set>
     d6a:	4a e0       	ldi	r20, 0x0A	; 10
     d6c:	67 e5       	ldi	r22, 0x57	; 87
     d6e:	88 e5       	ldi	r24, 0x58	; 88
     d70:	3d da       	rcall	.-2950   	; 0x1ec <sensor_set>
     d72:	4e e0       	ldi	r20, 0x0E	; 14
     d74:	68 e5       	ldi	r22, 0x58	; 88
     d76:	88 e5       	ldi	r24, 0x58	; 88
     d78:	39 da       	rcall	.-2958   	; 0x1ec <sensor_set>
     d7a:	4e e0       	ldi	r20, 0x0E	; 14
     d7c:	69 e5       	ldi	r22, 0x59	; 89
     d7e:	88 e5       	ldi	r24, 0x58	; 88
     d80:	35 da       	rcall	.-2966   	; 0x1ec <sensor_set>
     d82:	4f e0       	ldi	r20, 0x0F	; 15
     d84:	6a e5       	ldi	r22, 0x5A	; 90
     d86:	88 e5       	ldi	r24, 0x58	; 88
     d88:	31 da       	rcall	.-2974   	; 0x1ec <sensor_set>
     d8a:	4f e0       	ldi	r20, 0x0F	; 15
     d8c:	6b e5       	ldi	r22, 0x5B	; 91
     d8e:	88 e5       	ldi	r24, 0x58	; 88
     d90:	2d da       	rcall	.-2982   	; 0x1ec <sensor_set>
     d92:	4f e0       	ldi	r20, 0x0F	; 15
     d94:	6c e5       	ldi	r22, 0x5C	; 92
     d96:	88 e5       	ldi	r24, 0x58	; 88
     d98:	29 da       	rcall	.-2990   	; 0x1ec <sensor_set>
     d9a:	4a e0       	ldi	r20, 0x0A	; 10
     d9c:	6d e5       	ldi	r22, 0x5D	; 93
     d9e:	88 e5       	ldi	r24, 0x58	; 88
     da0:	25 da       	rcall	.-2998   	; 0x1ec <sensor_set>
     da2:	49 e0       	ldi	r20, 0x09	; 9
     da4:	6e e5       	ldi	r22, 0x5E	; 94
     da6:	88 e5       	ldi	r24, 0x58	; 88
     da8:	21 da       	rcall	.-3006   	; 0x1ec <sensor_set>
     daa:	4d e0       	ldi	r20, 0x0D	; 13
     dac:	6f e5       	ldi	r22, 0x5F	; 95
     dae:	88 e5       	ldi	r24, 0x58	; 88
     db0:	1d da       	rcall	.-3014   	; 0x1ec <sensor_set>
     db2:	4c e0       	ldi	r20, 0x0C	; 12
     db4:	60 e6       	ldi	r22, 0x60	; 96
     db6:	88 e5       	ldi	r24, 0x58	; 88
     db8:	19 da       	rcall	.-3022   	; 0x1ec <sensor_set>
     dba:	4b e0       	ldi	r20, 0x0B	; 11
     dbc:	61 e6       	ldi	r22, 0x61	; 97
     dbe:	88 e5       	ldi	r24, 0x58	; 88
     dc0:	15 da       	rcall	.-3030   	; 0x1ec <sensor_set>
     dc2:	4d e0       	ldi	r20, 0x0D	; 13
     dc4:	62 e6       	ldi	r22, 0x62	; 98
     dc6:	88 e5       	ldi	r24, 0x58	; 88
     dc8:	11 da       	rcall	.-3038   	; 0x1ec <sensor_set>
     dca:	47 e0       	ldi	r20, 0x07	; 7
     dcc:	63 e6       	ldi	r22, 0x63	; 99
     dce:	88 e5       	ldi	r24, 0x58	; 88
     dd0:	0d da       	rcall	.-3046   	; 0x1ec <sensor_set>
     dd2:	47 e1       	ldi	r20, 0x17	; 23
     dd4:	64 e6       	ldi	r22, 0x64	; 100
     dd6:	88 e5       	ldi	r24, 0x58	; 88
     dd8:	09 da       	rcall	.-3054   	; 0x1ec <sensor_set>
     dda:	44 e1       	ldi	r20, 0x14	; 20
     ddc:	65 e6       	ldi	r22, 0x65	; 101
     dde:	88 e5       	ldi	r24, 0x58	; 88
     de0:	05 da       	rcall	.-3062   	; 0x1ec <sensor_set>
     de2:	48 e1       	ldi	r20, 0x18	; 24
     de4:	66 e6       	ldi	r22, 0x66	; 102
     de6:	88 e5       	ldi	r24, 0x58	; 88
     de8:	01 da       	rcall	.-3070   	; 0x1ec <sensor_set>
     dea:	48 e1       	ldi	r20, 0x18	; 24
     dec:	67 e6       	ldi	r22, 0x67	; 103
     dee:	88 e5       	ldi	r24, 0x58	; 88
     df0:	fd d9       	rcall	.-3078   	; 0x1ec <sensor_set>
     df2:	46 e1       	ldi	r20, 0x16	; 22
     df4:	68 e6       	ldi	r22, 0x68	; 104
     df6:	88 e5       	ldi	r24, 0x58	; 88
     df8:	f9 d9       	rcall	.-3086   	; 0x1ec <sensor_set>
     dfa:	42 e1       	ldi	r20, 0x12	; 18
     dfc:	69 e6       	ldi	r22, 0x69	; 105
     dfe:	88 e5       	ldi	r24, 0x58	; 88
     e00:	f5 d9       	rcall	.-3094   	; 0x1ec <sensor_set>
     e02:	4b e1       	ldi	r20, 0x1B	; 27
     e04:	6a e6       	ldi	r22, 0x6A	; 106
     e06:	88 e5       	ldi	r24, 0x58	; 88
     e08:	f1 d9       	rcall	.-3102   	; 0x1ec <sensor_set>
     e0a:	4a e1       	ldi	r20, 0x1A	; 26
     e0c:	6b e6       	ldi	r22, 0x6B	; 107
     e0e:	88 e5       	ldi	r24, 0x58	; 88
     e10:	ed d9       	rcall	.-3110   	; 0x1ec <sensor_set>
     e12:	46 e1       	ldi	r20, 0x16	; 22
     e14:	6c e6       	ldi	r22, 0x6C	; 108
     e16:	88 e5       	ldi	r24, 0x58	; 88
     e18:	e9 d9       	rcall	.-3118   	; 0x1ec <sensor_set>
     e1a:	46 e1       	ldi	r20, 0x16	; 22
     e1c:	6d e6       	ldi	r22, 0x6D	; 109
     e1e:	88 e5       	ldi	r24, 0x58	; 88
     e20:	e5 d9       	rcall	.-3126   	; 0x1ec <sensor_set>
     e22:	48 e1       	ldi	r20, 0x18	; 24
     e24:	6e e6       	ldi	r22, 0x6E	; 110
     e26:	88 e5       	ldi	r24, 0x58	; 88
     e28:	e1 d9       	rcall	.-3134   	; 0x1ec <sensor_set>
     e2a:	4f e1       	ldi	r20, 0x1F	; 31
     e2c:	6f e6       	ldi	r22, 0x6F	; 111
     e2e:	88 e5       	ldi	r24, 0x58	; 88
     e30:	dd d9       	rcall	.-3142   	; 0x1ec <sensor_set>
     e32:	4c e1       	ldi	r20, 0x1C	; 28
     e34:	60 e7       	ldi	r22, 0x70	; 112
     e36:	88 e5       	ldi	r24, 0x58	; 88
     e38:	d9 d9       	rcall	.-3150   	; 0x1ec <sensor_set>
     e3a:	46 e1       	ldi	r20, 0x16	; 22
     e3c:	61 e7       	ldi	r22, 0x71	; 113
     e3e:	88 e5       	ldi	r24, 0x58	; 88
     e40:	d5 d9       	rcall	.-3158   	; 0x1ec <sensor_set>
     e42:	40 e1       	ldi	r20, 0x10	; 16
     e44:	62 e7       	ldi	r22, 0x72	; 114
     e46:	88 e5       	ldi	r24, 0x58	; 88
     e48:	d1 d9       	rcall	.-3166   	; 0x1ec <sensor_set>
     e4a:	4f e0       	ldi	r20, 0x0F	; 15
     e4c:	63 e7       	ldi	r22, 0x73	; 115
     e4e:	88 e5       	ldi	r24, 0x58	; 88
     e50:	cd d9       	rcall	.-3174   	; 0x1ec <sensor_set>
     e52:	43 e1       	ldi	r20, 0x13	; 19
     e54:	64 e7       	ldi	r22, 0x74	; 116
     e56:	88 e5       	ldi	r24, 0x58	; 88
     e58:	c9 d9       	rcall	.-3182   	; 0x1ec <sensor_set>
     e5a:	4c e1       	ldi	r20, 0x1C	; 28
     e5c:	65 e7       	ldi	r22, 0x75	; 117
     e5e:	88 e5       	ldi	r24, 0x58	; 88
     e60:	c5 d9       	rcall	.-3190   	; 0x1ec <sensor_set>
     e62:	4e e1       	ldi	r20, 0x1E	; 30
     e64:	66 e7       	ldi	r22, 0x76	; 118
     e66:	88 e5       	ldi	r24, 0x58	; 88
     e68:	c1 d9       	rcall	.-3198   	; 0x1ec <sensor_set>
     e6a:	47 e1       	ldi	r20, 0x17	; 23
     e6c:	67 e7       	ldi	r22, 0x77	; 119
     e6e:	88 e5       	ldi	r24, 0x58	; 88
     e70:	bd d9       	rcall	.-3206   	; 0x1ec <sensor_set>
     e72:	41 e1       	ldi	r20, 0x11	; 17
     e74:	68 e7       	ldi	r22, 0x78	; 120
     e76:	88 e5       	ldi	r24, 0x58	; 88
     e78:	b9 d9       	rcall	.-3214   	; 0x1ec <sensor_set>
     e7a:	41 e1       	ldi	r20, 0x11	; 17
     e7c:	69 e7       	ldi	r22, 0x79	; 121
     e7e:	88 e5       	ldi	r24, 0x58	; 88
     e80:	b5 d9       	rcall	.-3222   	; 0x1ec <sensor_set>
     e82:	44 e1       	ldi	r20, 0x14	; 20
     e84:	6a e7       	ldi	r22, 0x7A	; 122
     e86:	88 e5       	ldi	r24, 0x58	; 88
     e88:	b1 d9       	rcall	.-3230   	; 0x1ec <sensor_set>
     e8a:	4e e1       	ldi	r20, 0x1E	; 30
     e8c:	6b e7       	ldi	r22, 0x7B	; 123
     e8e:	88 e5       	ldi	r24, 0x58	; 88
     e90:	ad d9       	rcall	.-3238   	; 0x1ec <sensor_set>
     e92:	4c e1       	ldi	r20, 0x1C	; 28
     e94:	6c e7       	ldi	r22, 0x7C	; 124
     e96:	88 e5       	ldi	r24, 0x58	; 88
     e98:	a9 d9       	rcall	.-3246   	; 0x1ec <sensor_set>
     e9a:	4c e1       	ldi	r20, 0x1C	; 28
     e9c:	6d e7       	ldi	r22, 0x7D	; 125
     e9e:	88 e5       	ldi	r24, 0x58	; 88
     ea0:	a5 d9       	rcall	.-3254   	; 0x1ec <sensor_set>
     ea2:	4a e1       	ldi	r20, 0x1A	; 26
     ea4:	6e e7       	ldi	r22, 0x7E	; 126
     ea6:	88 e5       	ldi	r24, 0x58	; 88
     ea8:	a1 d9       	rcall	.-3262   	; 0x1ec <sensor_set>
     eaa:	4a e1       	ldi	r20, 0x1A	; 26
     eac:	6f e7       	ldi	r22, 0x7F	; 127
     eae:	88 e5       	ldi	r24, 0x58	; 88
     eb0:	9d d9       	rcall	.-3270   	; 0x1ec <sensor_set>
     eb2:	4b e1       	ldi	r20, 0x1B	; 27
     eb4:	60 e8       	ldi	r22, 0x80	; 128
     eb6:	88 e5       	ldi	r24, 0x58	; 88
     eb8:	99 d9       	rcall	.-3278   	; 0x1ec <sensor_set>
     eba:	4f e1       	ldi	r20, 0x1F	; 31
     ebc:	61 e8       	ldi	r22, 0x81	; 129
     ebe:	88 e5       	ldi	r24, 0x58	; 88
     ec0:	95 d9       	rcall	.-3286   	; 0x1ec <sensor_set>
     ec2:	44 e1       	ldi	r20, 0x14	; 20
     ec4:	62 e8       	ldi	r22, 0x82	; 130
     ec6:	88 e5       	ldi	r24, 0x58	; 88
     ec8:	91 d9       	rcall	.-3294   	; 0x1ec <sensor_set>
     eca:	4a e1       	ldi	r20, 0x1A	; 26
     ecc:	63 e8       	ldi	r22, 0x83	; 131
     ece:	88 e5       	ldi	r24, 0x58	; 88
     ed0:	8d d9       	rcall	.-3302   	; 0x1ec <sensor_set>
     ed2:	4d e1       	ldi	r20, 0x1D	; 29
     ed4:	64 e8       	ldi	r22, 0x84	; 132
     ed6:	88 e5       	ldi	r24, 0x58	; 88
     ed8:	89 d9       	rcall	.-3310   	; 0x1ec <sensor_set>
     eda:	4e e1       	ldi	r20, 0x1E	; 30
     edc:	65 e8       	ldi	r22, 0x85	; 133
     ede:	88 e5       	ldi	r24, 0x58	; 88
     ee0:	85 d9       	rcall	.-3318   	; 0x1ec <sensor_set>
     ee2:	4a e1       	ldi	r20, 0x1A	; 26
     ee4:	66 e8       	ldi	r22, 0x86	; 134
     ee6:	88 e5       	ldi	r24, 0x58	; 88
     ee8:	81 d9       	rcall	.-3326   	; 0x1ec <sensor_set>
     eea:	4a e1       	ldi	r20, 0x1A	; 26
     eec:	67 e8       	ldi	r22, 0x87	; 135
     eee:	88 e5       	ldi	r24, 0x58	; 88
     ef0:	7d d9       	rcall	.-3334   	; 0x1ec <sensor_set>
     ef2:	4f ef       	ldi	r20, 0xFF	; 255
     ef4:	60 e8       	ldi	r22, 0x80	; 128
     ef6:	81 e5       	ldi	r24, 0x51	; 81
     ef8:	79 d9       	rcall	.-3342   	; 0x1ec <sensor_set>
     efa:	42 e5       	ldi	r20, 0x52	; 82
     efc:	61 e8       	ldi	r22, 0x81	; 129
     efe:	81 e5       	ldi	r24, 0x51	; 81
     f00:	75 d9       	rcall	.-3350   	; 0x1ec <sensor_set>
     f02:	41 e1       	ldi	r20, 0x11	; 17
     f04:	62 e8       	ldi	r22, 0x82	; 130
     f06:	81 e5       	ldi	r24, 0x51	; 81
     f08:	71 d9       	rcall	.-3358   	; 0x1ec <sensor_set>
     f0a:	44 e1       	ldi	r20, 0x14	; 20
     f0c:	63 e8       	ldi	r22, 0x83	; 131
     f0e:	81 e5       	ldi	r24, 0x51	; 81
     f10:	6d d9       	rcall	.-3366   	; 0x1ec <sensor_set>
     f12:	45 e2       	ldi	r20, 0x25	; 37
     f14:	64 e8       	ldi	r22, 0x84	; 132
     f16:	81 e5       	ldi	r24, 0x51	; 81
     f18:	69 d9       	rcall	.-3374   	; 0x1ec <sensor_set>
     f1a:	44 e2       	ldi	r20, 0x24	; 36
     f1c:	65 e8       	ldi	r22, 0x85	; 133
     f1e:	81 e5       	ldi	r24, 0x51	; 81
     f20:	65 d9       	rcall	.-3382   	; 0x1ec <sensor_set>
     f22:	44 e1       	ldi	r20, 0x14	; 20
     f24:	66 e8       	ldi	r22, 0x86	; 134
     f26:	81 e5       	ldi	r24, 0x51	; 81
     f28:	61 d9       	rcall	.-3390   	; 0x1ec <sensor_set>
     f2a:	44 e1       	ldi	r20, 0x14	; 20
     f2c:	67 e8       	ldi	r22, 0x87	; 135
     f2e:	81 e5       	ldi	r24, 0x51	; 81
     f30:	5d d9       	rcall	.-3398   	; 0x1ec <sensor_set>
     f32:	44 e1       	ldi	r20, 0x14	; 20
     f34:	68 e8       	ldi	r22, 0x88	; 136
     f36:	81 e5       	ldi	r24, 0x51	; 81
     f38:	59 d9       	rcall	.-3406   	; 0x1ec <sensor_set>
     f3a:	49 e6       	ldi	r20, 0x69	; 105
     f3c:	69 e8       	ldi	r22, 0x89	; 137
     f3e:	81 e5       	ldi	r24, 0x51	; 81
     f40:	55 d9       	rcall	.-3414   	; 0x1ec <sensor_set>
     f42:	40 e6       	ldi	r20, 0x60	; 96
     f44:	6a e8       	ldi	r22, 0x8A	; 138
     f46:	81 e5       	ldi	r24, 0x51	; 81
     f48:	51 d9       	rcall	.-3422   	; 0x1ec <sensor_set>
     f4a:	42 ea       	ldi	r20, 0xA2	; 162
     f4c:	6b e8       	ldi	r22, 0x8B	; 139
     f4e:	81 e5       	ldi	r24, 0x51	; 81
     f50:	4d d9       	rcall	.-3430   	; 0x1ec <sensor_set>
     f52:	4c e9       	ldi	r20, 0x9C	; 156
     f54:	6c e8       	ldi	r22, 0x8C	; 140
     f56:	81 e5       	ldi	r24, 0x51	; 81
     f58:	49 d9       	rcall	.-3438   	; 0x1ec <sensor_set>
     f5a:	46 e3       	ldi	r20, 0x36	; 54
     f5c:	6d e8       	ldi	r22, 0x8D	; 141
     f5e:	81 e5       	ldi	r24, 0x51	; 81
     f60:	45 d9       	rcall	.-3446   	; 0x1ec <sensor_set>
     f62:	44 e3       	ldi	r20, 0x34	; 52
     f64:	6e e8       	ldi	r22, 0x8E	; 142
     f66:	81 e5       	ldi	r24, 0x51	; 81
     f68:	41 d9       	rcall	.-3454   	; 0x1ec <sensor_set>
     f6a:	44 e5       	ldi	r20, 0x54	; 84
     f6c:	6f e8       	ldi	r22, 0x8F	; 143
     f6e:	81 e5       	ldi	r24, 0x51	; 81
     f70:	3d d9       	rcall	.-3462   	; 0x1ec <sensor_set>
     f72:	4c e4       	ldi	r20, 0x4C	; 76
     f74:	60 e9       	ldi	r22, 0x90	; 144
     f76:	81 e5       	ldi	r24, 0x51	; 81
     f78:	39 d9       	rcall	.-3470   	; 0x1ec <sensor_set>
     f7a:	48 ef       	ldi	r20, 0xF8	; 248
     f7c:	61 e9       	ldi	r22, 0x91	; 145
     f7e:	81 e5       	ldi	r24, 0x51	; 81
     f80:	35 d9       	rcall	.-3478   	; 0x1ec <sensor_set>
     f82:	44 e0       	ldi	r20, 0x04	; 4
     f84:	62 e9       	ldi	r22, 0x92	; 146
     f86:	81 e5       	ldi	r24, 0x51	; 81
     f88:	31 d9       	rcall	.-3486   	; 0x1ec <sensor_set>
     f8a:	40 e7       	ldi	r20, 0x70	; 112
     f8c:	63 e9       	ldi	r22, 0x93	; 147
     f8e:	81 e5       	ldi	r24, 0x51	; 81
     f90:	2d d9       	rcall	.-3494   	; 0x1ec <sensor_set>
     f92:	40 ef       	ldi	r20, 0xF0	; 240
     f94:	64 e9       	ldi	r22, 0x94	; 148
     f96:	81 e5       	ldi	r24, 0x51	; 81
     f98:	29 d9       	rcall	.-3502   	; 0x1ec <sensor_set>
     f9a:	40 ef       	ldi	r20, 0xF0	; 240
     f9c:	65 e9       	ldi	r22, 0x95	; 149
     f9e:	81 e5       	ldi	r24, 0x51	; 81
     fa0:	25 d9       	rcall	.-3510   	; 0x1ec <sensor_set>
     fa2:	43 e0       	ldi	r20, 0x03	; 3
     fa4:	66 e9       	ldi	r22, 0x96	; 150
     fa6:	81 e5       	ldi	r24, 0x51	; 81
     fa8:	21 d9       	rcall	.-3518   	; 0x1ec <sensor_set>
     faa:	41 e0       	ldi	r20, 0x01	; 1
     fac:	67 e9       	ldi	r22, 0x97	; 151
     fae:	81 e5       	ldi	r24, 0x51	; 81
     fb0:	1d d9       	rcall	.-3526   	; 0x1ec <sensor_set>
     fb2:	45 e0       	ldi	r20, 0x05	; 5
     fb4:	68 e9       	ldi	r22, 0x98	; 152
     fb6:	81 e5       	ldi	r24, 0x51	; 81
     fb8:	19 d9       	rcall	.-3534   	; 0x1ec <sensor_set>
     fba:	4f e2       	ldi	r20, 0x2F	; 47
     fbc:	69 e9       	ldi	r22, 0x99	; 153
     fbe:	81 e5       	ldi	r24, 0x51	; 81
     fc0:	15 d9       	rcall	.-3542   	; 0x1ec <sensor_set>
     fc2:	44 e0       	ldi	r20, 0x04	; 4
     fc4:	6a e9       	ldi	r22, 0x9A	; 154
     fc6:	81 e5       	ldi	r24, 0x51	; 81
     fc8:	11 d9       	rcall	.-3550   	; 0x1ec <sensor_set>
     fca:	40 e0       	ldi	r20, 0x00	; 0
     fcc:	6b e9       	ldi	r22, 0x9B	; 155
     fce:	81 e5       	ldi	r24, 0x51	; 81
     fd0:	0d d9       	rcall	.-3558   	; 0x1ec <sensor_set>
     fd2:	46 e0       	ldi	r20, 0x06	; 6
     fd4:	6c e9       	ldi	r22, 0x9C	; 156
     fd6:	81 e5       	ldi	r24, 0x51	; 81
     fd8:	09 d9       	rcall	.-3566   	; 0x1ec <sensor_set>
     fda:	40 ea       	ldi	r20, 0xA0	; 160
     fdc:	6d e9       	ldi	r22, 0x9D	; 157
     fde:	81 e5       	ldi	r24, 0x51	; 81
     fe0:	05 d9       	rcall	.-3574   	; 0x1ec <sensor_set>
     fe2:	40 ea       	ldi	r20, 0xA0	; 160
     fe4:	6e e9       	ldi	r22, 0x9E	; 158
     fe6:	81 e5       	ldi	r24, 0x51	; 81
     fe8:	01 d9       	rcall	.-3582   	; 0x1ec <sensor_set>
     fea:	40 e0       	ldi	r20, 0x00	; 0
     fec:	6a e8       	ldi	r22, 0x8A	; 138
     fee:	82 e5       	ldi	r24, 0x52	; 82
     ff0:	fd d8       	rcall	.-3590   	; 0x1ec <sensor_set>
     ff2:	41 e0       	ldi	r20, 0x01	; 1
     ff4:	6b e8       	ldi	r22, 0x8B	; 139
     ff6:	82 e5       	ldi	r24, 0x52	; 82
     ff8:	f9 d8       	rcall	.-3598   	; 0x1ec <sensor_set>
     ffa:	44 e0       	ldi	r20, 0x04	; 4
     ffc:	6c e8       	ldi	r22, 0x8C	; 140
     ffe:	82 e5       	ldi	r24, 0x52	; 82
    1000:	f5 d8       	rcall	.-3606   	; 0x1ec <sensor_set>
    1002:	48 e0       	ldi	r20, 0x08	; 8
    1004:	6d e8       	ldi	r22, 0x8D	; 141
    1006:	82 e5       	ldi	r24, 0x52	; 82
    1008:	f1 d8       	rcall	.-3614   	; 0x1ec <sensor_set>
    100a:	40 e1       	ldi	r20, 0x10	; 16
    100c:	6e e8       	ldi	r22, 0x8E	; 142
    100e:	82 e5       	ldi	r24, 0x52	; 82
    1010:	ed d8       	rcall	.-3622   	; 0x1ec <sensor_set>
    1012:	40 e2       	ldi	r20, 0x20	; 32
    1014:	6f e8       	ldi	r22, 0x8F	; 143
    1016:	82 e5       	ldi	r24, 0x52	; 82
    1018:	e9 d8       	rcall	.-3630   	; 0x1ec <sensor_set>
    101a:	40 e3       	ldi	r20, 0x30	; 48
    101c:	60 e9       	ldi	r22, 0x90	; 144
    101e:	82 e5       	ldi	r24, 0x52	; 82
    1020:	e5 d8       	rcall	.-3638   	; 0x1ec <sensor_set>
    1022:	40 e0       	ldi	r20, 0x00	; 0
    1024:	62 e9       	ldi	r22, 0x92	; 146
    1026:	82 e5       	ldi	r24, 0x52	; 82
    1028:	e1 d8       	rcall	.-3646   	; 0x1ec <sensor_set>
    102a:	40 e0       	ldi	r20, 0x00	; 0
    102c:	63 e9       	ldi	r22, 0x93	; 147
    102e:	82 e5       	ldi	r24, 0x52	; 82
    1030:	dd d8       	rcall	.-3654   	; 0x1ec <sensor_set>
    1032:	40 e0       	ldi	r20, 0x00	; 0
    1034:	64 e9       	ldi	r22, 0x94	; 148
    1036:	82 e5       	ldi	r24, 0x52	; 82
    1038:	d9 d8       	rcall	.-3662   	; 0x1ec <sensor_set>
    103a:	41 e0       	ldi	r20, 0x01	; 1
    103c:	65 e9       	ldi	r22, 0x95	; 149
    103e:	82 e5       	ldi	r24, 0x52	; 82
    1040:	d5 d8       	rcall	.-3670   	; 0x1ec <sensor_set>
    1042:	40 e0       	ldi	r20, 0x00	; 0
    1044:	66 e9       	ldi	r22, 0x96	; 150
    1046:	82 e5       	ldi	r24, 0x52	; 82
    1048:	d1 d8       	rcall	.-3678   	; 0x1ec <sensor_set>
    104a:	44 e0       	ldi	r20, 0x04	; 4
    104c:	67 e9       	ldi	r22, 0x97	; 151
    104e:	82 e5       	ldi	r24, 0x52	; 82
    1050:	cd d8       	rcall	.-3686   	; 0x1ec <sensor_set>
    1052:	40 e0       	ldi	r20, 0x00	; 0
    1054:	68 e9       	ldi	r22, 0x98	; 152
    1056:	82 e5       	ldi	r24, 0x52	; 82
    1058:	c9 d8       	rcall	.-3694   	; 0x1ec <sensor_set>
    105a:	48 e0       	ldi	r20, 0x08	; 8
    105c:	69 e9       	ldi	r22, 0x99	; 153
    105e:	82 e5       	ldi	r24, 0x52	; 82
    1060:	c5 d8       	rcall	.-3702   	; 0x1ec <sensor_set>
    1062:	40 e0       	ldi	r20, 0x00	; 0
    1064:	6a e9       	ldi	r22, 0x9A	; 154
    1066:	82 e5       	ldi	r24, 0x52	; 82
    1068:	c1 d8       	rcall	.-3710   	; 0x1ec <sensor_set>
    106a:	40 e1       	ldi	r20, 0x10	; 16
    106c:	6b e9       	ldi	r22, 0x9B	; 155
    106e:	82 e5       	ldi	r24, 0x52	; 82
    1070:	bd d8       	rcall	.-3718   	; 0x1ec <sensor_set>
    1072:	40 e0       	ldi	r20, 0x00	; 0
    1074:	6c e9       	ldi	r22, 0x9C	; 156
    1076:	82 e5       	ldi	r24, 0x52	; 82
    1078:	b9 d8       	rcall	.-3726   	; 0x1ec <sensor_set>
    107a:	40 e2       	ldi	r20, 0x20	; 32
    107c:	6d e9       	ldi	r22, 0x9D	; 157
    107e:	82 e5       	ldi	r24, 0x52	; 82
    1080:	b5 d8       	rcall	.-3734   	; 0x1ec <sensor_set>
    1082:	40 e0       	ldi	r20, 0x00	; 0
    1084:	6e e9       	ldi	r22, 0x9E	; 158
    1086:	82 e5       	ldi	r24, 0x52	; 82
    1088:	b1 d8       	rcall	.-3742   	; 0x1ec <sensor_set>
    108a:	40 e3       	ldi	r20, 0x30	; 48
    108c:	6f e9       	ldi	r22, 0x9F	; 159
    108e:	82 e5       	ldi	r24, 0x52	; 82
    1090:	ad d8       	rcall	.-3750   	; 0x1ec <sensor_set>
    1092:	40 e0       	ldi	r20, 0x00	; 0
    1094:	62 e8       	ldi	r22, 0x82	; 130
    1096:	82 e5       	ldi	r24, 0x52	; 82
    1098:	a9 d8       	rcall	.-3758   	; 0x1ec <sensor_set>
    109a:	40 e0       	ldi	r20, 0x00	; 0
    109c:	60 e0       	ldi	r22, 0x00	; 0
    109e:	83 e5       	ldi	r24, 0x53	; 83
    10a0:	a5 d8       	rcall	.-3766   	; 0x1ec <sensor_set>
    10a2:	40 e2       	ldi	r20, 0x20	; 32
    10a4:	61 e0       	ldi	r22, 0x01	; 1
    10a6:	83 e5       	ldi	r24, 0x53	; 83
    10a8:	a1 d8       	rcall	.-3774   	; 0x1ec <sensor_set>
    10aa:	40 e0       	ldi	r20, 0x00	; 0
    10ac:	62 e0       	ldi	r22, 0x02	; 2
    10ae:	83 e5       	ldi	r24, 0x53	; 83
    10b0:	9d d8       	rcall	.-3782   	; 0x1ec <sensor_set>
    10b2:	4c e7       	ldi	r20, 0x7C	; 124
    10b4:	63 e0       	ldi	r22, 0x03	; 3
    10b6:	83 e5       	ldi	r24, 0x53	; 83
    10b8:	99 d8       	rcall	.-3790   	; 0x1ec <sensor_set>
    10ba:	40 e0       	ldi	r20, 0x00	; 0
    10bc:	6c e0       	ldi	r22, 0x0C	; 12
    10be:	83 e5       	ldi	r24, 0x53	; 83
    10c0:	95 d8       	rcall	.-3798   	; 0x1ec <sensor_set>
    10c2:	40 e1       	ldi	r20, 0x10	; 16
    10c4:	6d e0       	ldi	r22, 0x0D	; 13
    10c6:	83 e5       	ldi	r24, 0x53	; 83
    10c8:	91 d8       	rcall	.-3806   	; 0x1ec <sensor_set>
    10ca:	40 e2       	ldi	r20, 0x20	; 32
    10cc:	6e e0       	ldi	r22, 0x0E	; 14
    10ce:	83 e5       	ldi	r24, 0x53	; 83
    10d0:	8d d8       	rcall	.-3814   	; 0x1ec <sensor_set>
    10d2:	40 e8       	ldi	r20, 0x80	; 128
    10d4:	6f e0       	ldi	r22, 0x0F	; 15
    10d6:	83 e5       	ldi	r24, 0x53	; 83
    10d8:	89 d8       	rcall	.-3822   	; 0x1ec <sensor_set>
    10da:	40 e2       	ldi	r20, 0x20	; 32
    10dc:	60 e1       	ldi	r22, 0x10	; 16
    10de:	83 e5       	ldi	r24, 0x53	; 83
    10e0:	85 d8       	rcall	.-3830   	; 0x1ec <sensor_set>
    10e2:	40 e8       	ldi	r20, 0x80	; 128
    10e4:	61 e1       	ldi	r22, 0x11	; 17
    10e6:	83 e5       	ldi	r24, 0x53	; 83
    10e8:	81 d8       	rcall	.-3838   	; 0x1ec <sensor_set>
    10ea:	40 e2       	ldi	r20, 0x20	; 32
    10ec:	68 e0       	ldi	r22, 0x08	; 8
    10ee:	83 e5       	ldi	r24, 0x53	; 83
    10f0:	7d d8       	rcall	.-3846   	; 0x1ec <sensor_set>
    10f2:	40 e4       	ldi	r20, 0x40	; 64
    10f4:	69 e0       	ldi	r22, 0x09	; 9
    10f6:	83 e5       	ldi	r24, 0x53	; 83
    10f8:	79 d8       	rcall	.-3854   	; 0x1ec <sensor_set>
    10fa:	40 e0       	ldi	r20, 0x00	; 0
    10fc:	64 e0       	ldi	r22, 0x04	; 4
    10fe:	83 e5       	ldi	r24, 0x53	; 83
    1100:	75 d8       	rcall	.-3862   	; 0x1ec <sensor_set>
    1102:	40 e3       	ldi	r20, 0x30	; 48
    1104:	65 e0       	ldi	r22, 0x05	; 5
    1106:	83 e5       	ldi	r24, 0x53	; 83
    1108:	71 d8       	rcall	.-3870   	; 0x1ec <sensor_set>
    110a:	40 e0       	ldi	r20, 0x00	; 0
    110c:	66 e0       	ldi	r22, 0x06	; 6
    110e:	83 e5       	ldi	r24, 0x53	; 83
    1110:	6d d8       	rcall	.-3878   	; 0x1ec <sensor_set>
    1112:	40 e8       	ldi	r20, 0x80	; 128
    1114:	67 e0       	ldi	r22, 0x07	; 7
    1116:	83 e5       	ldi	r24, 0x53	; 83
    1118:	69 d8       	rcall	.-3886   	; 0x1ec <sensor_set>
    111a:	48 e0       	ldi	r20, 0x08	; 8
    111c:	64 e1       	ldi	r22, 0x14	; 20
    111e:	83 e5       	ldi	r24, 0x53	; 83
    1120:	65 d8       	rcall	.-3894   	; 0x1ec <sensor_set>
    1122:	40 e2       	ldi	r20, 0x20	; 32
    1124:	65 e1       	ldi	r22, 0x15	; 21
    1126:	83 e5       	ldi	r24, 0x53	; 83
    1128:	61 d8       	rcall	.-3902   	; 0x1ec <sensor_set>
    112a:	40 e3       	ldi	r20, 0x30	; 48
    112c:	69 e1       	ldi	r22, 0x19	; 25
    112e:	83 e5       	ldi	r24, 0x53	; 83
    1130:	5d d8       	rcall	.-3910   	; 0x1ec <sensor_set>
    1132:	40 e1       	ldi	r20, 0x10	; 16
    1134:	66 e1       	ldi	r22, 0x16	; 22
    1136:	83 e5       	ldi	r24, 0x53	; 83
    1138:	59 d8       	rcall	.-3918   	; 0x1ec <sensor_set>
    113a:	40 e0       	ldi	r20, 0x00	; 0
    113c:	67 e1       	ldi	r22, 0x17	; 23
    113e:	83 e5       	ldi	r24, 0x53	; 83
    1140:	55 d8       	rcall	.-3926   	; 0x1ec <sensor_set>
    1142:	42 e0       	ldi	r20, 0x02	; 2
    1144:	68 e1       	ldi	r22, 0x18	; 24
    1146:	83 e5       	ldi	r24, 0x53	; 83
    1148:	51 d8       	rcall	.-3934   	; 0x1ec <sensor_set>
    114a:	41 e0       	ldi	r20, 0x01	; 1
    114c:	60 e8       	ldi	r22, 0x80	; 128
    114e:	83 e5       	ldi	r24, 0x53	; 83
    1150:	4d d8       	rcall	.-3942   	; 0x1ec <sensor_set>
    1152:	40 e0       	ldi	r20, 0x00	; 0
    1154:	61 e8       	ldi	r22, 0x81	; 129
    1156:	83 e5       	ldi	r24, 0x53	; 83
    1158:	49 d8       	rcall	.-3950   	; 0x1ec <sensor_set>
    115a:	40 e0       	ldi	r20, 0x00	; 0
    115c:	62 e8       	ldi	r22, 0x82	; 130
    115e:	83 e5       	ldi	r24, 0x53	; 83
    1160:	45 d8       	rcall	.-3958   	; 0x1ec <sensor_set>
    1162:	4f e1       	ldi	r20, 0x1F	; 31
    1164:	63 e8       	ldi	r22, 0x83	; 131
    1166:	83 e5       	ldi	r24, 0x53	; 83
    1168:	41 d8       	rcall	.-3966   	; 0x1ec <sensor_set>
    116a:	40 e0       	ldi	r20, 0x00	; 0
    116c:	64 e8       	ldi	r22, 0x84	; 132
    116e:	83 e5       	ldi	r24, 0x53	; 83
    1170:	3d d8       	rcall	.-3974   	; 0x1ec <sensor_set>
    1172:	46 e0       	ldi	r20, 0x06	; 6
    1174:	65 e8       	ldi	r22, 0x85	; 133
    1176:	83 e5       	ldi	r24, 0x53	; 83
    1178:	39 d8       	rcall	.-3982   	; 0x1ec <sensor_set>
    117a:	40 e0       	ldi	r20, 0x00	; 0
    117c:	66 e8       	ldi	r22, 0x86	; 134
    117e:	83 e5       	ldi	r24, 0x53	; 83
    1180:	35 d8       	rcall	.-3990   	; 0x1ec <sensor_set>
    1182:	40 e0       	ldi	r20, 0x00	; 0
    1184:	67 e8       	ldi	r22, 0x87	; 135
    1186:	83 e5       	ldi	r24, 0x53	; 83
    1188:	31 d8       	rcall	.-3998   	; 0x1ec <sensor_set>
    118a:	40 e0       	ldi	r20, 0x00	; 0
    118c:	68 e8       	ldi	r22, 0x88	; 136
    118e:	83 e5       	ldi	r24, 0x53	; 83
    1190:	2d d8       	rcall	.-4006   	; 0x1ec <sensor_set>
    1192:	41 ee       	ldi	r20, 0xE1	; 225
    1194:	69 e8       	ldi	r22, 0x89	; 137
    1196:	83 e5       	ldi	r24, 0x53	; 83
    1198:	29 d8       	rcall	.-4014   	; 0x1ec <sensor_set>
    119a:	40 e0       	ldi	r20, 0x00	; 0
    119c:	6a e8       	ldi	r22, 0x8A	; 138
    119e:	83 e5       	ldi	r24, 0x53	; 83
    11a0:	25 d8       	rcall	.-4022   	; 0x1ec <sensor_set>
    11a2:	4b e2       	ldi	r20, 0x2B	; 43
    11a4:	6b e8       	ldi	r22, 0x8B	; 139
    11a6:	83 e5       	ldi	r24, 0x53	; 83
    11a8:	21 d8       	rcall	.-4030   	; 0x1ec <sensor_set>
    11aa:	40 e0       	ldi	r20, 0x00	; 0
    11ac:	6c e8       	ldi	r22, 0x8C	; 140
    11ae:	83 e5       	ldi	r24, 0x53	; 83
    11b0:	1d d8       	rcall	.-4038   	; 0x1ec <sensor_set>
    11b2:	40 e0       	ldi	r20, 0x00	; 0
    11b4:	6d e8       	ldi	r22, 0x8D	; 141
    11b6:	83 e5       	ldi	r24, 0x53	; 83
    11b8:	19 d8       	rcall	.-4046   	; 0x1ec <sensor_set>
    11ba:	40 e0       	ldi	r20, 0x00	; 0
    11bc:	6e e8       	ldi	r22, 0x8E	; 142
    11be:	83 e5       	ldi	r24, 0x53	; 83
    11c0:	15 d8       	rcall	.-4054   	; 0x1ec <sensor_set>
    11c2:	40 e1       	ldi	r20, 0x10	; 16
    11c4:	6f e8       	ldi	r22, 0x8F	; 143
    11c6:	83 e5       	ldi	r24, 0x53	; 83
    11c8:	11 d8       	rcall	.-4062   	; 0x1ec <sensor_set>
    11ca:	40 e0       	ldi	r20, 0x00	; 0
    11cc:	60 e9       	ldi	r22, 0x90	; 144
    11ce:	83 e5       	ldi	r24, 0x53	; 83
    11d0:	0d d8       	rcall	.-4070   	; 0x1ec <sensor_set>
    11d2:	43 eb       	ldi	r20, 0xB3	; 179
    11d4:	61 e9       	ldi	r22, 0x91	; 145
    11d6:	83 e5       	ldi	r24, 0x53	; 83
    11d8:	09 d8       	rcall	.-4078   	; 0x1ec <sensor_set>
    11da:	40 e0       	ldi	r20, 0x00	; 0
    11dc:	62 e9       	ldi	r22, 0x92	; 146
    11de:	83 e5       	ldi	r24, 0x53	; 83
    11e0:	05 d8       	rcall	.-4086   	; 0x1ec <sensor_set>
    11e2:	46 ea       	ldi	r20, 0xA6	; 166
    11e4:	63 e9       	ldi	r22, 0x93	; 147
    11e6:	83 e5       	ldi	r24, 0x53	; 83
    11e8:	01 d8       	rcall	.-4094   	; 0x1ec <sensor_set>
    11ea:	48 e0       	ldi	r20, 0x08	; 8
    11ec:	64 e9       	ldi	r22, 0x94	; 148
    11ee:	83 e5       	ldi	r24, 0x53	; 83
    11f0:	0e 94 f6 00 	call	0x1ec	; 0x1ec <sensor_set>
    11f4:	4c e0       	ldi	r20, 0x0C	; 12
    11f6:	60 e8       	ldi	r22, 0x80	; 128
    11f8:	84 e5       	ldi	r24, 0x54	; 84
    11fa:	0e 94 f6 00 	call	0x1ec	; 0x1ec <sensor_set>
    11fe:	48 e1       	ldi	r20, 0x18	; 24
    1200:	61 e8       	ldi	r22, 0x81	; 129
    1202:	84 e5       	ldi	r24, 0x54	; 84
    1204:	0e 94 f6 00 	call	0x1ec	; 0x1ec <sensor_set>
    1208:	4f e2       	ldi	r20, 0x2F	; 47
    120a:	62 e8       	ldi	r22, 0x82	; 130
    120c:	84 e5       	ldi	r24, 0x54	; 84
    120e:	0e 94 f6 00 	call	0x1ec	; 0x1ec <sensor_set>
    1212:	45 e5       	ldi	r20, 0x55	; 85
    1214:	63 e8       	ldi	r22, 0x83	; 131
    1216:	84 e5       	ldi	r24, 0x54	; 84
    1218:	0e 94 f6 00 	call	0x1ec	; 0x1ec <sensor_set>
    121c:	44 e6       	ldi	r20, 0x64	; 100
    121e:	64 e8       	ldi	r22, 0x84	; 132
    1220:	84 e5       	ldi	r24, 0x54	; 84
    1222:	0e 94 f6 00 	call	0x1ec	; 0x1ec <sensor_set>
    1226:	41 e7       	ldi	r20, 0x71	; 113
    1228:	65 e8       	ldi	r22, 0x85	; 133
    122a:	84 e5       	ldi	r24, 0x54	; 84
    122c:	0e 94 f6 00 	call	0x1ec	; 0x1ec <sensor_set>
    1230:	4d e7       	ldi	r20, 0x7D	; 125
    1232:	66 e8       	ldi	r22, 0x86	; 134
    1234:	84 e5       	ldi	r24, 0x54	; 84
    1236:	0e 94 f6 00 	call	0x1ec	; 0x1ec <sensor_set>
    123a:	47 e8       	ldi	r20, 0x87	; 135
    123c:	67 e8       	ldi	r22, 0x87	; 135
    123e:	84 e5       	ldi	r24, 0x54	; 84
    1240:	0e 94 f6 00 	call	0x1ec	; 0x1ec <sensor_set>
    1244:	41 e9       	ldi	r20, 0x91	; 145
    1246:	68 e8       	ldi	r22, 0x88	; 136
    1248:	84 e5       	ldi	r24, 0x54	; 84
    124a:	0e 94 f6 00 	call	0x1ec	; 0x1ec <sensor_set>
    124e:	4a e9       	ldi	r20, 0x9A	; 154
    1250:	69 e8       	ldi	r22, 0x89	; 137
    1252:	84 e5       	ldi	r24, 0x54	; 84
    1254:	0e 94 f6 00 	call	0x1ec	; 0x1ec <sensor_set>
    1258:	4a ea       	ldi	r20, 0xAA	; 170
    125a:	6a e8       	ldi	r22, 0x8A	; 138
    125c:	84 e5       	ldi	r24, 0x54	; 84
    125e:	0e 94 f6 00 	call	0x1ec	; 0x1ec <sensor_set>
    1262:	48 eb       	ldi	r20, 0xB8	; 184
    1264:	6b e8       	ldi	r22, 0x8B	; 139
    1266:	84 e5       	ldi	r24, 0x54	; 84
    1268:	0e 94 f6 00 	call	0x1ec	; 0x1ec <sensor_set>
    126c:	4d ec       	ldi	r20, 0xCD	; 205
    126e:	6c e8       	ldi	r22, 0x8C	; 140
    1270:	84 e5       	ldi	r24, 0x54	; 84
    1272:	0e 94 f6 00 	call	0x1ec	; 0x1ec <sensor_set>
    1276:	4d ed       	ldi	r20, 0xDD	; 221
    1278:	6d e8       	ldi	r22, 0x8D	; 141
    127a:	84 e5       	ldi	r24, 0x54	; 84
    127c:	0e 94 f6 00 	call	0x1ec	; 0x1ec <sensor_set>
    1280:	4a ee       	ldi	r20, 0xEA	; 234
    1282:	6e e8       	ldi	r22, 0x8E	; 142
    1284:	84 e5       	ldi	r24, 0x54	; 84
    1286:	0e 94 f6 00 	call	0x1ec	; 0x1ec <sensor_set>
    128a:	4d e1       	ldi	r20, 0x1D	; 29
    128c:	6f e8       	ldi	r22, 0x8F	; 143
    128e:	84 e5       	ldi	r24, 0x54	; 84
    1290:	0e 94 f6 00 	call	0x1ec	; 0x1ec <sensor_set>
    1294:	45 e0       	ldi	r20, 0x05	; 5
    1296:	60 e9       	ldi	r22, 0x90	; 144
    1298:	84 e5       	ldi	r24, 0x54	; 84
    129a:	0e 94 f6 00 	call	0x1ec	; 0x1ec <sensor_set>
    129e:	40 e0       	ldi	r20, 0x00	; 0
    12a0:	61 e9       	ldi	r22, 0x91	; 145
    12a2:	84 e5       	ldi	r24, 0x54	; 84
    12a4:	0e 94 f6 00 	call	0x1ec	; 0x1ec <sensor_set>
    12a8:	44 e0       	ldi	r20, 0x04	; 4
    12aa:	62 e9       	ldi	r22, 0x92	; 146
    12ac:	84 e5       	ldi	r24, 0x54	; 84
    12ae:	0e 94 f6 00 	call	0x1ec	; 0x1ec <sensor_set>
    12b2:	40 e2       	ldi	r20, 0x20	; 32
    12b4:	63 e9       	ldi	r22, 0x93	; 147
    12b6:	84 e5       	ldi	r24, 0x54	; 84
    12b8:	0e 94 f6 00 	call	0x1ec	; 0x1ec <sensor_set>
    12bc:	43 e0       	ldi	r20, 0x03	; 3
    12be:	64 e9       	ldi	r22, 0x94	; 148
    12c0:	84 e5       	ldi	r24, 0x54	; 84
    12c2:	0e 94 f6 00 	call	0x1ec	; 0x1ec <sensor_set>
    12c6:	40 e6       	ldi	r20, 0x60	; 96
    12c8:	65 e9       	ldi	r22, 0x95	; 149
    12ca:	84 e5       	ldi	r24, 0x54	; 84
    12cc:	0e 94 f6 00 	call	0x1ec	; 0x1ec <sensor_set>
    12d0:	42 e0       	ldi	r20, 0x02	; 2
    12d2:	66 e9       	ldi	r22, 0x96	; 150
    12d4:	84 e5       	ldi	r24, 0x54	; 84
    12d6:	0e 94 f6 00 	call	0x1ec	; 0x1ec <sensor_set>
    12da:	48 eb       	ldi	r20, 0xB8	; 184
    12dc:	67 e9       	ldi	r22, 0x97	; 151
    12de:	84 e5       	ldi	r24, 0x54	; 84
    12e0:	0e 94 f6 00 	call	0x1ec	; 0x1ec <sensor_set>
    12e4:	42 e0       	ldi	r20, 0x02	; 2
    12e6:	68 e9       	ldi	r22, 0x98	; 152
    12e8:	84 e5       	ldi	r24, 0x54	; 84
    12ea:	0e 94 f6 00 	call	0x1ec	; 0x1ec <sensor_set>
    12ee:	46 e8       	ldi	r20, 0x86	; 134
    12f0:	69 e9       	ldi	r22, 0x99	; 153
    12f2:	84 e5       	ldi	r24, 0x54	; 84
    12f4:	0e 94 f6 00 	call	0x1ec	; 0x1ec <sensor_set>
    12f8:	42 e0       	ldi	r20, 0x02	; 2
    12fa:	6a e9       	ldi	r22, 0x9A	; 154
    12fc:	84 e5       	ldi	r24, 0x54	; 84
    12fe:	0e 94 f6 00 	call	0x1ec	; 0x1ec <sensor_set>
    1302:	4b e5       	ldi	r20, 0x5B	; 91
    1304:	6b e9       	ldi	r22, 0x9B	; 155
    1306:	84 e5       	ldi	r24, 0x54	; 84
    1308:	0e 94 f6 00 	call	0x1ec	; 0x1ec <sensor_set>
    130c:	42 e0       	ldi	r20, 0x02	; 2
    130e:	6c e9       	ldi	r22, 0x9C	; 156
    1310:	84 e5       	ldi	r24, 0x54	; 84
    1312:	0e 94 f6 00 	call	0x1ec	; 0x1ec <sensor_set>
    1316:	4b e3       	ldi	r20, 0x3B	; 59
    1318:	6d e9       	ldi	r22, 0x9D	; 157
    131a:	84 e5       	ldi	r24, 0x54	; 84
    131c:	0e 94 f6 00 	call	0x1ec	; 0x1ec <sensor_set>
    1320:	42 e0       	ldi	r20, 0x02	; 2
    1322:	6e e9       	ldi	r22, 0x9E	; 158
    1324:	84 e5       	ldi	r24, 0x54	; 84
    1326:	0e 94 f6 00 	call	0x1ec	; 0x1ec <sensor_set>
    132a:	4c e1       	ldi	r20, 0x1C	; 28
    132c:	6f e9       	ldi	r22, 0x9F	; 159
    132e:	84 e5       	ldi	r24, 0x54	; 84
    1330:	0e 94 f6 00 	call	0x1ec	; 0x1ec <sensor_set>
    1334:	42 e0       	ldi	r20, 0x02	; 2
    1336:	60 ea       	ldi	r22, 0xA0	; 160
    1338:	84 e5       	ldi	r24, 0x54	; 84
    133a:	0e 94 f6 00 	call	0x1ec	; 0x1ec <sensor_set>
    133e:	44 e0       	ldi	r20, 0x04	; 4
    1340:	61 ea       	ldi	r22, 0xA1	; 161
    1342:	84 e5       	ldi	r24, 0x54	; 84
    1344:	0e 94 f6 00 	call	0x1ec	; 0x1ec <sensor_set>
    1348:	41 e0       	ldi	r20, 0x01	; 1
    134a:	62 ea       	ldi	r22, 0xA2	; 162
    134c:	84 e5       	ldi	r24, 0x54	; 84
    134e:	0e 94 f6 00 	call	0x1ec	; 0x1ec <sensor_set>
    1352:	4d ee       	ldi	r20, 0xED	; 237
    1354:	63 ea       	ldi	r22, 0xA3	; 163
    1356:	84 e5       	ldi	r24, 0x54	; 84
    1358:	0e 94 f6 00 	call	0x1ec	; 0x1ec <sensor_set>
    135c:	41 e0       	ldi	r20, 0x01	; 1
    135e:	64 ea       	ldi	r22, 0xA4	; 164
    1360:	84 e5       	ldi	r24, 0x54	; 84
    1362:	0e 94 f6 00 	call	0x1ec	; 0x1ec <sensor_set>
    1366:	45 ec       	ldi	r20, 0xC5	; 197
    1368:	65 ea       	ldi	r22, 0xA5	; 165
    136a:	84 e5       	ldi	r24, 0x54	; 84
    136c:	0e 94 f6 00 	call	0x1ec	; 0x1ec <sensor_set>
    1370:	41 e0       	ldi	r20, 0x01	; 1
    1372:	66 ea       	ldi	r22, 0xA6	; 166
    1374:	84 e5       	ldi	r24, 0x54	; 84
    1376:	0e 94 f6 00 	call	0x1ec	; 0x1ec <sensor_set>
    137a:	45 ea       	ldi	r20, 0xA5	; 165
    137c:	67 ea       	ldi	r22, 0xA7	; 167
    137e:	84 e5       	ldi	r24, 0x54	; 84
    1380:	0e 94 f6 00 	call	0x1ec	; 0x1ec <sensor_set>
    1384:	41 e0       	ldi	r20, 0x01	; 1
    1386:	68 ea       	ldi	r22, 0xA8	; 168
    1388:	84 e5       	ldi	r24, 0x54	; 84
    138a:	0e 94 f6 00 	call	0x1ec	; 0x1ec <sensor_set>
    138e:	4c e6       	ldi	r20, 0x6C	; 108
    1390:	69 ea       	ldi	r22, 0xA9	; 169
    1392:	84 e5       	ldi	r24, 0x54	; 84
    1394:	0e 94 f6 00 	call	0x1ec	; 0x1ec <sensor_set>
    1398:	41 e0       	ldi	r20, 0x01	; 1
    139a:	6a ea       	ldi	r22, 0xAA	; 170
    139c:	84 e5       	ldi	r24, 0x54	; 84
    139e:	0e 94 f6 00 	call	0x1ec	; 0x1ec <sensor_set>
    13a2:	41 e4       	ldi	r20, 0x41	; 65
    13a4:	6b ea       	ldi	r22, 0xAB	; 171
    13a6:	84 e5       	ldi	r24, 0x54	; 84
    13a8:	0e 94 f6 00 	call	0x1ec	; 0x1ec <sensor_set>
    13ac:	41 e0       	ldi	r20, 0x01	; 1
    13ae:	6c ea       	ldi	r22, 0xAC	; 172
    13b0:	84 e5       	ldi	r24, 0x54	; 84
    13b2:	0e 94 f6 00 	call	0x1ec	; 0x1ec <sensor_set>
    13b6:	40 e2       	ldi	r20, 0x20	; 32
    13b8:	6d ea       	ldi	r22, 0xAD	; 173
    13ba:	84 e5       	ldi	r24, 0x54	; 84
    13bc:	0e 94 f6 00 	call	0x1ec	; 0x1ec <sensor_set>
    13c0:	40 e0       	ldi	r20, 0x00	; 0
    13c2:	6e ea       	ldi	r22, 0xAE	; 174
    13c4:	84 e5       	ldi	r24, 0x54	; 84
    13c6:	0e 94 f6 00 	call	0x1ec	; 0x1ec <sensor_set>
    13ca:	46 e1       	ldi	r20, 0x16	; 22
    13cc:	6f ea       	ldi	r22, 0xAF	; 175
    13ce:	84 e5       	ldi	r24, 0x54	; 84
    13d0:	0e 94 f6 00 	call	0x1ec	; 0x1ec <sensor_set>
    13d4:	41 e0       	ldi	r20, 0x01	; 1
    13d6:	60 eb       	ldi	r22, 0xB0	; 176
    13d8:	84 e5       	ldi	r24, 0x54	; 84
    13da:	0e 94 f6 00 	call	0x1ec	; 0x1ec <sensor_set>
    13de:	40 e2       	ldi	r20, 0x20	; 32
    13e0:	61 eb       	ldi	r22, 0xB1	; 177
    13e2:	84 e5       	ldi	r24, 0x54	; 84
    13e4:	0e 94 f6 00 	call	0x1ec	; 0x1ec <sensor_set>
    13e8:	40 e0       	ldi	r20, 0x00	; 0
    13ea:	62 eb       	ldi	r22, 0xB2	; 178
    13ec:	84 e5       	ldi	r24, 0x54	; 84
    13ee:	0e 94 f6 00 	call	0x1ec	; 0x1ec <sensor_set>
    13f2:	40 e1       	ldi	r20, 0x10	; 16
    13f4:	63 eb       	ldi	r22, 0xB3	; 179
    13f6:	84 e5       	ldi	r24, 0x54	; 84
    13f8:	0e 94 f6 00 	call	0x1ec	; 0x1ec <sensor_set>
    13fc:	40 e0       	ldi	r20, 0x00	; 0
    13fe:	64 eb       	ldi	r22, 0xB4	; 180
    1400:	84 e5       	ldi	r24, 0x54	; 84
    1402:	0e 94 f6 00 	call	0x1ec	; 0x1ec <sensor_set>
    1406:	40 ef       	ldi	r20, 0xF0	; 240
    1408:	65 eb       	ldi	r22, 0xB5	; 181
    140a:	84 e5       	ldi	r24, 0x54	; 84
    140c:	0e 94 f6 00 	call	0x1ec	; 0x1ec <sensor_set>
    1410:	40 e0       	ldi	r20, 0x00	; 0
    1412:	66 eb       	ldi	r22, 0xB6	; 182
    1414:	84 e5       	ldi	r24, 0x54	; 84
    1416:	0e 94 f6 00 	call	0x1ec	; 0x1ec <sensor_set>
    141a:	4f ed       	ldi	r20, 0xDF	; 223
    141c:	67 eb       	ldi	r22, 0xB7	; 183
    141e:	84 e5       	ldi	r24, 0x54	; 84
    1420:	0e 94 f6 00 	call	0x1ec	; 0x1ec <sensor_set>
    1424:	4f e3       	ldi	r20, 0x3F	; 63
    1426:	62 e0       	ldi	r22, 0x02	; 2
    1428:	84 e5       	ldi	r24, 0x54	; 84
    142a:	0e 94 f6 00 	call	0x1ec	; 0x1ec <sensor_set>
    142e:	40 e0       	ldi	r20, 0x00	; 0
    1430:	63 e0       	ldi	r22, 0x03	; 3
    1432:	84 e5       	ldi	r24, 0x54	; 84
    1434:	0e 94 f6 00 	call	0x1ec	; 0x1ec <sensor_set>
    1438:	40 e1       	ldi	r20, 0x10	; 16
    143a:	60 e0       	ldi	r22, 0x00	; 0
    143c:	85 e5       	ldi	r24, 0x55	; 85
    143e:	0e 94 f6 00 	call	0x1ec	; 0x1ec <sensor_set>
    1442:	40 e0       	ldi	r20, 0x00	; 0
    1444:	62 e0       	ldi	r22, 0x02	; 2
    1446:	85 e5       	ldi	r24, 0x55	; 85
    1448:	0e 94 f6 00 	call	0x1ec	; 0x1ec <sensor_set>
    144c:	46 e0       	ldi	r20, 0x06	; 6
    144e:	63 e0       	ldi	r22, 0x03	; 3
    1450:	85 e5       	ldi	r24, 0x55	; 85
    1452:	0e 94 f6 00 	call	0x1ec	; 0x1ec <sensor_set>
    1456:	40 e0       	ldi	r20, 0x00	; 0
    1458:	64 e0       	ldi	r22, 0x04	; 4
    145a:	85 e5       	ldi	r24, 0x55	; 85
    145c:	0e 94 f6 00 	call	0x1ec	; 0x1ec <sensor_set>
    1460:	4f e7       	ldi	r20, 0x7F	; 127
    1462:	65 e0       	ldi	r22, 0x05	; 5
    1464:	85 e5       	ldi	r24, 0x55	; 85
    1466:	0e 94 f6 00 	call	0x1ec	; 0x1ec <sensor_set>
    146a:	40 e8       	ldi	r20, 0x80	; 128
    146c:	65 e2       	ldi	r22, 0x25	; 37
    146e:	80 e5       	ldi	r24, 0x50	; 80
    1470:	0e 94 f6 00 	call	0x1ec	; 0x1ec <sensor_set>
    1474:	40 e3       	ldi	r20, 0x30	; 48
    1476:	6f e0       	ldi	r22, 0x0F	; 15
    1478:	8a e3       	ldi	r24, 0x3A	; 58
    147a:	0e 94 f6 00 	call	0x1ec	; 0x1ec <sensor_set>
    147e:	48 e2       	ldi	r20, 0x28	; 40
    1480:	60 e1       	ldi	r22, 0x10	; 16
    1482:	8a e3       	ldi	r24, 0x3A	; 58
    1484:	0e 94 f6 00 	call	0x1ec	; 0x1ec <sensor_set>
    1488:	40 e3       	ldi	r20, 0x30	; 48
    148a:	6b e1       	ldi	r22, 0x1B	; 27
    148c:	8a e3       	ldi	r24, 0x3A	; 58
    148e:	0e 94 f6 00 	call	0x1ec	; 0x1ec <sensor_set>
    1492:	48 e2       	ldi	r20, 0x28	; 40
    1494:	6e e1       	ldi	r22, 0x1E	; 30
    1496:	8a e3       	ldi	r24, 0x3A	; 58
    1498:	0e 94 f6 00 	call	0x1ec	; 0x1ec <sensor_set>
    149c:	41 e6       	ldi	r20, 0x61	; 97
    149e:	61 e1       	ldi	r22, 0x11	; 17
    14a0:	8a e3       	ldi	r24, 0x3A	; 58
    14a2:	0e 94 f6 00 	call	0x1ec	; 0x1ec <sensor_set>
    14a6:	40 e1       	ldi	r20, 0x10	; 16
    14a8:	6f e1       	ldi	r22, 0x1F	; 31
    14aa:	8a e3       	ldi	r24, 0x3A	; 58
    14ac:	0e 94 f6 00 	call	0x1ec	; 0x1ec <sensor_set>
    14b0:	4d ef       	ldi	r20, 0xFD	; 253
    14b2:	68 e8       	ldi	r22, 0x88	; 136
    14b4:	86 e5       	ldi	r24, 0x56	; 86
    14b6:	0e 94 f6 00 	call	0x1ec	; 0x1ec <sensor_set>
    14ba:	4f ed       	ldi	r20, 0xDF	; 223
    14bc:	69 e8       	ldi	r22, 0x89	; 137
    14be:	86 e5       	ldi	r24, 0x56	; 86
    14c0:	0e 94 f6 00 	call	0x1ec	; 0x1ec <sensor_set>
    14c4:	4e ef       	ldi	r20, 0xFE	; 254
    14c6:	6a e8       	ldi	r22, 0x8A	; 138
    14c8:	86 e5       	ldi	r24, 0x56	; 86
    14ca:	0e 94 f6 00 	call	0x1ec	; 0x1ec <sensor_set>
    14ce:	4f ee       	ldi	r20, 0xEF	; 239
    14d0:	6b e8       	ldi	r22, 0x8B	; 139
    14d2:	86 e5       	ldi	r24, 0x56	; 86
    14d4:	0e 94 f6 00 	call	0x1ec	; 0x1ec <sensor_set>
    14d8:	4e ef       	ldi	r20, 0xFE	; 254
    14da:	6c e8       	ldi	r22, 0x8C	; 140
    14dc:	86 e5       	ldi	r24, 0x56	; 86
    14de:	0e 94 f6 00 	call	0x1ec	; 0x1ec <sensor_set>
    14e2:	4f ee       	ldi	r20, 0xEF	; 239
    14e4:	6d e8       	ldi	r22, 0x8D	; 141
    14e6:	86 e5       	ldi	r24, 0x56	; 86
    14e8:	0e 94 f6 00 	call	0x1ec	; 0x1ec <sensor_set>
    14ec:	4a ea       	ldi	r20, 0xAA	; 170
    14ee:	6e e8       	ldi	r22, 0x8E	; 142
    14f0:	86 e5       	ldi	r24, 0x56	; 86
    14f2:	0e 94 f6 00 	call	0x1ec	; 0x1ec <sensor_set>
    14f6:	4a ea       	ldi	r20, 0xAA	; 170
    14f8:	6f e8       	ldi	r22, 0x8F	; 143
    14fa:	86 e5       	ldi	r24, 0x56	; 86
    14fc:	0e 94 f6 00 	call	0x1ec	; 0x1ec <sensor_set>
    1500:	4f ef       	ldi	r20, 0xFF	; 255
    1502:	6f ef       	ldi	r22, 0xFF	; 255
    1504:	8f ef       	ldi	r24, 0xFF	; 255
    1506:	0c 94 f6 00 	jmp	0x1ec	; 0x1ec <sensor_set>
    150a:	08 95       	ret

0000150c <reg_set_jpeg_capture>:
    150c:	47 e0       	ldi	r20, 0x07	; 7
    150e:	63 e0       	ldi	r22, 0x03	; 3
    1510:	85 e3       	ldi	r24, 0x35	; 53
    1512:	0e 94 f6 00 	call	0x1ec	; 0x1ec <sensor_set>
    1516:	40 e0       	ldi	r20, 0x00	; 0
    1518:	60 e0       	ldi	r22, 0x00	; 0
    151a:	80 e3       	ldi	r24, 0x30	; 48
    151c:	0e 94 f6 00 	call	0x1ec	; 0x1ec <sensor_set>
    1520:	40 e0       	ldi	r20, 0x00	; 0
    1522:	61 e0       	ldi	r22, 0x01	; 1
    1524:	80 e3       	ldi	r24, 0x30	; 48
    1526:	0e 94 f6 00 	call	0x1ec	; 0x1ec <sensor_set>
    152a:	40 e0       	ldi	r20, 0x00	; 0
    152c:	62 e0       	ldi	r22, 0x02	; 2
    152e:	80 e3       	ldi	r24, 0x30	; 48
    1530:	0e 94 f6 00 	call	0x1ec	; 0x1ec <sensor_set>
    1534:	40 e0       	ldi	r20, 0x00	; 0
    1536:	63 e0       	ldi	r22, 0x03	; 3
    1538:	80 e3       	ldi	r24, 0x30	; 48
    153a:	0e 94 f6 00 	call	0x1ec	; 0x1ec <sensor_set>
    153e:	4f ef       	ldi	r20, 0xFF	; 255
    1540:	65 e0       	ldi	r22, 0x05	; 5
    1542:	80 e3       	ldi	r24, 0x30	; 48
    1544:	0e 94 f6 00 	call	0x1ec	; 0x1ec <sensor_set>
    1548:	4f ef       	ldi	r20, 0xFF	; 255
    154a:	66 e0       	ldi	r22, 0x06	; 6
    154c:	80 e3       	ldi	r24, 0x30	; 48
    154e:	0e 94 f6 00 	call	0x1ec	; 0x1ec <sensor_set>
    1552:	4f e3       	ldi	r20, 0x3F	; 63
    1554:	67 e0       	ldi	r22, 0x07	; 7
    1556:	80 e3       	ldi	r24, 0x30	; 48
    1558:	0e 94 f6 00 	call	0x1ec	; 0x1ec <sensor_set>
    155c:	47 e0       	ldi	r20, 0x07	; 7
    155e:	6c e0       	ldi	r22, 0x0C	; 12
    1560:	85 e3       	ldi	r24, 0x35	; 53
    1562:	0e 94 f6 00 	call	0x1ec	; 0x1ec <sensor_set>
    1566:	40 ed       	ldi	r20, 0xD0	; 208
    1568:	6d e0       	ldi	r22, 0x0D	; 13
    156a:	85 e3       	ldi	r24, 0x35	; 53
    156c:	0e 94 f6 00 	call	0x1ec	; 0x1ec <sensor_set>
    1570:	44 ee       	ldi	r20, 0xE4	; 228
    1572:	62 e0       	ldi	r22, 0x02	; 2
    1574:	86 e3       	ldi	r24, 0x36	; 54
    1576:	0e 94 f6 00 	call	0x1ec	; 0x1ec <sensor_set>
    157a:	4c ea       	ldi	r20, 0xAC	; 172
    157c:	62 e1       	ldi	r22, 0x12	; 18
    157e:	86 e3       	ldi	r24, 0x36	; 54
    1580:	0e 94 f6 00 	call	0x1ec	; 0x1ec <sensor_set>
    1584:	44 e4       	ldi	r20, 0x44	; 68
    1586:	63 e1       	ldi	r22, 0x13	; 19
    1588:	86 e3       	ldi	r24, 0x36	; 54
    158a:	0e 94 f6 00 	call	0x1ec	; 0x1ec <sensor_set>
    158e:	47 e2       	ldi	r20, 0x27	; 39
    1590:	61 e2       	ldi	r22, 0x21	; 33
    1592:	86 e3       	ldi	r24, 0x36	; 54
    1594:	0e 94 f6 00 	call	0x1ec	; 0x1ec <sensor_set>
    1598:	48 e0       	ldi	r20, 0x08	; 8
    159a:	62 e2       	ldi	r22, 0x22	; 34
    159c:	86 e3       	ldi	r24, 0x36	; 54
    159e:	0e 94 f6 00 	call	0x1ec	; 0x1ec <sensor_set>
    15a2:	42 e2       	ldi	r20, 0x22	; 34
    15a4:	63 e2       	ldi	r22, 0x23	; 35
    15a6:	86 e3       	ldi	r24, 0x36	; 54
    15a8:	0e 94 f6 00 	call	0x1ec	; 0x1ec <sensor_set>
    15ac:	40 e6       	ldi	r20, 0x60	; 96
    15ae:	64 e0       	ldi	r22, 0x04	; 4
    15b0:	86 e3       	ldi	r24, 0x36	; 54
    15b2:	0e 94 f6 00 	call	0x1ec	; 0x1ec <sensor_set>
    15b6:	4a ed       	ldi	r20, 0xDA	; 218
    15b8:	65 e0       	ldi	r22, 0x05	; 5
    15ba:	87 e3       	ldi	r24, 0x37	; 55
    15bc:	0e 94 f6 00 	call	0x1ec	; 0x1ec <sensor_set>
    15c0:	40 e8       	ldi	r20, 0x80	; 128
    15c2:	6a e0       	ldi	r22, 0x0A	; 10
    15c4:	87 e3       	ldi	r24, 0x37	; 55
    15c6:	0e 94 f6 00 	call	0x1ec	; 0x1ec <sensor_set>
    15ca:	4a e8       	ldi	r20, 0x8A	; 138
    15cc:	61 e0       	ldi	r22, 0x01	; 1
    15ce:	88 e3       	ldi	r24, 0x38	; 56
    15d0:	0e 94 f6 00 	call	0x1ec	; 0x1ec <sensor_set>
    15d4:	4a e0       	ldi	r20, 0x0A	; 10
    15d6:	63 e0       	ldi	r22, 0x03	; 3
    15d8:	88 e3       	ldi	r24, 0x38	; 56
    15da:	0e 94 f6 00 	call	0x1ec	; 0x1ec <sensor_set>
    15de:	4a e0       	ldi	r20, 0x0A	; 10
    15e0:	64 e0       	ldi	r22, 0x04	; 4
    15e2:	88 e3       	ldi	r24, 0x38	; 56
    15e4:	0e 94 f6 00 	call	0x1ec	; 0x1ec <sensor_set>
    15e8:	40 e2       	ldi	r20, 0x20	; 32
    15ea:	65 e0       	ldi	r22, 0x05	; 5
    15ec:	88 e3       	ldi	r24, 0x38	; 56
    15ee:	0e 94 f6 00 	call	0x1ec	; 0x1ec <sensor_set>
    15f2:	47 e0       	ldi	r20, 0x07	; 7
    15f4:	66 e0       	ldi	r22, 0x06	; 6
    15f6:	88 e3       	ldi	r24, 0x38	; 56
    15f8:	0e 94 f6 00 	call	0x1ec	; 0x1ec <sensor_set>
    15fc:	48 e9       	ldi	r20, 0x98	; 152
    15fe:	67 e0       	ldi	r22, 0x07	; 7
    1600:	88 e3       	ldi	r24, 0x38	; 56
    1602:	0e 94 f6 00 	call	0x1ec	; 0x1ec <sensor_set>
    1606:	4a e0       	ldi	r20, 0x0A	; 10
    1608:	68 e0       	ldi	r22, 0x08	; 8
    160a:	88 e3       	ldi	r24, 0x38	; 56
    160c:	0e 94 f6 00 	call	0x1ec	; 0x1ec <sensor_set>
    1610:	40 e2       	ldi	r20, 0x20	; 32
    1612:	69 e0       	ldi	r22, 0x09	; 9
    1614:	88 e3       	ldi	r24, 0x38	; 56
    1616:	0e 94 f6 00 	call	0x1ec	; 0x1ec <sensor_set>
    161a:	47 e0       	ldi	r20, 0x07	; 7
    161c:	6a e0       	ldi	r22, 0x0A	; 10
    161e:	88 e3       	ldi	r24, 0x38	; 56
    1620:	0e 94 f6 00 	call	0x1ec	; 0x1ec <sensor_set>
    1624:	48 e9       	ldi	r20, 0x98	; 152
    1626:	6b e0       	ldi	r22, 0x0B	; 11
    1628:	88 e3       	ldi	r24, 0x38	; 56
    162a:	0e 94 f6 00 	call	0x1ec	; 0x1ec <sensor_set>
    162e:	4c e0       	ldi	r20, 0x0C	; 12
    1630:	6c e0       	ldi	r22, 0x0C	; 12
    1632:	88 e3       	ldi	r24, 0x38	; 56
    1634:	0e 94 f6 00 	call	0x1ec	; 0x1ec <sensor_set>
    1638:	40 e8       	ldi	r20, 0x80	; 128
    163a:	6d e0       	ldi	r22, 0x0D	; 13
    163c:	88 e3       	ldi	r24, 0x38	; 56
    163e:	0e 94 f6 00 	call	0x1ec	; 0x1ec <sensor_set>
    1642:	47 e0       	ldi	r20, 0x07	; 7
    1644:	6e e0       	ldi	r22, 0x0E	; 14
    1646:	88 e3       	ldi	r24, 0x38	; 56
    1648:	0e 94 f6 00 	call	0x1ec	; 0x1ec <sensor_set>
    164c:	40 ed       	ldi	r20, 0xD0	; 208
    164e:	6f e0       	ldi	r22, 0x0F	; 15
    1650:	88 e3       	ldi	r24, 0x38	; 56
    1652:	0e 94 f6 00 	call	0x1ec	; 0x1ec <sensor_set>
    1656:	42 ec       	ldi	r20, 0xC2	; 194
    1658:	60 e1       	ldi	r22, 0x10	; 16
    165a:	88 e3       	ldi	r24, 0x38	; 56
    165c:	0e 94 f6 00 	call	0x1ec	; 0x1ec <sensor_set>
    1660:	44 e4       	ldi	r20, 0x44	; 68
    1662:	65 e1       	ldi	r22, 0x15	; 21
    1664:	88 e3       	ldi	r24, 0x38	; 56
    1666:	0e 94 f6 00 	call	0x1ec	; 0x1ec <sensor_set>
    166a:	48 ec       	ldi	r20, 0xC8	; 200
    166c:	68 e1       	ldi	r22, 0x18	; 24
    166e:	88 e3       	ldi	r24, 0x38	; 56
    1670:	0e 94 f6 00 	call	0x1ec	; 0x1ec <sensor_set>
    1674:	41 e0       	ldi	r20, 0x01	; 1
    1676:	64 e2       	ldi	r22, 0x24	; 36
    1678:	88 e3       	ldi	r24, 0x38	; 56
    167a:	0e 94 f6 00 	call	0x1ec	; 0x1ec <sensor_set>
    167e:	4a e0       	ldi	r20, 0x0A	; 10
    1680:	67 e2       	ldi	r22, 0x27	; 39
    1682:	88 e3       	ldi	r24, 0x38	; 56
    1684:	0e 94 f6 00 	call	0x1ec	; 0x1ec <sensor_set>
    1688:	48 e7       	ldi	r20, 0x78	; 120
    168a:	60 e0       	ldi	r22, 0x00	; 0
    168c:	8a e3       	ldi	r24, 0x3A	; 58
    168e:	0e 94 f6 00 	call	0x1ec	; 0x1ec <sensor_set>
    1692:	40 e1       	ldi	r20, 0x10	; 16
    1694:	6d e0       	ldi	r22, 0x0D	; 13
    1696:	8a e3       	ldi	r24, 0x3A	; 58
    1698:	0e 94 f6 00 	call	0x1ec	; 0x1ec <sensor_set>
    169c:	4d e0       	ldi	r20, 0x0D	; 13
    169e:	6e e0       	ldi	r22, 0x0E	; 14
    16a0:	8a e3       	ldi	r24, 0x3A	; 58
    16a2:	0e 94 f6 00 	call	0x1ec	; 0x1ec <sensor_set>
    16a6:	42 e3       	ldi	r20, 0x32	; 50
    16a8:	60 e1       	ldi	r22, 0x10	; 16
    16aa:	8a e3       	ldi	r24, 0x3A	; 58
    16ac:	0e 94 f6 00 	call	0x1ec	; 0x1ec <sensor_set>
    16b0:	4c e3       	ldi	r20, 0x3C	; 60
    16b2:	6b e1       	ldi	r22, 0x1B	; 27
    16b4:	8a e3       	ldi	r24, 0x3A	; 58
    16b6:	0e 94 f6 00 	call	0x1ec	; 0x1ec <sensor_set>
    16ba:	42 e3       	ldi	r20, 0x32	; 50
    16bc:	6e e1       	ldi	r22, 0x1E	; 30
    16be:	8a e3       	ldi	r24, 0x3A	; 58
    16c0:	0e 94 f6 00 	call	0x1ec	; 0x1ec <sensor_set>
    16c4:	40 e8       	ldi	r20, 0x80	; 128
    16c6:	61 e1       	ldi	r22, 0x11	; 17
    16c8:	8a e3       	ldi	r24, 0x3A	; 58
    16ca:	0e 94 f6 00 	call	0x1ec	; 0x1ec <sensor_set>
    16ce:	40 e2       	ldi	r20, 0x20	; 32
    16d0:	6f e1       	ldi	r22, 0x1F	; 31
    16d2:	8a e3       	ldi	r24, 0x3A	; 58
    16d4:	0e 94 f6 00 	call	0x1ec	; 0x1ec <sensor_set>
    16d8:	48 e7       	ldi	r20, 0x78	; 120
    16da:	60 e0       	ldi	r22, 0x00	; 0
    16dc:	8a e3       	ldi	r24, 0x3A	; 58
    16de:	0e 94 f6 00 	call	0x1ec	; 0x1ec <sensor_set>
    16e2:	45 e3       	ldi	r20, 0x35	; 53
    16e4:	6b e0       	ldi	r22, 0x0B	; 11
    16e6:	86 e4       	ldi	r24, 0x46	; 70
    16e8:	0e 94 f6 00 	call	0x1ec	; 0x1ec <sensor_set>
    16ec:	40 e0       	ldi	r20, 0x00	; 0
    16ee:	6d e1       	ldi	r22, 0x1D	; 29
    16f0:	87 e4       	ldi	r24, 0x47	; 71
    16f2:	0e 94 f6 00 	call	0x1ec	; 0x1ec <sensor_set>
    16f6:	43 e0       	ldi	r20, 0x03	; 3
    16f8:	63 e1       	ldi	r22, 0x13	; 19
    16fa:	87 e4       	ldi	r24, 0x47	; 71
    16fc:	0e 94 f6 00 	call	0x1ec	; 0x1ec <sensor_set>
    1700:	40 e5       	ldi	r20, 0x50	; 80
    1702:	6c e1       	ldi	r22, 0x1C	; 28
    1704:	87 e4       	ldi	r24, 0x47	; 71
    1706:	0e 94 f6 00 	call	0x1ec	; 0x1ec <sensor_set>
    170a:	4a e0       	ldi	r20, 0x0A	; 10
    170c:	62 e8       	ldi	r22, 0x82	; 130
    170e:	86 e5       	ldi	r24, 0x56	; 86
    1710:	0e 94 f6 00 	call	0x1ec	; 0x1ec <sensor_set>
    1714:	40 e2       	ldi	r20, 0x20	; 32
    1716:	63 e8       	ldi	r22, 0x83	; 131
    1718:	86 e5       	ldi	r24, 0x56	; 86
    171a:	0e 94 f6 00 	call	0x1ec	; 0x1ec <sensor_set>
    171e:	47 e0       	ldi	r20, 0x07	; 7
    1720:	66 e8       	ldi	r22, 0x86	; 134
    1722:	86 e5       	ldi	r24, 0x56	; 86
    1724:	0e 94 f6 00 	call	0x1ec	; 0x1ec <sensor_set>
    1728:	48 e9       	ldi	r20, 0x98	; 152
    172a:	67 e8       	ldi	r22, 0x87	; 135
    172c:	86 e5       	ldi	r24, 0x56	; 86
    172e:	0e 94 f6 00 	call	0x1ec	; 0x1ec <sensor_set>
    1732:	4f e4       	ldi	r20, 0x4F	; 79
    1734:	61 e0       	ldi	r22, 0x01	; 1
    1736:	80 e5       	ldi	r24, 0x50	; 80
    1738:	0e 94 f6 00 	call	0x1ec	; 0x1ec <sensor_set>
    173c:	40 e0       	ldi	r20, 0x00	; 0
    173e:	6b e9       	ldi	r22, 0x9B	; 155
    1740:	88 e5       	ldi	r24, 0x58	; 88
    1742:	0e 94 f6 00 	call	0x1ec	; 0x1ec <sensor_set>
    1746:	40 ec       	ldi	r20, 0xC0	; 192
    1748:	6a e9       	ldi	r22, 0x9A	; 154
    174a:	88 e5       	ldi	r24, 0x58	; 88
    174c:	0e 94 f6 00 	call	0x1ec	; 0x1ec <sensor_set>
    1750:	44 e0       	ldi	r20, 0x04	; 4
    1752:	67 e0       	ldi	r22, 0x07	; 7
    1754:	84 e4       	ldi	r24, 0x44	; 68
    1756:	0e 94 f6 00 	call	0x1ec	; 0x1ec <sensor_set>
    175a:	40 e0       	ldi	r20, 0x00	; 0
    175c:	6b e9       	ldi	r22, 0x9B	; 155
    175e:	88 e5       	ldi	r24, 0x58	; 88
    1760:	0e 94 f6 00 	call	0x1ec	; 0x1ec <sensor_set>
    1764:	40 ec       	ldi	r20, 0xC0	; 192
    1766:	6a e9       	ldi	r22, 0x9A	; 154
    1768:	88 e5       	ldi	r24, 0x58	; 88
    176a:	0e 94 f6 00 	call	0x1ec	; 0x1ec <sensor_set>
    176e:	4c e0       	ldi	r20, 0x0C	; 12
    1770:	62 e0       	ldi	r22, 0x02	; 2
    1772:	80 e3       	ldi	r24, 0x30	; 48
    1774:	0e 94 f6 00 	call	0x1ec	; 0x1ec <sensor_set>
    1778:	40 e0       	ldi	r20, 0x00	; 0
    177a:	62 e0       	ldi	r22, 0x02	; 2
    177c:	80 e3       	ldi	r24, 0x30	; 48
    177e:	0e 94 f6 00 	call	0x1ec	; 0x1ec <sensor_set>
    1782:	40 e0       	ldi	r20, 0x00	; 0
    1784:	63 e0       	ldi	r22, 0x03	; 3
    1786:	85 e3       	ldi	r24, 0x35	; 53
    1788:	0e 94 f6 00 	call	0x1ec	; 0x1ec <sensor_set>
    178c:	40 e1       	ldi	r20, 0x10	; 16
    178e:	60 e1       	ldi	r22, 0x10	; 16
    1790:	80 e3       	ldi	r24, 0x30	; 48
    1792:	0e 94 f6 00 	call	0x1ec	; 0x1ec <sensor_set>
    1796:	48 e0       	ldi	r20, 0x08	; 8
    1798:	61 e1       	ldi	r22, 0x11	; 17
    179a:	80 e3       	ldi	r24, 0x30	; 48
    179c:	0e 94 f6 00 	call	0x1ec	; 0x1ec <sensor_set>
    17a0:	4f ef       	ldi	r20, 0xFF	; 255
    17a2:	60 e0       	ldi	r22, 0x00	; 0
    17a4:	80 e5       	ldi	r24, 0x50	; 80
    17a6:	0e 94 f6 00 	call	0x1ec	; 0x1ec <sensor_set>
    17aa:	4f ef       	ldi	r20, 0xFF	; 255
    17ac:	6f ef       	ldi	r22, 0xFF	; 255
    17ae:	8f ef       	ldi	r24, 0xFF	; 255
    17b0:	0c 94 f6 00 	jmp	0x1ec	; 0x1ec <sensor_set>
    17b4:	08 95       	ret

000017b6 <reg_set_320x240>:
    17b6:	41 e0       	ldi	r20, 0x01	; 1
    17b8:	60 e0       	ldi	r22, 0x00	; 0
    17ba:	88 e3       	ldi	r24, 0x38	; 56
    17bc:	0e 94 f6 00 	call	0x1ec	; 0x1ec <sensor_set>
    17c0:	48 ea       	ldi	r20, 0xA8	; 168
    17c2:	61 e0       	ldi	r22, 0x01	; 1
    17c4:	88 e3       	ldi	r24, 0x38	; 56
    17c6:	0e 94 f6 00 	call	0x1ec	; 0x1ec <sensor_set>
    17ca:	40 e0       	ldi	r20, 0x00	; 0
    17cc:	62 e0       	ldi	r22, 0x02	; 2
    17ce:	88 e3       	ldi	r24, 0x38	; 56
    17d0:	0e 94 f6 00 	call	0x1ec	; 0x1ec <sensor_set>
    17d4:	4a e0       	ldi	r20, 0x0A	; 10
    17d6:	63 e0       	ldi	r22, 0x03	; 3
    17d8:	88 e3       	ldi	r24, 0x38	; 56
    17da:	0e 94 f6 00 	call	0x1ec	; 0x1ec <sensor_set>
    17de:	4a e0       	ldi	r20, 0x0A	; 10
    17e0:	64 e0       	ldi	r22, 0x04	; 4
    17e2:	88 e3       	ldi	r24, 0x38	; 56
    17e4:	0e 94 f6 00 	call	0x1ec	; 0x1ec <sensor_set>
    17e8:	40 e2       	ldi	r20, 0x20	; 32
    17ea:	65 e0       	ldi	r22, 0x05	; 5
    17ec:	88 e3       	ldi	r24, 0x38	; 56
    17ee:	0e 94 f6 00 	call	0x1ec	; 0x1ec <sensor_set>
    17f2:	47 e0       	ldi	r20, 0x07	; 7
    17f4:	66 e0       	ldi	r22, 0x06	; 6
    17f6:	88 e3       	ldi	r24, 0x38	; 56
    17f8:	0e 94 f6 00 	call	0x1ec	; 0x1ec <sensor_set>
    17fc:	48 e9       	ldi	r20, 0x98	; 152
    17fe:	67 e0       	ldi	r22, 0x07	; 7
    1800:	88 e3       	ldi	r24, 0x38	; 56
    1802:	0e 94 f6 00 	call	0x1ec	; 0x1ec <sensor_set>
    1806:	41 e0       	ldi	r20, 0x01	; 1
    1808:	68 e0       	ldi	r22, 0x08	; 8
    180a:	88 e3       	ldi	r24, 0x38	; 56
    180c:	0e 94 f6 00 	call	0x1ec	; 0x1ec <sensor_set>
    1810:	40 e4       	ldi	r20, 0x40	; 64
    1812:	69 e0       	ldi	r22, 0x09	; 9
    1814:	88 e3       	ldi	r24, 0x38	; 56
    1816:	0e 94 f6 00 	call	0x1ec	; 0x1ec <sensor_set>
    181a:	40 e0       	ldi	r20, 0x00	; 0
    181c:	6a e0       	ldi	r22, 0x0A	; 10
    181e:	88 e3       	ldi	r24, 0x38	; 56
    1820:	0e 94 f6 00 	call	0x1ec	; 0x1ec <sensor_set>
    1824:	40 ef       	ldi	r20, 0xF0	; 240
    1826:	6b e0       	ldi	r22, 0x0B	; 11
    1828:	88 e3       	ldi	r24, 0x38	; 56
    182a:	0e 94 f6 00 	call	0x1ec	; 0x1ec <sensor_set>
    182e:	4c e0       	ldi	r20, 0x0C	; 12
    1830:	6c e0       	ldi	r22, 0x0C	; 12
    1832:	88 e3       	ldi	r24, 0x38	; 56
    1834:	0e 94 f6 00 	call	0x1ec	; 0x1ec <sensor_set>
    1838:	40 e8       	ldi	r20, 0x80	; 128
    183a:	6d e0       	ldi	r22, 0x0D	; 13
    183c:	88 e3       	ldi	r24, 0x38	; 56
    183e:	0e 94 f6 00 	call	0x1ec	; 0x1ec <sensor_set>
    1842:	47 e0       	ldi	r20, 0x07	; 7
    1844:	6e e0       	ldi	r22, 0x0E	; 14
    1846:	88 e3       	ldi	r24, 0x38	; 56
    1848:	0e 94 f6 00 	call	0x1ec	; 0x1ec <sensor_set>
    184c:	40 ed       	ldi	r20, 0xD0	; 208
    184e:	6f e0       	ldi	r22, 0x0F	; 15
    1850:	88 e3       	ldi	r24, 0x38	; 56
    1852:	0e 94 f6 00 	call	0x1ec	; 0x1ec <sensor_set>
    1856:	4f e7       	ldi	r20, 0x7F	; 127
    1858:	61 e0       	ldi	r22, 0x01	; 1
    185a:	80 e5       	ldi	r24, 0x50	; 80
    185c:	0e 94 f6 00 	call	0x1ec	; 0x1ec <sensor_set>
    1860:	40 e0       	ldi	r20, 0x00	; 0
    1862:	60 e8       	ldi	r22, 0x80	; 128
    1864:	86 e5       	ldi	r24, 0x56	; 86
    1866:	0e 94 f6 00 	call	0x1ec	; 0x1ec <sensor_set>
    186a:	40 e0       	ldi	r20, 0x00	; 0
    186c:	61 e8       	ldi	r22, 0x81	; 129
    186e:	86 e5       	ldi	r24, 0x56	; 86
    1870:	0e 94 f6 00 	call	0x1ec	; 0x1ec <sensor_set>
    1874:	4a e0       	ldi	r20, 0x0A	; 10
    1876:	62 e8       	ldi	r22, 0x82	; 130
    1878:	86 e5       	ldi	r24, 0x56	; 86
    187a:	0e 94 f6 00 	call	0x1ec	; 0x1ec <sensor_set>
    187e:	40 e2       	ldi	r20, 0x20	; 32
    1880:	63 e8       	ldi	r22, 0x83	; 131
    1882:	86 e5       	ldi	r24, 0x56	; 86
    1884:	0e 94 f6 00 	call	0x1ec	; 0x1ec <sensor_set>
    1888:	40 e0       	ldi	r20, 0x00	; 0
    188a:	64 e8       	ldi	r22, 0x84	; 132
    188c:	86 e5       	ldi	r24, 0x56	; 86
    188e:	0e 94 f6 00 	call	0x1ec	; 0x1ec <sensor_set>
    1892:	40 e0       	ldi	r20, 0x00	; 0
    1894:	65 e8       	ldi	r22, 0x85	; 133
    1896:	86 e5       	ldi	r24, 0x56	; 86
    1898:	0e 94 f6 00 	call	0x1ec	; 0x1ec <sensor_set>
    189c:	47 e0       	ldi	r20, 0x07	; 7
    189e:	66 e8       	ldi	r22, 0x86	; 134
    18a0:	86 e5       	ldi	r24, 0x56	; 86
    18a2:	0e 94 f6 00 	call	0x1ec	; 0x1ec <sensor_set>
    18a6:	48 e9       	ldi	r20, 0x98	; 152
    18a8:	67 e8       	ldi	r22, 0x87	; 135
    18aa:	86 e5       	ldi	r24, 0x56	; 86
    18ac:	0e 94 f6 00 	call	0x1ec	; 0x1ec <sensor_set>
    18b0:	4f ef       	ldi	r20, 0xFF	; 255
    18b2:	6f ef       	ldi	r22, 0xFF	; 255
    18b4:	8f ef       	ldi	r24, 0xFF	; 255
    18b6:	0c 94 f6 00 	jmp	0x1ec	; 0x1ec <sensor_set>
    18ba:	08 95       	ret

000018bc <camInit>:
    18bc:	60 e8       	ldi	r22, 0x80	; 128
    18be:	87 e8       	ldi	r24, 0x87	; 135
    18c0:	0e 94 86 00 	call	0x10c	; 0x10c <writeSPI>
    18c4:	60 e0       	ldi	r22, 0x00	; 0
    18c6:	87 e8       	ldi	r24, 0x87	; 135
    18c8:	0e 94 86 00 	call	0x10c	; 0x10c <writeSPI>
    18cc:	40 e8       	ldi	r20, 0x80	; 128
    18ce:	50 e0       	ldi	r21, 0x00	; 0
    18d0:	68 e0       	ldi	r22, 0x08	; 8
    18d2:	70 e0       	ldi	r23, 0x00	; 0
    18d4:	80 e3       	ldi	r24, 0x30	; 48
    18d6:	90 e0       	ldi	r25, 0x00	; 0
    18d8:	0e 94 f6 00 	call	0x1ec	; 0x1ec <sensor_set>
    18dc:	0e 94 15 01 	call	0x22a	; 0x22a <reg_set_jpeg>
    18e0:	15 de       	rcall	.-982    	; 0x150c <reg_set_jpeg_capture>
    18e2:	69 df       	rcall	.-302    	; 0x17b6 <reg_set_320x240>
    18e4:	87 ea       	ldi	r24, 0xA7	; 167
    18e6:	91 e6       	ldi	r25, 0x61	; 97
    18e8:	01 97       	sbiw	r24, 0x01	; 1
    18ea:	f1 f7       	brne	.-4      	; 0x18e8 <camInit+0x2c>
    18ec:	00 c0       	rjmp	.+0      	; 0x18ee <camInit+0x32>
    18ee:	00 00       	nop
    18f0:	48 ea       	ldi	r20, 0xA8	; 168
    18f2:	50 e0       	ldi	r21, 0x00	; 0
    18f4:	68 e1       	ldi	r22, 0x18	; 24
    18f6:	70 e0       	ldi	r23, 0x00	; 0
    18f8:	88 e3       	ldi	r24, 0x38	; 56
    18fa:	90 e0       	ldi	r25, 0x00	; 0
    18fc:	0e 94 f6 00 	call	0x1ec	; 0x1ec <sensor_set>
    1900:	40 e1       	ldi	r20, 0x10	; 16
    1902:	50 e0       	ldi	r21, 0x00	; 0
    1904:	61 e2       	ldi	r22, 0x21	; 33
    1906:	70 e0       	ldi	r23, 0x00	; 0
    1908:	86 e3       	ldi	r24, 0x36	; 54
    190a:	90 e0       	ldi	r25, 0x00	; 0
    190c:	0e 94 f6 00 	call	0x1ec	; 0x1ec <sensor_set>
    1910:	40 eb       	ldi	r20, 0xB0	; 176
    1912:	50 e0       	ldi	r21, 0x00	; 0
    1914:	61 e0       	ldi	r22, 0x01	; 1
    1916:	70 e0       	ldi	r23, 0x00	; 0
    1918:	88 e3       	ldi	r24, 0x38	; 56
    191a:	90 e0       	ldi	r25, 0x00	; 0
    191c:	0e 94 f6 00 	call	0x1ec	; 0x1ec <sensor_set>
    1920:	48 e0       	ldi	r20, 0x08	; 8
    1922:	50 e0       	ldi	r21, 0x00	; 0
    1924:	67 e0       	ldi	r22, 0x07	; 7
    1926:	70 e0       	ldi	r23, 0x00	; 0
    1928:	84 e4       	ldi	r24, 0x44	; 68
    192a:	90 e0       	ldi	r25, 0x00	; 0
    192c:	0e 94 f6 00 	call	0x1ec	; 0x1ec <sensor_set>
    1930:	40 e0       	ldi	r20, 0x00	; 0
    1932:	50 e0       	ldi	r21, 0x00	; 0
    1934:	68 e8       	ldi	r22, 0x88	; 136
    1936:	70 e0       	ldi	r23, 0x00	; 0
    1938:	88 e5       	ldi	r24, 0x58	; 88
    193a:	90 e0       	ldi	r25, 0x00	; 0
    193c:	0e 94 f6 00 	call	0x1ec	; 0x1ec <sensor_set>
    1940:	4f ef       	ldi	r20, 0xFF	; 255
    1942:	50 e0       	ldi	r21, 0x00	; 0
    1944:	60 e0       	ldi	r22, 0x00	; 0
    1946:	70 e0       	ldi	r23, 0x00	; 0
    1948:	80 e5       	ldi	r24, 0x50	; 80
    194a:	90 e0       	ldi	r25, 0x00	; 0
    194c:	0e 94 f6 00 	call	0x1ec	; 0x1ec <sensor_set>
    1950:	62 e0       	ldi	r22, 0x02	; 2
    1952:	70 e0       	ldi	r23, 0x00	; 0
    1954:	83 e0       	ldi	r24, 0x03	; 3
    1956:	90 e0       	ldi	r25, 0x00	; 0
    1958:	0e 94 08 01 	call	0x210	; 0x210 <set_bit>
    195c:	60 e0       	ldi	r22, 0x00	; 0
    195e:	81 e8       	ldi	r24, 0x81	; 129
    1960:	0c 94 86 00 	jmp	0x10c	; 0x10c <writeSPI>
    1964:	08 95       	ret

00001966 <read_test>:

void read_test(void){
    1966:	cf 93       	push	r28
	uint8_t temp=0;
	uint8_t temp_last=0;
    1968:	20 e0       	ldi	r18, 0x00	; 0
	 if(m > 0 ) {}//Write the left image data to file from buffer
	 //outFile.write( buf, m );m = 0;
}

void read_test(void){
	uint8_t temp=0;
    196a:	c0 e0       	ldi	r28, 0x00	; 0
	uint8_t temp_last=0;
	while(( temp != 0xD9) | (temp_last !=0xFF)) {
    196c:	08 c0       	rjmp	.+16     	; 0x197e <read_test+0x18>
		temp_last =  temp;
		temp = readSPI(0x3D);
    196e:	8d e3       	ldi	r24, 0x3D	; 61
    1970:	0e 94 76 00 	call	0xec	; 0xec <readSPI>
	#else
		//round up by default
		__ticks_dc = (uint32_t)(ceil(fabs(__tmp)));
	#endif

	__builtin_avr_delay_cycles(__ticks_dc);
    1974:	95 e0       	ldi	r25, 0x05	; 5
    1976:	9a 95       	dec	r25
    1978:	f1 f7       	brne	.-4      	; 0x1976 <read_test+0x10>

void read_test(void){
	uint8_t temp=0;
	uint8_t temp_last=0;
	while(( temp != 0xD9) | (temp_last !=0xFF)) {
		temp_last =  temp;
    197a:	2c 2f       	mov	r18, r28
		temp = readSPI(0x3D);
    197c:	c8 2f       	mov	r28, r24
}

void read_test(void){
	uint8_t temp=0;
	uint8_t temp_last=0;
	while(( temp != 0xD9) | (temp_last !=0xFF)) {
    197e:	91 e0       	ldi	r25, 0x01	; 1
    1980:	c9 3d       	cpi	r28, 0xD9	; 217
    1982:	09 f4       	brne	.+2      	; 0x1986 <read_test+0x20>
    1984:	90 e0       	ldi	r25, 0x00	; 0
    1986:	81 e0       	ldi	r24, 0x01	; 1
    1988:	2f 3f       	cpi	r18, 0xFF	; 255
    198a:	09 f4       	brne	.+2      	; 0x198e <read_test+0x28>
    198c:	80 e0       	ldi	r24, 0x00	; 0
    198e:	89 2b       	or	r24, r25
    1990:	71 f7       	brne	.-36     	; 0x196e <read_test+0x8>
		temp_last =  temp;
		temp = readSPI(0x3D);
		_delay_us(15);
	}
}
    1992:	cf 91       	pop	r28
    1994:	08 95       	ret

00001996 <main>:
	
	//DDRD |= (1 << PD0); DDRD |= (1 << PD1);
	
	//PORTD &= ~(1 << PD0);
	
	spi_master_init(0,SPI_CLOCK_DIV2);
    1996:	64 e0       	ldi	r22, 0x04	; 4
    1998:	80 e0       	ldi	r24, 0x00	; 0
    199a:	0e 94 5e 00 	call	0xbc	; 0xbc <spi_master_init>
	i2c_init();
    199e:	0e 94 b8 00 	call	0x170	; 0x170 <i2c_init>
	}*/
	
	//_delay_ms(2000);
	//PORTD &= ~(1 << PD0);
	
	camInit();
    19a2:	8c df       	rcall	.-232    	; 0x18bc <camInit>
	startCapture();
    19a4:	0e 94 95 00 	call	0x12a	; 0x12a <startCapture>
	// uint32_t size = readSize();
	//sd_write();
	//PORTD|= (1 << PD1);
	read_test();
    19a8:	de df       	rcall	.-68     	; 0x1966 <read_test>
	
	writeSPI(0x84,0x01); //clear fifo flag
    19aa:	61 e0       	ldi	r22, 0x01	; 1
    19ac:	84 e8       	ldi	r24, 0x84	; 132
    19ae:	0e 94 86 00 	call	0x10c	; 0x10c <writeSPI>
}
    19b2:	80 e0       	ldi	r24, 0x00	; 0
    19b4:	90 e0       	ldi	r25, 0x00	; 0
    19b6:	08 95       	ret

000019b8 <_exit>:
    19b8:	f8 94       	cli

000019ba <__stop_program>:
    19ba:	ff cf       	rjmp	.-2      	; 0x19ba <__stop_program>
